
Blink.elf:     file format elf32-avr

Sections:
Idx Name          Size      VMA       LMA       File off  Algn
  0 .data         0000013a  00800100  00004fbe  00005052  2**0
                  CONTENTS, ALLOC, LOAD, DATA
  1 .text         00004fbe  00000000  00000000  00000094  2**1
                  CONTENTS, ALLOC, LOAD, READONLY, CODE
  2 .bss          00000025  0080023a  0080023a  0000518c  2**0
                  ALLOC
  3 .stab         00007e60  00000000  00000000  0000518c  2**2
                  CONTENTS, READONLY, DEBUGGING
  4 .stabstr      00004092  00000000  00000000  0000cfec  2**0
                  CONTENTS, READONLY, DEBUGGING

Disassembly of section .text:

00000000 <__vectors>:
       0:	0c 94 62 00 	jmp	0xc4	; 0xc4 <__ctors_end>
       4:	0c 94 8a 00 	jmp	0x114	; 0x114 <__bad_interrupt>
       8:	0c 94 8a 00 	jmp	0x114	; 0x114 <__bad_interrupt>
       c:	0c 94 8a 00 	jmp	0x114	; 0x114 <__bad_interrupt>
      10:	0c 94 8a 00 	jmp	0x114	; 0x114 <__bad_interrupt>
      14:	0c 94 8a 00 	jmp	0x114	; 0x114 <__bad_interrupt>
      18:	0c 94 8a 00 	jmp	0x114	; 0x114 <__bad_interrupt>
      1c:	0c 94 8a 00 	jmp	0x114	; 0x114 <__bad_interrupt>
      20:	0c 94 8a 00 	jmp	0x114	; 0x114 <__bad_interrupt>
      24:	0c 94 8a 00 	jmp	0x114	; 0x114 <__bad_interrupt>
      28:	0c 94 8a 00 	jmp	0x114	; 0x114 <__bad_interrupt>
      2c:	0c 94 8a 00 	jmp	0x114	; 0x114 <__bad_interrupt>
      30:	0c 94 8a 00 	jmp	0x114	; 0x114 <__bad_interrupt>
      34:	0c 94 8a 00 	jmp	0x114	; 0x114 <__bad_interrupt>
      38:	0c 94 8a 00 	jmp	0x114	; 0x114 <__bad_interrupt>
      3c:	0c 94 8a 00 	jmp	0x114	; 0x114 <__bad_interrupt>
      40:	0c 94 ab 1a 	jmp	0x3556	; 0x3556 <__vector_16>
      44:	0c 94 8a 00 	jmp	0x114	; 0x114 <__bad_interrupt>
      48:	0c 94 8a 00 	jmp	0x114	; 0x114 <__bad_interrupt>
      4c:	0c 94 8a 00 	jmp	0x114	; 0x114 <__bad_interrupt>
      50:	0c 94 8a 00 	jmp	0x114	; 0x114 <__bad_interrupt>
      54:	0c 94 8a 00 	jmp	0x114	; 0x114 <__bad_interrupt>
      58:	0c 94 8a 00 	jmp	0x114	; 0x114 <__bad_interrupt>
      5c:	0c 94 8a 00 	jmp	0x114	; 0x114 <__bad_interrupt>
      60:	0c 94 8a 00 	jmp	0x114	; 0x114 <__bad_interrupt>
      64:	0c 94 8a 00 	jmp	0x114	; 0x114 <__bad_interrupt>

00000068 <port_to_mode_PGM>:
      68:	00 00 00 00 24 00 27 00 2a 00                       ....$.'.*.

00000072 <port_to_output_PGM>:
      72:	00 00 00 00 25 00 28 00 2b 00                       ....%.(.+.

0000007c <port_to_input_PGM>:
      7c:	00 00 00 00 23 00 26 00 29 00                       ....#.&.).

00000086 <digital_pin_to_port_PGM>:
      86:	04 04 04 04 04 04 04 04 02 02 02 02 02 02 03 03     ................
      96:	03 03 03 03                                         ....

0000009a <digital_pin_to_bit_mask_PGM>:
      9a:	01 02 04 08 10 20 40 80 01 02 04 08 10 20 01 02     ..... @...... ..
      aa:	04 08 10 20                                         ... 

000000ae <digital_pin_to_timer_PGM>:
      ae:	00 00 00 07 00 02 01 00 00 03 04 06 00 00 00 00     ................
      be:	00 00 00 00                                         ....

000000c2 <__ctors_start>:
      c2:	c0 07       	cpc	r28, r16

000000c4 <__ctors_end>:
      c4:	11 24       	eor	r1, r1
      c6:	1f be       	out	0x3f, r1	; 63
      c8:	cf ef       	ldi	r28, 0xFF	; 255
      ca:	d8 e0       	ldi	r29, 0x08	; 8
      cc:	de bf       	out	0x3e, r29	; 62
      ce:	cd bf       	out	0x3d, r28	; 61

000000d0 <__do_copy_data>:
      d0:	12 e0       	ldi	r17, 0x02	; 2
      d2:	a0 e0       	ldi	r26, 0x00	; 0
      d4:	b1 e0       	ldi	r27, 0x01	; 1
      d6:	ee eb       	ldi	r30, 0xBE	; 190
      d8:	ff e4       	ldi	r31, 0x4F	; 79
      da:	02 c0       	rjmp	.+4      	; 0xe0 <.do_copy_data_start>

000000dc <.do_copy_data_loop>:
      dc:	05 90       	lpm	r0, Z+
      de:	0d 92       	st	X+, r0

000000e0 <.do_copy_data_start>:
      e0:	aa 33       	cpi	r26, 0x3A	; 58
      e2:	b1 07       	cpc	r27, r17
      e4:	d9 f7       	brne	.-10     	; 0xdc <.do_copy_data_loop>

000000e6 <__do_clear_bss>:
      e6:	12 e0       	ldi	r17, 0x02	; 2
      e8:	aa e3       	ldi	r26, 0x3A	; 58
      ea:	b2 e0       	ldi	r27, 0x02	; 2
      ec:	01 c0       	rjmp	.+2      	; 0xf0 <.do_clear_bss_start>

000000ee <.do_clear_bss_loop>:
      ee:	1d 92       	st	X+, r1

000000f0 <.do_clear_bss_start>:
      f0:	af 35       	cpi	r26, 0x5F	; 95
      f2:	b1 07       	cpc	r27, r17
      f4:	e1 f7       	brne	.-8      	; 0xee <.do_clear_bss_loop>

000000f6 <__do_global_ctors>:
      f6:	10 e0       	ldi	r17, 0x00	; 0
      f8:	c4 ec       	ldi	r28, 0xC4	; 196
      fa:	d0 e0       	ldi	r29, 0x00	; 0
      fc:	04 c0       	rjmp	.+8      	; 0x106 <.do_global_ctors_start>

000000fe <.do_global_ctors_loop>:
      fe:	22 97       	sbiw	r28, 0x02	; 2
     100:	fe 01       	movw	r30, r28
     102:	0e 94 aa 25 	call	0x4b54	; 0x4b54 <__tablejump__>

00000106 <.do_global_ctors_start>:
     106:	c2 3c       	cpi	r28, 0xC2	; 194
     108:	d1 07       	cpc	r29, r17
     10a:	c9 f7       	brne	.-14     	; 0xfe <.do_global_ctors_loop>
     10c:	0e 94 cd 07 	call	0xf9a	; 0xf9a <main>
     110:	0c 94 dd 27 	jmp	0x4fba	; 0x4fba <_exit>

00000114 <__bad_interrupt>:
     114:	0c 94 00 00 	jmp	0	; 0x0 <__vectors>

00000118 <_ZN5PrintC2Ev>:
#define OCT 8
#define BIN 2
#define BYTE 0

class Print
{
     118:	df 93       	push	r29
     11a:	cf 93       	push	r28
     11c:	00 d0       	rcall	.+0      	; 0x11e <_ZN5PrintC2Ev+0x6>
     11e:	cd b7       	in	r28, 0x3d	; 61
     120:	de b7       	in	r29, 0x3e	; 62
     122:	9a 83       	std	Y+2, r25	; 0x02
     124:	89 83       	std	Y+1, r24	; 0x01
     126:	e9 81       	ldd	r30, Y+1	; 0x01
     128:	fa 81       	ldd	r31, Y+2	; 0x02
     12a:	8c e1       	ldi	r24, 0x1C	; 28
     12c:	91 e0       	ldi	r25, 0x01	; 1
     12e:	91 83       	std	Z+1, r25	; 0x01
     130:	80 83       	st	Z, r24
     132:	0f 90       	pop	r0
     134:	0f 90       	pop	r0
     136:	cf 91       	pop	r28
     138:	df 91       	pop	r29
     13a:	08 95       	ret

0000013c <_ZN13LiquidCrystal11pulseEnableEv>:
    write4bits(value>>4);
    write4bits(value);
  }
}

void LiquidCrystal::pulseEnable(void) {
     13c:	df 93       	push	r29
     13e:	cf 93       	push	r28
     140:	00 d0       	rcall	.+0      	; 0x142 <_ZN13LiquidCrystal11pulseEnableEv+0x6>
     142:	cd b7       	in	r28, 0x3d	; 61
     144:	de b7       	in	r29, 0x3e	; 62
     146:	9a 83       	std	Y+2, r25	; 0x02
     148:	89 83       	std	Y+1, r24	; 0x01
  digitalWrite(_enable_pin, LOW);
     14a:	e9 81       	ldd	r30, Y+1	; 0x01
     14c:	fa 81       	ldd	r31, Y+2	; 0x02
     14e:	84 81       	ldd	r24, Z+4	; 0x04
     150:	60 e0       	ldi	r22, 0x00	; 0
     152:	0e 94 ec 1c 	call	0x39d8	; 0x39d8 <digitalWrite>
  delayMicroseconds(1);    
     156:	81 e0       	ldi	r24, 0x01	; 1
     158:	90 e0       	ldi	r25, 0x00	; 0
     15a:	0e 94 e3 1b 	call	0x37c6	; 0x37c6 <delayMicroseconds>
  digitalWrite(_enable_pin, HIGH);
     15e:	e9 81       	ldd	r30, Y+1	; 0x01
     160:	fa 81       	ldd	r31, Y+2	; 0x02
     162:	84 81       	ldd	r24, Z+4	; 0x04
     164:	61 e0       	ldi	r22, 0x01	; 1
     166:	0e 94 ec 1c 	call	0x39d8	; 0x39d8 <digitalWrite>
  delayMicroseconds(1);    // enable pulse must be >450ns
     16a:	81 e0       	ldi	r24, 0x01	; 1
     16c:	90 e0       	ldi	r25, 0x00	; 0
     16e:	0e 94 e3 1b 	call	0x37c6	; 0x37c6 <delayMicroseconds>
  digitalWrite(_enable_pin, LOW);
     172:	e9 81       	ldd	r30, Y+1	; 0x01
     174:	fa 81       	ldd	r31, Y+2	; 0x02
     176:	84 81       	ldd	r24, Z+4	; 0x04
     178:	60 e0       	ldi	r22, 0x00	; 0
     17a:	0e 94 ec 1c 	call	0x39d8	; 0x39d8 <digitalWrite>
  delayMicroseconds(100);   // commands need > 37us to settle
     17e:	84 e6       	ldi	r24, 0x64	; 100
     180:	90 e0       	ldi	r25, 0x00	; 0
     182:	0e 94 e3 1b 	call	0x37c6	; 0x37c6 <delayMicroseconds>
}
     186:	0f 90       	pop	r0
     188:	0f 90       	pop	r0
     18a:	cf 91       	pop	r28
     18c:	df 91       	pop	r29
     18e:	08 95       	ret

00000190 <_ZN13LiquidCrystal10write8bitsEh>:
  }

  pulseEnable();
}

void LiquidCrystal::write8bits(uint8_t value) {
     190:	df 93       	push	r29
     192:	cf 93       	push	r28
     194:	00 d0       	rcall	.+0      	; 0x196 <_ZN13LiquidCrystal10write8bitsEh+0x6>
     196:	00 d0       	rcall	.+0      	; 0x198 <_ZN13LiquidCrystal10write8bitsEh+0x8>
     198:	0f 92       	push	r0
     19a:	cd b7       	in	r28, 0x3d	; 61
     19c:	de b7       	in	r29, 0x3e	; 62
     19e:	9c 83       	std	Y+4, r25	; 0x04
     1a0:	8b 83       	std	Y+3, r24	; 0x03
     1a2:	6d 83       	std	Y+5, r22	; 0x05
  for (int i = 0; i < 8; i++) {
     1a4:	1a 82       	std	Y+2, r1	; 0x02
     1a6:	19 82       	std	Y+1, r1	; 0x01
     1a8:	29 c0       	rjmp	.+82     	; 0x1fc <_ZN13LiquidCrystal10write8bitsEh+0x6c>
    pinMode(_data_pins[i], OUTPUT);
     1aa:	29 81       	ldd	r18, Y+1	; 0x01
     1ac:	3a 81       	ldd	r19, Y+2	; 0x02
     1ae:	8b 81       	ldd	r24, Y+3	; 0x03
     1b0:	9c 81       	ldd	r25, Y+4	; 0x04
     1b2:	82 0f       	add	r24, r18
     1b4:	93 1f       	adc	r25, r19
     1b6:	fc 01       	movw	r30, r24
     1b8:	35 96       	adiw	r30, 0x05	; 5
     1ba:	80 81       	ld	r24, Z
     1bc:	61 e0       	ldi	r22, 0x01	; 1
     1be:	0e 94 7b 1c 	call	0x38f6	; 0x38f6 <pinMode>
    digitalWrite(_data_pins[i], (value >> i) & 0x01);
     1c2:	29 81       	ldd	r18, Y+1	; 0x01
     1c4:	3a 81       	ldd	r19, Y+2	; 0x02
     1c6:	8b 81       	ldd	r24, Y+3	; 0x03
     1c8:	9c 81       	ldd	r25, Y+4	; 0x04
     1ca:	82 0f       	add	r24, r18
     1cc:	93 1f       	adc	r25, r19
     1ce:	fc 01       	movw	r30, r24
     1d0:	35 96       	adiw	r30, 0x05	; 5
     1d2:	20 81       	ld	r18, Z
     1d4:	8d 81       	ldd	r24, Y+5	; 0x05
     1d6:	88 2f       	mov	r24, r24
     1d8:	90 e0       	ldi	r25, 0x00	; 0
     1da:	09 80       	ldd	r0, Y+1	; 0x01
     1dc:	02 c0       	rjmp	.+4      	; 0x1e2 <_ZN13LiquidCrystal10write8bitsEh+0x52>
     1de:	95 95       	asr	r25
     1e0:	87 95       	ror	r24
     1e2:	0a 94       	dec	r0
     1e4:	e2 f7       	brpl	.-8      	; 0x1de <_ZN13LiquidCrystal10write8bitsEh+0x4e>
     1e6:	98 2f       	mov	r25, r24
     1e8:	91 70       	andi	r25, 0x01	; 1
     1ea:	82 2f       	mov	r24, r18
     1ec:	69 2f       	mov	r22, r25
     1ee:	0e 94 ec 1c 	call	0x39d8	; 0x39d8 <digitalWrite>

  pulseEnable();
}

void LiquidCrystal::write8bits(uint8_t value) {
  for (int i = 0; i < 8; i++) {
     1f2:	89 81       	ldd	r24, Y+1	; 0x01
     1f4:	9a 81       	ldd	r25, Y+2	; 0x02
     1f6:	01 96       	adiw	r24, 0x01	; 1
     1f8:	9a 83       	std	Y+2, r25	; 0x02
     1fa:	89 83       	std	Y+1, r24	; 0x01
     1fc:	89 81       	ldd	r24, Y+1	; 0x01
     1fe:	9a 81       	ldd	r25, Y+2	; 0x02
     200:	88 30       	cpi	r24, 0x08	; 8
     202:	91 05       	cpc	r25, r1
     204:	94 f2       	brlt	.-92     	; 0x1aa <_ZN13LiquidCrystal10write8bitsEh+0x1a>
    pinMode(_data_pins[i], OUTPUT);
    digitalWrite(_data_pins[i], (value >> i) & 0x01);
  }
  
  pulseEnable();
     206:	8b 81       	ldd	r24, Y+3	; 0x03
     208:	9c 81       	ldd	r25, Y+4	; 0x04
     20a:	0e 94 9e 00 	call	0x13c	; 0x13c <_ZN13LiquidCrystal11pulseEnableEv>
}
     20e:	0f 90       	pop	r0
     210:	0f 90       	pop	r0
     212:	0f 90       	pop	r0
     214:	0f 90       	pop	r0
     216:	0f 90       	pop	r0
     218:	cf 91       	pop	r28
     21a:	df 91       	pop	r29
     21c:	08 95       	ret

0000021e <_ZN13LiquidCrystal10write4bitsEh>:
  delayMicroseconds(1);    // enable pulse must be >450ns
  digitalWrite(_enable_pin, LOW);
  delayMicroseconds(100);   // commands need > 37us to settle
}

void LiquidCrystal::write4bits(uint8_t value) {
     21e:	df 93       	push	r29
     220:	cf 93       	push	r28
     222:	00 d0       	rcall	.+0      	; 0x224 <_ZN13LiquidCrystal10write4bitsEh+0x6>
     224:	00 d0       	rcall	.+0      	; 0x226 <_ZN13LiquidCrystal10write4bitsEh+0x8>
     226:	0f 92       	push	r0
     228:	cd b7       	in	r28, 0x3d	; 61
     22a:	de b7       	in	r29, 0x3e	; 62
     22c:	9c 83       	std	Y+4, r25	; 0x04
     22e:	8b 83       	std	Y+3, r24	; 0x03
     230:	6d 83       	std	Y+5, r22	; 0x05
  for (int i = 0; i < 4; i++) {
     232:	1a 82       	std	Y+2, r1	; 0x02
     234:	19 82       	std	Y+1, r1	; 0x01
     236:	29 c0       	rjmp	.+82     	; 0x28a <_ZN13LiquidCrystal10write4bitsEh+0x6c>
    pinMode(_data_pins[i], OUTPUT);
     238:	29 81       	ldd	r18, Y+1	; 0x01
     23a:	3a 81       	ldd	r19, Y+2	; 0x02
     23c:	8b 81       	ldd	r24, Y+3	; 0x03
     23e:	9c 81       	ldd	r25, Y+4	; 0x04
     240:	82 0f       	add	r24, r18
     242:	93 1f       	adc	r25, r19
     244:	fc 01       	movw	r30, r24
     246:	35 96       	adiw	r30, 0x05	; 5
     248:	80 81       	ld	r24, Z
     24a:	61 e0       	ldi	r22, 0x01	; 1
     24c:	0e 94 7b 1c 	call	0x38f6	; 0x38f6 <pinMode>
    digitalWrite(_data_pins[i], (value >> i) & 0x01);
     250:	29 81       	ldd	r18, Y+1	; 0x01
     252:	3a 81       	ldd	r19, Y+2	; 0x02
     254:	8b 81       	ldd	r24, Y+3	; 0x03
     256:	9c 81       	ldd	r25, Y+4	; 0x04
     258:	82 0f       	add	r24, r18
     25a:	93 1f       	adc	r25, r19
     25c:	fc 01       	movw	r30, r24
     25e:	35 96       	adiw	r30, 0x05	; 5
     260:	20 81       	ld	r18, Z
     262:	8d 81       	ldd	r24, Y+5	; 0x05
     264:	88 2f       	mov	r24, r24
     266:	90 e0       	ldi	r25, 0x00	; 0
     268:	09 80       	ldd	r0, Y+1	; 0x01
     26a:	02 c0       	rjmp	.+4      	; 0x270 <_ZN13LiquidCrystal10write4bitsEh+0x52>
     26c:	95 95       	asr	r25
     26e:	87 95       	ror	r24
     270:	0a 94       	dec	r0
     272:	e2 f7       	brpl	.-8      	; 0x26c <_ZN13LiquidCrystal10write4bitsEh+0x4e>
     274:	98 2f       	mov	r25, r24
     276:	91 70       	andi	r25, 0x01	; 1
     278:	82 2f       	mov	r24, r18
     27a:	69 2f       	mov	r22, r25
     27c:	0e 94 ec 1c 	call	0x39d8	; 0x39d8 <digitalWrite>
  digitalWrite(_enable_pin, LOW);
  delayMicroseconds(100);   // commands need > 37us to settle
}

void LiquidCrystal::write4bits(uint8_t value) {
  for (int i = 0; i < 4; i++) {
     280:	89 81       	ldd	r24, Y+1	; 0x01
     282:	9a 81       	ldd	r25, Y+2	; 0x02
     284:	01 96       	adiw	r24, 0x01	; 1
     286:	9a 83       	std	Y+2, r25	; 0x02
     288:	89 83       	std	Y+1, r24	; 0x01
     28a:	89 81       	ldd	r24, Y+1	; 0x01
     28c:	9a 81       	ldd	r25, Y+2	; 0x02
     28e:	84 30       	cpi	r24, 0x04	; 4
     290:	91 05       	cpc	r25, r1
     292:	94 f2       	brlt	.-92     	; 0x238 <_ZN13LiquidCrystal10write4bitsEh+0x1a>
    pinMode(_data_pins[i], OUTPUT);
    digitalWrite(_data_pins[i], (value >> i) & 0x01);
  }

  pulseEnable();
     294:	8b 81       	ldd	r24, Y+3	; 0x03
     296:	9c 81       	ldd	r25, Y+4	; 0x04
     298:	0e 94 9e 00 	call	0x13c	; 0x13c <_ZN13LiquidCrystal11pulseEnableEv>
}
     29c:	0f 90       	pop	r0
     29e:	0f 90       	pop	r0
     2a0:	0f 90       	pop	r0
     2a2:	0f 90       	pop	r0
     2a4:	0f 90       	pop	r0
     2a6:	cf 91       	pop	r28
     2a8:	df 91       	pop	r29
     2aa:	08 95       	ret

000002ac <_ZN13LiquidCrystal4sendEhh>:
}

/************ low level data pushing commands **********/

// write either command or data, with automatic 4/8-bit selection
void LiquidCrystal::send(uint8_t value, uint8_t mode) {
     2ac:	df 93       	push	r29
     2ae:	cf 93       	push	r28
     2b0:	00 d0       	rcall	.+0      	; 0x2b2 <_ZN13LiquidCrystal4sendEhh+0x6>
     2b2:	00 d0       	rcall	.+0      	; 0x2b4 <_ZN13LiquidCrystal4sendEhh+0x8>
     2b4:	cd b7       	in	r28, 0x3d	; 61
     2b6:	de b7       	in	r29, 0x3e	; 62
     2b8:	9a 83       	std	Y+2, r25	; 0x02
     2ba:	89 83       	std	Y+1, r24	; 0x01
     2bc:	6b 83       	std	Y+3, r22	; 0x03
     2be:	4c 83       	std	Y+4, r20	; 0x04
  digitalWrite(_rs_pin, mode);
     2c0:	e9 81       	ldd	r30, Y+1	; 0x01
     2c2:	fa 81       	ldd	r31, Y+2	; 0x02
     2c4:	82 81       	ldd	r24, Z+2	; 0x02
     2c6:	6c 81       	ldd	r22, Y+4	; 0x04
     2c8:	0e 94 ec 1c 	call	0x39d8	; 0x39d8 <digitalWrite>

  // if there is a RW pin indicated, set it low to Write
  if (_rw_pin != 255) { 
     2cc:	e9 81       	ldd	r30, Y+1	; 0x01
     2ce:	fa 81       	ldd	r31, Y+2	; 0x02
     2d0:	83 81       	ldd	r24, Z+3	; 0x03
     2d2:	8f 3f       	cpi	r24, 0xFF	; 255
     2d4:	31 f0       	breq	.+12     	; 0x2e2 <_ZN13LiquidCrystal4sendEhh+0x36>
    digitalWrite(_rw_pin, LOW);
     2d6:	e9 81       	ldd	r30, Y+1	; 0x01
     2d8:	fa 81       	ldd	r31, Y+2	; 0x02
     2da:	83 81       	ldd	r24, Z+3	; 0x03
     2dc:	60 e0       	ldi	r22, 0x00	; 0
     2de:	0e 94 ec 1c 	call	0x39d8	; 0x39d8 <digitalWrite>
  }
  
  if (_displayfunction & LCD_8BITMODE) {
     2e2:	e9 81       	ldd	r30, Y+1	; 0x01
     2e4:	fa 81       	ldd	r31, Y+2	; 0x02
     2e6:	85 85       	ldd	r24, Z+13	; 0x0d
     2e8:	88 2f       	mov	r24, r24
     2ea:	90 e0       	ldi	r25, 0x00	; 0
     2ec:	80 71       	andi	r24, 0x10	; 16
     2ee:	90 70       	andi	r25, 0x00	; 0
     2f0:	00 97       	sbiw	r24, 0x00	; 0
     2f2:	31 f0       	breq	.+12     	; 0x300 <_ZN13LiquidCrystal4sendEhh+0x54>
    write8bits(value); 
     2f4:	89 81       	ldd	r24, Y+1	; 0x01
     2f6:	9a 81       	ldd	r25, Y+2	; 0x02
     2f8:	6b 81       	ldd	r22, Y+3	; 0x03
     2fa:	0e 94 c8 00 	call	0x190	; 0x190 <_ZN13LiquidCrystal10write8bitsEh>
     2fe:	16 c0       	rjmp	.+44     	; 0x32c <_ZN13LiquidCrystal4sendEhh+0x80>
  } else {
    write4bits(value>>4);
     300:	8b 81       	ldd	r24, Y+3	; 0x03
     302:	88 2f       	mov	r24, r24
     304:	90 e0       	ldi	r25, 0x00	; 0
     306:	95 95       	asr	r25
     308:	87 95       	ror	r24
     30a:	95 95       	asr	r25
     30c:	87 95       	ror	r24
     30e:	95 95       	asr	r25
     310:	87 95       	ror	r24
     312:	95 95       	asr	r25
     314:	87 95       	ror	r24
     316:	28 2f       	mov	r18, r24
     318:	89 81       	ldd	r24, Y+1	; 0x01
     31a:	9a 81       	ldd	r25, Y+2	; 0x02
     31c:	62 2f       	mov	r22, r18
     31e:	0e 94 0f 01 	call	0x21e	; 0x21e <_ZN13LiquidCrystal10write4bitsEh>
    write4bits(value);
     322:	89 81       	ldd	r24, Y+1	; 0x01
     324:	9a 81       	ldd	r25, Y+2	; 0x02
     326:	6b 81       	ldd	r22, Y+3	; 0x03
     328:	0e 94 0f 01 	call	0x21e	; 0x21e <_ZN13LiquidCrystal10write4bitsEh>
  }
}
     32c:	0f 90       	pop	r0
     32e:	0f 90       	pop	r0
     330:	0f 90       	pop	r0
     332:	0f 90       	pop	r0
     334:	cf 91       	pop	r28
     336:	df 91       	pop	r29
     338:	08 95       	ret

0000033a <_ZN13LiquidCrystal5writeEh>:

inline void LiquidCrystal::command(uint8_t value) {
  send(value, LOW);
}

inline void LiquidCrystal::write(uint8_t value) {
     33a:	df 93       	push	r29
     33c:	cf 93       	push	r28
     33e:	00 d0       	rcall	.+0      	; 0x340 <_ZN13LiquidCrystal5writeEh+0x6>
     340:	0f 92       	push	r0
     342:	cd b7       	in	r28, 0x3d	; 61
     344:	de b7       	in	r29, 0x3e	; 62
     346:	9a 83       	std	Y+2, r25	; 0x02
     348:	89 83       	std	Y+1, r24	; 0x01
     34a:	6b 83       	std	Y+3, r22	; 0x03
  send(value, HIGH);
     34c:	89 81       	ldd	r24, Y+1	; 0x01
     34e:	9a 81       	ldd	r25, Y+2	; 0x02
     350:	6b 81       	ldd	r22, Y+3	; 0x03
     352:	41 e0       	ldi	r20, 0x01	; 1
     354:	0e 94 56 01 	call	0x2ac	; 0x2ac <_ZN13LiquidCrystal4sendEhh>
}
     358:	0f 90       	pop	r0
     35a:	0f 90       	pop	r0
     35c:	0f 90       	pop	r0
     35e:	cf 91       	pop	r28
     360:	df 91       	pop	r29
     362:	08 95       	ret

00000364 <_ZN13LiquidCrystal7commandEh>:
  }
}

/*********** mid level commands, for sending data/cmds */

inline void LiquidCrystal::command(uint8_t value) {
     364:	df 93       	push	r29
     366:	cf 93       	push	r28
     368:	00 d0       	rcall	.+0      	; 0x36a <_ZN13LiquidCrystal7commandEh+0x6>
     36a:	0f 92       	push	r0
     36c:	cd b7       	in	r28, 0x3d	; 61
     36e:	de b7       	in	r29, 0x3e	; 62
     370:	9a 83       	std	Y+2, r25	; 0x02
     372:	89 83       	std	Y+1, r24	; 0x01
     374:	6b 83       	std	Y+3, r22	; 0x03
  send(value, LOW);
     376:	89 81       	ldd	r24, Y+1	; 0x01
     378:	9a 81       	ldd	r25, Y+2	; 0x02
     37a:	6b 81       	ldd	r22, Y+3	; 0x03
     37c:	40 e0       	ldi	r20, 0x00	; 0
     37e:	0e 94 56 01 	call	0x2ac	; 0x2ac <_ZN13LiquidCrystal4sendEhh>
}
     382:	0f 90       	pop	r0
     384:	0f 90       	pop	r0
     386:	0f 90       	pop	r0
     388:	cf 91       	pop	r28
     38a:	df 91       	pop	r29
     38c:	08 95       	ret

0000038e <_ZN13LiquidCrystal10createCharEhPh>:
  command(LCD_ENTRYMODESET | _displaymode);
}

// Allows us to fill the first 8 CGRAM locations
// with custom characters
void LiquidCrystal::createChar(uint8_t location, uint8_t charmap[]) {
     38e:	df 93       	push	r29
     390:	cf 93       	push	r28
     392:	cd b7       	in	r28, 0x3d	; 61
     394:	de b7       	in	r29, 0x3e	; 62
     396:	27 97       	sbiw	r28, 0x07	; 7
     398:	0f b6       	in	r0, 0x3f	; 63
     39a:	f8 94       	cli
     39c:	de bf       	out	0x3e, r29	; 62
     39e:	0f be       	out	0x3f, r0	; 63
     3a0:	cd bf       	out	0x3d, r28	; 61
     3a2:	9c 83       	std	Y+4, r25	; 0x04
     3a4:	8b 83       	std	Y+3, r24	; 0x03
     3a6:	6d 83       	std	Y+5, r22	; 0x05
     3a8:	5f 83       	std	Y+7, r21	; 0x07
     3aa:	4e 83       	std	Y+6, r20	; 0x06
  location &= 0x7; // we only have 8 locations 0-7
     3ac:	8d 81       	ldd	r24, Y+5	; 0x05
     3ae:	87 70       	andi	r24, 0x07	; 7
     3b0:	8d 83       	std	Y+5, r24	; 0x05
  command(LCD_SETCGRAMADDR | (location << 3));
     3b2:	8d 81       	ldd	r24, Y+5	; 0x05
     3b4:	88 2f       	mov	r24, r24
     3b6:	90 e0       	ldi	r25, 0x00	; 0
     3b8:	88 0f       	add	r24, r24
     3ba:	99 1f       	adc	r25, r25
     3bc:	88 0f       	add	r24, r24
     3be:	99 1f       	adc	r25, r25
     3c0:	88 0f       	add	r24, r24
     3c2:	99 1f       	adc	r25, r25
     3c4:	80 64       	ori	r24, 0x40	; 64
     3c6:	28 2f       	mov	r18, r24
     3c8:	8b 81       	ldd	r24, Y+3	; 0x03
     3ca:	9c 81       	ldd	r25, Y+4	; 0x04
     3cc:	62 2f       	mov	r22, r18
     3ce:	0e 94 b2 01 	call	0x364	; 0x364 <_ZN13LiquidCrystal7commandEh>
  for (int i=0; i<8; i++) {
     3d2:	1a 82       	std	Y+2, r1	; 0x02
     3d4:	19 82       	std	Y+1, r1	; 0x01
     3d6:	19 c0       	rjmp	.+50     	; 0x40a <_ZN13LiquidCrystal10createCharEhPh+0x7c>
    write(charmap[i]);
     3d8:	eb 81       	ldd	r30, Y+3	; 0x03
     3da:	fc 81       	ldd	r31, Y+4	; 0x04
     3dc:	01 90       	ld	r0, Z+
     3de:	f0 81       	ld	r31, Z
     3e0:	e0 2d       	mov	r30, r0
     3e2:	40 81       	ld	r20, Z
     3e4:	51 81       	ldd	r21, Z+1	; 0x01
     3e6:	29 81       	ldd	r18, Y+1	; 0x01
     3e8:	3a 81       	ldd	r19, Y+2	; 0x02
     3ea:	8e 81       	ldd	r24, Y+6	; 0x06
     3ec:	9f 81       	ldd	r25, Y+7	; 0x07
     3ee:	fc 01       	movw	r30, r24
     3f0:	e2 0f       	add	r30, r18
     3f2:	f3 1f       	adc	r31, r19
     3f4:	20 81       	ld	r18, Z
     3f6:	8b 81       	ldd	r24, Y+3	; 0x03
     3f8:	9c 81       	ldd	r25, Y+4	; 0x04
     3fa:	62 2f       	mov	r22, r18
     3fc:	fa 01       	movw	r30, r20
     3fe:	09 95       	icall
// Allows us to fill the first 8 CGRAM locations
// with custom characters
void LiquidCrystal::createChar(uint8_t location, uint8_t charmap[]) {
  location &= 0x7; // we only have 8 locations 0-7
  command(LCD_SETCGRAMADDR | (location << 3));
  for (int i=0; i<8; i++) {
     400:	89 81       	ldd	r24, Y+1	; 0x01
     402:	9a 81       	ldd	r25, Y+2	; 0x02
     404:	01 96       	adiw	r24, 0x01	; 1
     406:	9a 83       	std	Y+2, r25	; 0x02
     408:	89 83       	std	Y+1, r24	; 0x01
     40a:	89 81       	ldd	r24, Y+1	; 0x01
     40c:	9a 81       	ldd	r25, Y+2	; 0x02
     40e:	88 30       	cpi	r24, 0x08	; 8
     410:	91 05       	cpc	r25, r1
     412:	14 f3       	brlt	.-60     	; 0x3d8 <_ZN13LiquidCrystal10createCharEhPh+0x4a>
    write(charmap[i]);
  }
}
     414:	27 96       	adiw	r28, 0x07	; 7
     416:	0f b6       	in	r0, 0x3f	; 63
     418:	f8 94       	cli
     41a:	de bf       	out	0x3e, r29	; 62
     41c:	0f be       	out	0x3f, r0	; 63
     41e:	cd bf       	out	0x3d, r28	; 61
     420:	cf 91       	pop	r28
     422:	df 91       	pop	r29
     424:	08 95       	ret

00000426 <_ZN13LiquidCrystal12noAutoscrollEv>:
  _displaymode |= LCD_ENTRYSHIFTINCREMENT;
  command(LCD_ENTRYMODESET | _displaymode);
}

// This will 'left justify' text from the cursor
void LiquidCrystal::noAutoscroll(void) {
     426:	df 93       	push	r29
     428:	cf 93       	push	r28
     42a:	00 d0       	rcall	.+0      	; 0x42c <_ZN13LiquidCrystal12noAutoscrollEv+0x6>
     42c:	cd b7       	in	r28, 0x3d	; 61
     42e:	de b7       	in	r29, 0x3e	; 62
     430:	9a 83       	std	Y+2, r25	; 0x02
     432:	89 83       	std	Y+1, r24	; 0x01
  _displaymode &= ~LCD_ENTRYSHIFTINCREMENT;
     434:	e9 81       	ldd	r30, Y+1	; 0x01
     436:	fa 81       	ldd	r31, Y+2	; 0x02
     438:	87 85       	ldd	r24, Z+15	; 0x0f
     43a:	8e 7f       	andi	r24, 0xFE	; 254
     43c:	e9 81       	ldd	r30, Y+1	; 0x01
     43e:	fa 81       	ldd	r31, Y+2	; 0x02
     440:	87 87       	std	Z+15, r24	; 0x0f
  command(LCD_ENTRYMODESET | _displaymode);
     442:	e9 81       	ldd	r30, Y+1	; 0x01
     444:	fa 81       	ldd	r31, Y+2	; 0x02
     446:	87 85       	ldd	r24, Z+15	; 0x0f
     448:	28 2f       	mov	r18, r24
     44a:	24 60       	ori	r18, 0x04	; 4
     44c:	89 81       	ldd	r24, Y+1	; 0x01
     44e:	9a 81       	ldd	r25, Y+2	; 0x02
     450:	62 2f       	mov	r22, r18
     452:	0e 94 b2 01 	call	0x364	; 0x364 <_ZN13LiquidCrystal7commandEh>
}
     456:	0f 90       	pop	r0
     458:	0f 90       	pop	r0
     45a:	cf 91       	pop	r28
     45c:	df 91       	pop	r29
     45e:	08 95       	ret

00000460 <_ZN13LiquidCrystal10autoscrollEv>:
  _displaymode &= ~LCD_ENTRYLEFT;
  command(LCD_ENTRYMODESET | _displaymode);
}

// This will 'right justify' text from the cursor
void LiquidCrystal::autoscroll(void) {
     460:	df 93       	push	r29
     462:	cf 93       	push	r28
     464:	00 d0       	rcall	.+0      	; 0x466 <_ZN13LiquidCrystal10autoscrollEv+0x6>
     466:	cd b7       	in	r28, 0x3d	; 61
     468:	de b7       	in	r29, 0x3e	; 62
     46a:	9a 83       	std	Y+2, r25	; 0x02
     46c:	89 83       	std	Y+1, r24	; 0x01
  _displaymode |= LCD_ENTRYSHIFTINCREMENT;
     46e:	e9 81       	ldd	r30, Y+1	; 0x01
     470:	fa 81       	ldd	r31, Y+2	; 0x02
     472:	87 85       	ldd	r24, Z+15	; 0x0f
     474:	81 60       	ori	r24, 0x01	; 1
     476:	e9 81       	ldd	r30, Y+1	; 0x01
     478:	fa 81       	ldd	r31, Y+2	; 0x02
     47a:	87 87       	std	Z+15, r24	; 0x0f
  command(LCD_ENTRYMODESET | _displaymode);
     47c:	e9 81       	ldd	r30, Y+1	; 0x01
     47e:	fa 81       	ldd	r31, Y+2	; 0x02
     480:	87 85       	ldd	r24, Z+15	; 0x0f
     482:	28 2f       	mov	r18, r24
     484:	24 60       	ori	r18, 0x04	; 4
     486:	89 81       	ldd	r24, Y+1	; 0x01
     488:	9a 81       	ldd	r25, Y+2	; 0x02
     48a:	62 2f       	mov	r22, r18
     48c:	0e 94 b2 01 	call	0x364	; 0x364 <_ZN13LiquidCrystal7commandEh>
}
     490:	0f 90       	pop	r0
     492:	0f 90       	pop	r0
     494:	cf 91       	pop	r28
     496:	df 91       	pop	r29
     498:	08 95       	ret

0000049a <_ZN13LiquidCrystal11rightToLeftEv>:
  _displaymode |= LCD_ENTRYLEFT;
  command(LCD_ENTRYMODESET | _displaymode);
}

// This is for text that flows Right to Left
void LiquidCrystal::rightToLeft(void) {
     49a:	df 93       	push	r29
     49c:	cf 93       	push	r28
     49e:	00 d0       	rcall	.+0      	; 0x4a0 <_ZN13LiquidCrystal11rightToLeftEv+0x6>
     4a0:	cd b7       	in	r28, 0x3d	; 61
     4a2:	de b7       	in	r29, 0x3e	; 62
     4a4:	9a 83       	std	Y+2, r25	; 0x02
     4a6:	89 83       	std	Y+1, r24	; 0x01
  _displaymode &= ~LCD_ENTRYLEFT;
     4a8:	e9 81       	ldd	r30, Y+1	; 0x01
     4aa:	fa 81       	ldd	r31, Y+2	; 0x02
     4ac:	87 85       	ldd	r24, Z+15	; 0x0f
     4ae:	8d 7f       	andi	r24, 0xFD	; 253
     4b0:	e9 81       	ldd	r30, Y+1	; 0x01
     4b2:	fa 81       	ldd	r31, Y+2	; 0x02
     4b4:	87 87       	std	Z+15, r24	; 0x0f
  command(LCD_ENTRYMODESET | _displaymode);
     4b6:	e9 81       	ldd	r30, Y+1	; 0x01
     4b8:	fa 81       	ldd	r31, Y+2	; 0x02
     4ba:	87 85       	ldd	r24, Z+15	; 0x0f
     4bc:	28 2f       	mov	r18, r24
     4be:	24 60       	ori	r18, 0x04	; 4
     4c0:	89 81       	ldd	r24, Y+1	; 0x01
     4c2:	9a 81       	ldd	r25, Y+2	; 0x02
     4c4:	62 2f       	mov	r22, r18
     4c6:	0e 94 b2 01 	call	0x364	; 0x364 <_ZN13LiquidCrystal7commandEh>
}
     4ca:	0f 90       	pop	r0
     4cc:	0f 90       	pop	r0
     4ce:	cf 91       	pop	r28
     4d0:	df 91       	pop	r29
     4d2:	08 95       	ret

000004d4 <_ZN13LiquidCrystal11leftToRightEv>:
void LiquidCrystal::scrollDisplayRight(void) {
  command(LCD_CURSORSHIFT | LCD_DISPLAYMOVE | LCD_MOVERIGHT);
}

// This is for text that flows Left to Right
void LiquidCrystal::leftToRight(void) {
     4d4:	df 93       	push	r29
     4d6:	cf 93       	push	r28
     4d8:	00 d0       	rcall	.+0      	; 0x4da <_ZN13LiquidCrystal11leftToRightEv+0x6>
     4da:	cd b7       	in	r28, 0x3d	; 61
     4dc:	de b7       	in	r29, 0x3e	; 62
     4de:	9a 83       	std	Y+2, r25	; 0x02
     4e0:	89 83       	std	Y+1, r24	; 0x01
  _displaymode |= LCD_ENTRYLEFT;
     4e2:	e9 81       	ldd	r30, Y+1	; 0x01
     4e4:	fa 81       	ldd	r31, Y+2	; 0x02
     4e6:	87 85       	ldd	r24, Z+15	; 0x0f
     4e8:	82 60       	ori	r24, 0x02	; 2
     4ea:	e9 81       	ldd	r30, Y+1	; 0x01
     4ec:	fa 81       	ldd	r31, Y+2	; 0x02
     4ee:	87 87       	std	Z+15, r24	; 0x0f
  command(LCD_ENTRYMODESET | _displaymode);
     4f0:	e9 81       	ldd	r30, Y+1	; 0x01
     4f2:	fa 81       	ldd	r31, Y+2	; 0x02
     4f4:	87 85       	ldd	r24, Z+15	; 0x0f
     4f6:	28 2f       	mov	r18, r24
     4f8:	24 60       	ori	r18, 0x04	; 4
     4fa:	89 81       	ldd	r24, Y+1	; 0x01
     4fc:	9a 81       	ldd	r25, Y+2	; 0x02
     4fe:	62 2f       	mov	r22, r18
     500:	0e 94 b2 01 	call	0x364	; 0x364 <_ZN13LiquidCrystal7commandEh>
}
     504:	0f 90       	pop	r0
     506:	0f 90       	pop	r0
     508:	cf 91       	pop	r28
     50a:	df 91       	pop	r29
     50c:	08 95       	ret

0000050e <_ZN13LiquidCrystal18scrollDisplayRightEv>:

// These commands scroll the display without changing the RAM
void LiquidCrystal::scrollDisplayLeft(void) {
  command(LCD_CURSORSHIFT | LCD_DISPLAYMOVE | LCD_MOVELEFT);
}
void LiquidCrystal::scrollDisplayRight(void) {
     50e:	df 93       	push	r29
     510:	cf 93       	push	r28
     512:	00 d0       	rcall	.+0      	; 0x514 <_ZN13LiquidCrystal18scrollDisplayRightEv+0x6>
     514:	cd b7       	in	r28, 0x3d	; 61
     516:	de b7       	in	r29, 0x3e	; 62
     518:	9a 83       	std	Y+2, r25	; 0x02
     51a:	89 83       	std	Y+1, r24	; 0x01
  command(LCD_CURSORSHIFT | LCD_DISPLAYMOVE | LCD_MOVERIGHT);
     51c:	89 81       	ldd	r24, Y+1	; 0x01
     51e:	9a 81       	ldd	r25, Y+2	; 0x02
     520:	6c e1       	ldi	r22, 0x1C	; 28
     522:	0e 94 b2 01 	call	0x364	; 0x364 <_ZN13LiquidCrystal7commandEh>
}
     526:	0f 90       	pop	r0
     528:	0f 90       	pop	r0
     52a:	cf 91       	pop	r28
     52c:	df 91       	pop	r29
     52e:	08 95       	ret

00000530 <_ZN13LiquidCrystal17scrollDisplayLeftEv>:
  _displaycontrol |= LCD_BLINKON;
  command(LCD_DISPLAYCONTROL | _displaycontrol);
}

// These commands scroll the display without changing the RAM
void LiquidCrystal::scrollDisplayLeft(void) {
     530:	df 93       	push	r29
     532:	cf 93       	push	r28
     534:	00 d0       	rcall	.+0      	; 0x536 <_ZN13LiquidCrystal17scrollDisplayLeftEv+0x6>
     536:	cd b7       	in	r28, 0x3d	; 61
     538:	de b7       	in	r29, 0x3e	; 62
     53a:	9a 83       	std	Y+2, r25	; 0x02
     53c:	89 83       	std	Y+1, r24	; 0x01
  command(LCD_CURSORSHIFT | LCD_DISPLAYMOVE | LCD_MOVELEFT);
     53e:	89 81       	ldd	r24, Y+1	; 0x01
     540:	9a 81       	ldd	r25, Y+2	; 0x02
     542:	68 e1       	ldi	r22, 0x18	; 24
     544:	0e 94 b2 01 	call	0x364	; 0x364 <_ZN13LiquidCrystal7commandEh>
}
     548:	0f 90       	pop	r0
     54a:	0f 90       	pop	r0
     54c:	cf 91       	pop	r28
     54e:	df 91       	pop	r29
     550:	08 95       	ret

00000552 <_ZN13LiquidCrystal5blinkEv>:
// Turn on and off the blinking cursor
void LiquidCrystal::noBlink() {
  _displaycontrol &= ~LCD_BLINKON;
  command(LCD_DISPLAYCONTROL | _displaycontrol);
}
void LiquidCrystal::blink() {
     552:	df 93       	push	r29
     554:	cf 93       	push	r28
     556:	00 d0       	rcall	.+0      	; 0x558 <_ZN13LiquidCrystal5blinkEv+0x6>
     558:	cd b7       	in	r28, 0x3d	; 61
     55a:	de b7       	in	r29, 0x3e	; 62
     55c:	9a 83       	std	Y+2, r25	; 0x02
     55e:	89 83       	std	Y+1, r24	; 0x01
  _displaycontrol |= LCD_BLINKON;
     560:	e9 81       	ldd	r30, Y+1	; 0x01
     562:	fa 81       	ldd	r31, Y+2	; 0x02
     564:	86 85       	ldd	r24, Z+14	; 0x0e
     566:	81 60       	ori	r24, 0x01	; 1
     568:	e9 81       	ldd	r30, Y+1	; 0x01
     56a:	fa 81       	ldd	r31, Y+2	; 0x02
     56c:	86 87       	std	Z+14, r24	; 0x0e
  command(LCD_DISPLAYCONTROL | _displaycontrol);
     56e:	e9 81       	ldd	r30, Y+1	; 0x01
     570:	fa 81       	ldd	r31, Y+2	; 0x02
     572:	86 85       	ldd	r24, Z+14	; 0x0e
     574:	28 2f       	mov	r18, r24
     576:	28 60       	ori	r18, 0x08	; 8
     578:	89 81       	ldd	r24, Y+1	; 0x01
     57a:	9a 81       	ldd	r25, Y+2	; 0x02
     57c:	62 2f       	mov	r22, r18
     57e:	0e 94 b2 01 	call	0x364	; 0x364 <_ZN13LiquidCrystal7commandEh>
}
     582:	0f 90       	pop	r0
     584:	0f 90       	pop	r0
     586:	cf 91       	pop	r28
     588:	df 91       	pop	r29
     58a:	08 95       	ret

0000058c <_ZN13LiquidCrystal7noBlinkEv>:
  _displaycontrol |= LCD_CURSORON;
  command(LCD_DISPLAYCONTROL | _displaycontrol);
}

// Turn on and off the blinking cursor
void LiquidCrystal::noBlink() {
     58c:	df 93       	push	r29
     58e:	cf 93       	push	r28
     590:	00 d0       	rcall	.+0      	; 0x592 <_ZN13LiquidCrystal7noBlinkEv+0x6>
     592:	cd b7       	in	r28, 0x3d	; 61
     594:	de b7       	in	r29, 0x3e	; 62
     596:	9a 83       	std	Y+2, r25	; 0x02
     598:	89 83       	std	Y+1, r24	; 0x01
  _displaycontrol &= ~LCD_BLINKON;
     59a:	e9 81       	ldd	r30, Y+1	; 0x01
     59c:	fa 81       	ldd	r31, Y+2	; 0x02
     59e:	86 85       	ldd	r24, Z+14	; 0x0e
     5a0:	8e 7f       	andi	r24, 0xFE	; 254
     5a2:	e9 81       	ldd	r30, Y+1	; 0x01
     5a4:	fa 81       	ldd	r31, Y+2	; 0x02
     5a6:	86 87       	std	Z+14, r24	; 0x0e
  command(LCD_DISPLAYCONTROL | _displaycontrol);
     5a8:	e9 81       	ldd	r30, Y+1	; 0x01
     5aa:	fa 81       	ldd	r31, Y+2	; 0x02
     5ac:	86 85       	ldd	r24, Z+14	; 0x0e
     5ae:	28 2f       	mov	r18, r24
     5b0:	28 60       	ori	r18, 0x08	; 8
     5b2:	89 81       	ldd	r24, Y+1	; 0x01
     5b4:	9a 81       	ldd	r25, Y+2	; 0x02
     5b6:	62 2f       	mov	r22, r18
     5b8:	0e 94 b2 01 	call	0x364	; 0x364 <_ZN13LiquidCrystal7commandEh>
}
     5bc:	0f 90       	pop	r0
     5be:	0f 90       	pop	r0
     5c0:	cf 91       	pop	r28
     5c2:	df 91       	pop	r29
     5c4:	08 95       	ret

000005c6 <_ZN13LiquidCrystal6cursorEv>:
// Turns the underline cursor on/off
void LiquidCrystal::noCursor() {
  _displaycontrol &= ~LCD_CURSORON;
  command(LCD_DISPLAYCONTROL | _displaycontrol);
}
void LiquidCrystal::cursor() {
     5c6:	df 93       	push	r29
     5c8:	cf 93       	push	r28
     5ca:	00 d0       	rcall	.+0      	; 0x5cc <_ZN13LiquidCrystal6cursorEv+0x6>
     5cc:	cd b7       	in	r28, 0x3d	; 61
     5ce:	de b7       	in	r29, 0x3e	; 62
     5d0:	9a 83       	std	Y+2, r25	; 0x02
     5d2:	89 83       	std	Y+1, r24	; 0x01
  _displaycontrol |= LCD_CURSORON;
     5d4:	e9 81       	ldd	r30, Y+1	; 0x01
     5d6:	fa 81       	ldd	r31, Y+2	; 0x02
     5d8:	86 85       	ldd	r24, Z+14	; 0x0e
     5da:	82 60       	ori	r24, 0x02	; 2
     5dc:	e9 81       	ldd	r30, Y+1	; 0x01
     5de:	fa 81       	ldd	r31, Y+2	; 0x02
     5e0:	86 87       	std	Z+14, r24	; 0x0e
  command(LCD_DISPLAYCONTROL | _displaycontrol);
     5e2:	e9 81       	ldd	r30, Y+1	; 0x01
     5e4:	fa 81       	ldd	r31, Y+2	; 0x02
     5e6:	86 85       	ldd	r24, Z+14	; 0x0e
     5e8:	28 2f       	mov	r18, r24
     5ea:	28 60       	ori	r18, 0x08	; 8
     5ec:	89 81       	ldd	r24, Y+1	; 0x01
     5ee:	9a 81       	ldd	r25, Y+2	; 0x02
     5f0:	62 2f       	mov	r22, r18
     5f2:	0e 94 b2 01 	call	0x364	; 0x364 <_ZN13LiquidCrystal7commandEh>
}
     5f6:	0f 90       	pop	r0
     5f8:	0f 90       	pop	r0
     5fa:	cf 91       	pop	r28
     5fc:	df 91       	pop	r29
     5fe:	08 95       	ret

00000600 <_ZN13LiquidCrystal8noCursorEv>:
  _displaycontrol |= LCD_DISPLAYON;
  command(LCD_DISPLAYCONTROL | _displaycontrol);
}

// Turns the underline cursor on/off
void LiquidCrystal::noCursor() {
     600:	df 93       	push	r29
     602:	cf 93       	push	r28
     604:	00 d0       	rcall	.+0      	; 0x606 <_ZN13LiquidCrystal8noCursorEv+0x6>
     606:	cd b7       	in	r28, 0x3d	; 61
     608:	de b7       	in	r29, 0x3e	; 62
     60a:	9a 83       	std	Y+2, r25	; 0x02
     60c:	89 83       	std	Y+1, r24	; 0x01
  _displaycontrol &= ~LCD_CURSORON;
     60e:	e9 81       	ldd	r30, Y+1	; 0x01
     610:	fa 81       	ldd	r31, Y+2	; 0x02
     612:	86 85       	ldd	r24, Z+14	; 0x0e
     614:	8d 7f       	andi	r24, 0xFD	; 253
     616:	e9 81       	ldd	r30, Y+1	; 0x01
     618:	fa 81       	ldd	r31, Y+2	; 0x02
     61a:	86 87       	std	Z+14, r24	; 0x0e
  command(LCD_DISPLAYCONTROL | _displaycontrol);
     61c:	e9 81       	ldd	r30, Y+1	; 0x01
     61e:	fa 81       	ldd	r31, Y+2	; 0x02
     620:	86 85       	ldd	r24, Z+14	; 0x0e
     622:	28 2f       	mov	r18, r24
     624:	28 60       	ori	r18, 0x08	; 8
     626:	89 81       	ldd	r24, Y+1	; 0x01
     628:	9a 81       	ldd	r25, Y+2	; 0x02
     62a:	62 2f       	mov	r22, r18
     62c:	0e 94 b2 01 	call	0x364	; 0x364 <_ZN13LiquidCrystal7commandEh>
}
     630:	0f 90       	pop	r0
     632:	0f 90       	pop	r0
     634:	cf 91       	pop	r28
     636:	df 91       	pop	r29
     638:	08 95       	ret

0000063a <_ZN13LiquidCrystal7displayEv>:
// Turn the display on/off (quickly)
void LiquidCrystal::noDisplay() {
  _displaycontrol &= ~LCD_DISPLAYON;
  command(LCD_DISPLAYCONTROL | _displaycontrol);
}
void LiquidCrystal::display() {
     63a:	df 93       	push	r29
     63c:	cf 93       	push	r28
     63e:	00 d0       	rcall	.+0      	; 0x640 <_ZN13LiquidCrystal7displayEv+0x6>
     640:	cd b7       	in	r28, 0x3d	; 61
     642:	de b7       	in	r29, 0x3e	; 62
     644:	9a 83       	std	Y+2, r25	; 0x02
     646:	89 83       	std	Y+1, r24	; 0x01
  _displaycontrol |= LCD_DISPLAYON;
     648:	e9 81       	ldd	r30, Y+1	; 0x01
     64a:	fa 81       	ldd	r31, Y+2	; 0x02
     64c:	86 85       	ldd	r24, Z+14	; 0x0e
     64e:	84 60       	ori	r24, 0x04	; 4
     650:	e9 81       	ldd	r30, Y+1	; 0x01
     652:	fa 81       	ldd	r31, Y+2	; 0x02
     654:	86 87       	std	Z+14, r24	; 0x0e
  command(LCD_DISPLAYCONTROL | _displaycontrol);
     656:	e9 81       	ldd	r30, Y+1	; 0x01
     658:	fa 81       	ldd	r31, Y+2	; 0x02
     65a:	86 85       	ldd	r24, Z+14	; 0x0e
     65c:	28 2f       	mov	r18, r24
     65e:	28 60       	ori	r18, 0x08	; 8
     660:	89 81       	ldd	r24, Y+1	; 0x01
     662:	9a 81       	ldd	r25, Y+2	; 0x02
     664:	62 2f       	mov	r22, r18
     666:	0e 94 b2 01 	call	0x364	; 0x364 <_ZN13LiquidCrystal7commandEh>
}
     66a:	0f 90       	pop	r0
     66c:	0f 90       	pop	r0
     66e:	cf 91       	pop	r28
     670:	df 91       	pop	r29
     672:	08 95       	ret

00000674 <_ZN13LiquidCrystal9noDisplayEv>:
  
  command(LCD_SETDDRAMADDR | (col + row_offsets[row]));
}

// Turn the display on/off (quickly)
void LiquidCrystal::noDisplay() {
     674:	df 93       	push	r29
     676:	cf 93       	push	r28
     678:	00 d0       	rcall	.+0      	; 0x67a <_ZN13LiquidCrystal9noDisplayEv+0x6>
     67a:	cd b7       	in	r28, 0x3d	; 61
     67c:	de b7       	in	r29, 0x3e	; 62
     67e:	9a 83       	std	Y+2, r25	; 0x02
     680:	89 83       	std	Y+1, r24	; 0x01
  _displaycontrol &= ~LCD_DISPLAYON;
     682:	e9 81       	ldd	r30, Y+1	; 0x01
     684:	fa 81       	ldd	r31, Y+2	; 0x02
     686:	86 85       	ldd	r24, Z+14	; 0x0e
     688:	8b 7f       	andi	r24, 0xFB	; 251
     68a:	e9 81       	ldd	r30, Y+1	; 0x01
     68c:	fa 81       	ldd	r31, Y+2	; 0x02
     68e:	86 87       	std	Z+14, r24	; 0x0e
  command(LCD_DISPLAYCONTROL | _displaycontrol);
     690:	e9 81       	ldd	r30, Y+1	; 0x01
     692:	fa 81       	ldd	r31, Y+2	; 0x02
     694:	86 85       	ldd	r24, Z+14	; 0x0e
     696:	28 2f       	mov	r18, r24
     698:	28 60       	ori	r18, 0x08	; 8
     69a:	89 81       	ldd	r24, Y+1	; 0x01
     69c:	9a 81       	ldd	r25, Y+2	; 0x02
     69e:	62 2f       	mov	r22, r18
     6a0:	0e 94 b2 01 	call	0x364	; 0x364 <_ZN13LiquidCrystal7commandEh>
}
     6a4:	0f 90       	pop	r0
     6a6:	0f 90       	pop	r0
     6a8:	cf 91       	pop	r28
     6aa:	df 91       	pop	r29
     6ac:	08 95       	ret

000006ae <_ZN13LiquidCrystal9setCursorEhh>:
{
  command(LCD_RETURNHOME);  // set cursor position to zero
  delayMicroseconds(2000);  // this command takes a long time!
}

void LiquidCrystal::setCursor(uint8_t col, uint8_t row)
     6ae:	df 93       	push	r29
     6b0:	cf 93       	push	r28
     6b2:	cd b7       	in	r28, 0x3d	; 61
     6b4:	de b7       	in	r29, 0x3e	; 62
     6b6:	61 97       	sbiw	r28, 0x11	; 17
     6b8:	0f b6       	in	r0, 0x3f	; 63
     6ba:	f8 94       	cli
     6bc:	de bf       	out	0x3e, r29	; 62
     6be:	0f be       	out	0x3f, r0	; 63
     6c0:	cd bf       	out	0x3d, r28	; 61
     6c2:	9a 87       	std	Y+10, r25	; 0x0a
     6c4:	89 87       	std	Y+9, r24	; 0x09
     6c6:	6b 87       	std	Y+11, r22	; 0x0b
     6c8:	4c 87       	std	Y+12, r20	; 0x0c
{
  int row_offsets[] = { 0x00, 0x40, 0x14, 0x54 };
     6ca:	ce 01       	movw	r24, r28
     6cc:	01 96       	adiw	r24, 0x01	; 1
     6ce:	9e 87       	std	Y+14, r25	; 0x0e
     6d0:	8d 87       	std	Y+13, r24	; 0x0d
     6d2:	ea e0       	ldi	r30, 0x0A	; 10
     6d4:	f1 e0       	ldi	r31, 0x01	; 1
     6d6:	f8 8b       	std	Y+16, r31	; 0x10
     6d8:	ef 87       	std	Y+15, r30	; 0x0f
     6da:	f8 e0       	ldi	r31, 0x08	; 8
     6dc:	f9 8b       	std	Y+17, r31	; 0x11
     6de:	ef 85       	ldd	r30, Y+15	; 0x0f
     6e0:	f8 89       	ldd	r31, Y+16	; 0x10
     6e2:	00 80       	ld	r0, Z
     6e4:	8f 85       	ldd	r24, Y+15	; 0x0f
     6e6:	98 89       	ldd	r25, Y+16	; 0x10
     6e8:	01 96       	adiw	r24, 0x01	; 1
     6ea:	98 8b       	std	Y+16, r25	; 0x10
     6ec:	8f 87       	std	Y+15, r24	; 0x0f
     6ee:	ed 85       	ldd	r30, Y+13	; 0x0d
     6f0:	fe 85       	ldd	r31, Y+14	; 0x0e
     6f2:	00 82       	st	Z, r0
     6f4:	8d 85       	ldd	r24, Y+13	; 0x0d
     6f6:	9e 85       	ldd	r25, Y+14	; 0x0e
     6f8:	01 96       	adiw	r24, 0x01	; 1
     6fa:	9e 87       	std	Y+14, r25	; 0x0e
     6fc:	8d 87       	std	Y+13, r24	; 0x0d
     6fe:	99 89       	ldd	r25, Y+17	; 0x11
     700:	91 50       	subi	r25, 0x01	; 1
     702:	99 8b       	std	Y+17, r25	; 0x11
     704:	e9 89       	ldd	r30, Y+17	; 0x11
     706:	ee 23       	and	r30, r30
     708:	51 f7       	brne	.-44     	; 0x6de <_ZN13LiquidCrystal9setCursorEhh+0x30>
  if ( row > _numlines ) {
     70a:	e9 85       	ldd	r30, Y+9	; 0x09
     70c:	fa 85       	ldd	r31, Y+10	; 0x0a
     70e:	91 89       	ldd	r25, Z+17	; 0x11
     710:	8c 85       	ldd	r24, Y+12	; 0x0c
     712:	98 17       	cp	r25, r24
     714:	28 f4       	brcc	.+10     	; 0x720 <_ZN13LiquidCrystal9setCursorEhh+0x72>
    row = _numlines-1;    // we count rows starting w/0
     716:	e9 85       	ldd	r30, Y+9	; 0x09
     718:	fa 85       	ldd	r31, Y+10	; 0x0a
     71a:	81 89       	ldd	r24, Z+17	; 0x11
     71c:	81 50       	subi	r24, 0x01	; 1
     71e:	8c 87       	std	Y+12, r24	; 0x0c
  }
  
  command(LCD_SETDDRAMADDR | (col + row_offsets[row]));
     720:	8c 85       	ldd	r24, Y+12	; 0x0c
     722:	88 2f       	mov	r24, r24
     724:	90 e0       	ldi	r25, 0x00	; 0
     726:	9c 01       	movw	r18, r24
     728:	22 0f       	add	r18, r18
     72a:	33 1f       	adc	r19, r19
     72c:	ce 01       	movw	r24, r28
     72e:	01 96       	adiw	r24, 0x01	; 1
     730:	fc 01       	movw	r30, r24
     732:	e2 0f       	add	r30, r18
     734:	f3 1f       	adc	r31, r19
     736:	80 81       	ld	r24, Z
     738:	91 81       	ldd	r25, Z+1	; 0x01
     73a:	98 2f       	mov	r25, r24
     73c:	8b 85       	ldd	r24, Y+11	; 0x0b
     73e:	89 0f       	add	r24, r25
     740:	80 68       	ori	r24, 0x80	; 128
     742:	28 2f       	mov	r18, r24
     744:	89 85       	ldd	r24, Y+9	; 0x09
     746:	9a 85       	ldd	r25, Y+10	; 0x0a
     748:	62 2f       	mov	r22, r18
     74a:	0e 94 b2 01 	call	0x364	; 0x364 <_ZN13LiquidCrystal7commandEh>
}
     74e:	61 96       	adiw	r28, 0x11	; 17
     750:	0f b6       	in	r0, 0x3f	; 63
     752:	f8 94       	cli
     754:	de bf       	out	0x3e, r29	; 62
     756:	0f be       	out	0x3f, r0	; 63
     758:	cd bf       	out	0x3d, r28	; 61
     75a:	cf 91       	pop	r28
     75c:	df 91       	pop	r29
     75e:	08 95       	ret

00000760 <_ZN13LiquidCrystal4homeEv>:
{
  command(LCD_CLEARDISPLAY);  // clear display, set cursor position to zero
  delayMicroseconds(2000);  // this command takes a long time!
}

void LiquidCrystal::home()
     760:	df 93       	push	r29
     762:	cf 93       	push	r28
     764:	00 d0       	rcall	.+0      	; 0x766 <_ZN13LiquidCrystal4homeEv+0x6>
     766:	cd b7       	in	r28, 0x3d	; 61
     768:	de b7       	in	r29, 0x3e	; 62
     76a:	9a 83       	std	Y+2, r25	; 0x02
     76c:	89 83       	std	Y+1, r24	; 0x01
{
  command(LCD_RETURNHOME);  // set cursor position to zero
     76e:	89 81       	ldd	r24, Y+1	; 0x01
     770:	9a 81       	ldd	r25, Y+2	; 0x02
     772:	62 e0       	ldi	r22, 0x02	; 2
     774:	0e 94 b2 01 	call	0x364	; 0x364 <_ZN13LiquidCrystal7commandEh>
  delayMicroseconds(2000);  // this command takes a long time!
     778:	80 ed       	ldi	r24, 0xD0	; 208
     77a:	97 e0       	ldi	r25, 0x07	; 7
     77c:	0e 94 e3 1b 	call	0x37c6	; 0x37c6 <delayMicroseconds>
}
     780:	0f 90       	pop	r0
     782:	0f 90       	pop	r0
     784:	cf 91       	pop	r28
     786:	df 91       	pop	r29
     788:	08 95       	ret

0000078a <_ZN13LiquidCrystal5clearEv>:
  command(LCD_ENTRYMODESET | _displaymode);

}

/********** high level commands, for the user! */
void LiquidCrystal::clear()
     78a:	df 93       	push	r29
     78c:	cf 93       	push	r28
     78e:	00 d0       	rcall	.+0      	; 0x790 <_ZN13LiquidCrystal5clearEv+0x6>
     790:	cd b7       	in	r28, 0x3d	; 61
     792:	de b7       	in	r29, 0x3e	; 62
     794:	9a 83       	std	Y+2, r25	; 0x02
     796:	89 83       	std	Y+1, r24	; 0x01
{
  command(LCD_CLEARDISPLAY);  // clear display, set cursor position to zero
     798:	89 81       	ldd	r24, Y+1	; 0x01
     79a:	9a 81       	ldd	r25, Y+2	; 0x02
     79c:	61 e0       	ldi	r22, 0x01	; 1
     79e:	0e 94 b2 01 	call	0x364	; 0x364 <_ZN13LiquidCrystal7commandEh>
  delayMicroseconds(2000);  // this command takes a long time!
     7a2:	80 ed       	ldi	r24, 0xD0	; 208
     7a4:	97 e0       	ldi	r25, 0x07	; 7
     7a6:	0e 94 e3 1b 	call	0x37c6	; 0x37c6 <delayMicroseconds>
}
     7aa:	0f 90       	pop	r0
     7ac:	0f 90       	pop	r0
     7ae:	cf 91       	pop	r28
     7b0:	df 91       	pop	r29
     7b2:	08 95       	ret

000007b4 <_ZN13LiquidCrystal5beginEhhh>:
    _displayfunction = LCD_8BITMODE | LCD_1LINE | LCD_5x8DOTS;
  
  begin(16, 1);  
}

void LiquidCrystal::begin(uint8_t cols, uint8_t lines, uint8_t dotsize) {
     7b4:	df 93       	push	r29
     7b6:	cf 93       	push	r28
     7b8:	00 d0       	rcall	.+0      	; 0x7ba <_ZN13LiquidCrystal5beginEhhh+0x6>
     7ba:	00 d0       	rcall	.+0      	; 0x7bc <_ZN13LiquidCrystal5beginEhhh+0x8>
     7bc:	0f 92       	push	r0
     7be:	cd b7       	in	r28, 0x3d	; 61
     7c0:	de b7       	in	r29, 0x3e	; 62
     7c2:	9a 83       	std	Y+2, r25	; 0x02
     7c4:	89 83       	std	Y+1, r24	; 0x01
     7c6:	6b 83       	std	Y+3, r22	; 0x03
     7c8:	4c 83       	std	Y+4, r20	; 0x04
     7ca:	2d 83       	std	Y+5, r18	; 0x05
  if (lines > 1) {
     7cc:	8c 81       	ldd	r24, Y+4	; 0x04
     7ce:	82 30       	cpi	r24, 0x02	; 2
     7d0:	38 f0       	brcs	.+14     	; 0x7e0 <_ZN13LiquidCrystal5beginEhhh+0x2c>
    _displayfunction |= LCD_2LINE;
     7d2:	e9 81       	ldd	r30, Y+1	; 0x01
     7d4:	fa 81       	ldd	r31, Y+2	; 0x02
     7d6:	85 85       	ldd	r24, Z+13	; 0x0d
     7d8:	88 60       	ori	r24, 0x08	; 8
     7da:	e9 81       	ldd	r30, Y+1	; 0x01
     7dc:	fa 81       	ldd	r31, Y+2	; 0x02
     7de:	85 87       	std	Z+13, r24	; 0x0d
  }
  _numlines = lines;
     7e0:	e9 81       	ldd	r30, Y+1	; 0x01
     7e2:	fa 81       	ldd	r31, Y+2	; 0x02
     7e4:	8c 81       	ldd	r24, Y+4	; 0x04
     7e6:	81 8b       	std	Z+17, r24	; 0x11
  _currline = 0;
     7e8:	e9 81       	ldd	r30, Y+1	; 0x01
     7ea:	fa 81       	ldd	r31, Y+2	; 0x02
     7ec:	12 8a       	std	Z+18, r1	; 0x12

  // for some 1 line displays you can select a 10 pixel high font
  if ((dotsize != 0) && (lines == 1)) {
     7ee:	8d 81       	ldd	r24, Y+5	; 0x05
     7f0:	88 23       	and	r24, r24
     7f2:	51 f0       	breq	.+20     	; 0x808 <_ZN13LiquidCrystal5beginEhhh+0x54>
     7f4:	8c 81       	ldd	r24, Y+4	; 0x04
     7f6:	81 30       	cpi	r24, 0x01	; 1
     7f8:	39 f4       	brne	.+14     	; 0x808 <_ZN13LiquidCrystal5beginEhhh+0x54>
    _displayfunction |= LCD_5x10DOTS;
     7fa:	e9 81       	ldd	r30, Y+1	; 0x01
     7fc:	fa 81       	ldd	r31, Y+2	; 0x02
     7fe:	85 85       	ldd	r24, Z+13	; 0x0d
     800:	84 60       	ori	r24, 0x04	; 4
     802:	e9 81       	ldd	r30, Y+1	; 0x01
     804:	fa 81       	ldd	r31, Y+2	; 0x02
     806:	85 87       	std	Z+13, r24	; 0x0d
  }

  // SEE PAGE 45/46 FOR INITIALIZATION SPECIFICATION!
  // according to datasheet, we need at least 40ms after power rises above 2.7V
  // before sending commands. Arduino can turn on way befer 4.5V so we'll wait 50
  delayMicroseconds(50000); 
     808:	80 e5       	ldi	r24, 0x50	; 80
     80a:	93 ec       	ldi	r25, 0xC3	; 195
     80c:	0e 94 e3 1b 	call	0x37c6	; 0x37c6 <delayMicroseconds>
  // Now we pull both RS and R/W low to begin commands
  digitalWrite(_rs_pin, LOW);
     810:	e9 81       	ldd	r30, Y+1	; 0x01
     812:	fa 81       	ldd	r31, Y+2	; 0x02
     814:	82 81       	ldd	r24, Z+2	; 0x02
     816:	60 e0       	ldi	r22, 0x00	; 0
     818:	0e 94 ec 1c 	call	0x39d8	; 0x39d8 <digitalWrite>
  digitalWrite(_enable_pin, LOW);
     81c:	e9 81       	ldd	r30, Y+1	; 0x01
     81e:	fa 81       	ldd	r31, Y+2	; 0x02
     820:	84 81       	ldd	r24, Z+4	; 0x04
     822:	60 e0       	ldi	r22, 0x00	; 0
     824:	0e 94 ec 1c 	call	0x39d8	; 0x39d8 <digitalWrite>
  if (_rw_pin != 255) { 
     828:	e9 81       	ldd	r30, Y+1	; 0x01
     82a:	fa 81       	ldd	r31, Y+2	; 0x02
     82c:	83 81       	ldd	r24, Z+3	; 0x03
     82e:	8f 3f       	cpi	r24, 0xFF	; 255
     830:	31 f0       	breq	.+12     	; 0x83e <_ZN13LiquidCrystal5beginEhhh+0x8a>
    digitalWrite(_rw_pin, LOW);
     832:	e9 81       	ldd	r30, Y+1	; 0x01
     834:	fa 81       	ldd	r31, Y+2	; 0x02
     836:	83 81       	ldd	r24, Z+3	; 0x03
     838:	60 e0       	ldi	r22, 0x00	; 0
     83a:	0e 94 ec 1c 	call	0x39d8	; 0x39d8 <digitalWrite>
  }
  
  //put the LCD into 4 bit or 8 bit mode
  if (! (_displayfunction & LCD_8BITMODE)) {
     83e:	e9 81       	ldd	r30, Y+1	; 0x01
     840:	fa 81       	ldd	r31, Y+2	; 0x02
     842:	85 85       	ldd	r24, Z+13	; 0x0d
     844:	88 2f       	mov	r24, r24
     846:	90 e0       	ldi	r25, 0x00	; 0
     848:	80 71       	andi	r24, 0x10	; 16
     84a:	90 70       	andi	r25, 0x00	; 0
     84c:	00 97       	sbiw	r24, 0x00	; 0
     84e:	09 f5       	brne	.+66     	; 0x892 <_ZN13LiquidCrystal5beginEhhh+0xde>
    // this is according to the hitachi HD44780 datasheet
    // figure 24, pg 46

    // we start in 8bit mode, try to set 4 bit mode
    write4bits(0x03);
     850:	89 81       	ldd	r24, Y+1	; 0x01
     852:	9a 81       	ldd	r25, Y+2	; 0x02
     854:	63 e0       	ldi	r22, 0x03	; 3
     856:	0e 94 0f 01 	call	0x21e	; 0x21e <_ZN13LiquidCrystal10write4bitsEh>
    delayMicroseconds(4500); // wait min 4.1ms
     85a:	84 e9       	ldi	r24, 0x94	; 148
     85c:	91 e1       	ldi	r25, 0x11	; 17
     85e:	0e 94 e3 1b 	call	0x37c6	; 0x37c6 <delayMicroseconds>

    // second try
    write4bits(0x03);
     862:	89 81       	ldd	r24, Y+1	; 0x01
     864:	9a 81       	ldd	r25, Y+2	; 0x02
     866:	63 e0       	ldi	r22, 0x03	; 3
     868:	0e 94 0f 01 	call	0x21e	; 0x21e <_ZN13LiquidCrystal10write4bitsEh>
    delayMicroseconds(4500); // wait min 4.1ms
     86c:	84 e9       	ldi	r24, 0x94	; 148
     86e:	91 e1       	ldi	r25, 0x11	; 17
     870:	0e 94 e3 1b 	call	0x37c6	; 0x37c6 <delayMicroseconds>
    
    // third go!
    write4bits(0x03); 
     874:	89 81       	ldd	r24, Y+1	; 0x01
     876:	9a 81       	ldd	r25, Y+2	; 0x02
     878:	63 e0       	ldi	r22, 0x03	; 3
     87a:	0e 94 0f 01 	call	0x21e	; 0x21e <_ZN13LiquidCrystal10write4bitsEh>
    delayMicroseconds(150);
     87e:	86 e9       	ldi	r24, 0x96	; 150
     880:	90 e0       	ldi	r25, 0x00	; 0
     882:	0e 94 e3 1b 	call	0x37c6	; 0x37c6 <delayMicroseconds>

    // finally, set to 8-bit interface
    write4bits(0x02); 
     886:	89 81       	ldd	r24, Y+1	; 0x01
     888:	9a 81       	ldd	r25, Y+2	; 0x02
     88a:	62 e0       	ldi	r22, 0x02	; 2
     88c:	0e 94 0f 01 	call	0x21e	; 0x21e <_ZN13LiquidCrystal10write4bitsEh>
     890:	26 c0       	rjmp	.+76     	; 0x8de <_ZN13LiquidCrystal5beginEhhh+0x12a>
  } else {
    // this is according to the hitachi HD44780 datasheet
    // page 45 figure 23

    // Send function set command sequence
    command(LCD_FUNCTIONSET | _displayfunction);
     892:	e9 81       	ldd	r30, Y+1	; 0x01
     894:	fa 81       	ldd	r31, Y+2	; 0x02
     896:	85 85       	ldd	r24, Z+13	; 0x0d
     898:	28 2f       	mov	r18, r24
     89a:	20 62       	ori	r18, 0x20	; 32
     89c:	89 81       	ldd	r24, Y+1	; 0x01
     89e:	9a 81       	ldd	r25, Y+2	; 0x02
     8a0:	62 2f       	mov	r22, r18
     8a2:	0e 94 b2 01 	call	0x364	; 0x364 <_ZN13LiquidCrystal7commandEh>
    delayMicroseconds(4500);  // wait more than 4.1ms
     8a6:	84 e9       	ldi	r24, 0x94	; 148
     8a8:	91 e1       	ldi	r25, 0x11	; 17
     8aa:	0e 94 e3 1b 	call	0x37c6	; 0x37c6 <delayMicroseconds>

    // second try
    command(LCD_FUNCTIONSET | _displayfunction);
     8ae:	e9 81       	ldd	r30, Y+1	; 0x01
     8b0:	fa 81       	ldd	r31, Y+2	; 0x02
     8b2:	85 85       	ldd	r24, Z+13	; 0x0d
     8b4:	28 2f       	mov	r18, r24
     8b6:	20 62       	ori	r18, 0x20	; 32
     8b8:	89 81       	ldd	r24, Y+1	; 0x01
     8ba:	9a 81       	ldd	r25, Y+2	; 0x02
     8bc:	62 2f       	mov	r22, r18
     8be:	0e 94 b2 01 	call	0x364	; 0x364 <_ZN13LiquidCrystal7commandEh>
    delayMicroseconds(150);
     8c2:	86 e9       	ldi	r24, 0x96	; 150
     8c4:	90 e0       	ldi	r25, 0x00	; 0
     8c6:	0e 94 e3 1b 	call	0x37c6	; 0x37c6 <delayMicroseconds>

    // third go
    command(LCD_FUNCTIONSET | _displayfunction);
     8ca:	e9 81       	ldd	r30, Y+1	; 0x01
     8cc:	fa 81       	ldd	r31, Y+2	; 0x02
     8ce:	85 85       	ldd	r24, Z+13	; 0x0d
     8d0:	28 2f       	mov	r18, r24
     8d2:	20 62       	ori	r18, 0x20	; 32
     8d4:	89 81       	ldd	r24, Y+1	; 0x01
     8d6:	9a 81       	ldd	r25, Y+2	; 0x02
     8d8:	62 2f       	mov	r22, r18
     8da:	0e 94 b2 01 	call	0x364	; 0x364 <_ZN13LiquidCrystal7commandEh>
  }

  // finally, set # lines, font size, etc.
  command(LCD_FUNCTIONSET | _displayfunction);  
     8de:	e9 81       	ldd	r30, Y+1	; 0x01
     8e0:	fa 81       	ldd	r31, Y+2	; 0x02
     8e2:	85 85       	ldd	r24, Z+13	; 0x0d
     8e4:	28 2f       	mov	r18, r24
     8e6:	20 62       	ori	r18, 0x20	; 32
     8e8:	89 81       	ldd	r24, Y+1	; 0x01
     8ea:	9a 81       	ldd	r25, Y+2	; 0x02
     8ec:	62 2f       	mov	r22, r18
     8ee:	0e 94 b2 01 	call	0x364	; 0x364 <_ZN13LiquidCrystal7commandEh>

  // turn the display on with no cursor or blinking default
  _displaycontrol = LCD_DISPLAYON | LCD_CURSOROFF | LCD_BLINKOFF;  
     8f2:	e9 81       	ldd	r30, Y+1	; 0x01
     8f4:	fa 81       	ldd	r31, Y+2	; 0x02
     8f6:	84 e0       	ldi	r24, 0x04	; 4
     8f8:	86 87       	std	Z+14, r24	; 0x0e
  display();
     8fa:	89 81       	ldd	r24, Y+1	; 0x01
     8fc:	9a 81       	ldd	r25, Y+2	; 0x02
     8fe:	0e 94 1d 03 	call	0x63a	; 0x63a <_ZN13LiquidCrystal7displayEv>

  // clear it off
  clear();
     902:	89 81       	ldd	r24, Y+1	; 0x01
     904:	9a 81       	ldd	r25, Y+2	; 0x02
     906:	0e 94 c5 03 	call	0x78a	; 0x78a <_ZN13LiquidCrystal5clearEv>

  // Initialize to default text direction (for romance languages)
  _displaymode = LCD_ENTRYLEFT | LCD_ENTRYSHIFTDECREMENT;
     90a:	e9 81       	ldd	r30, Y+1	; 0x01
     90c:	fa 81       	ldd	r31, Y+2	; 0x02
     90e:	82 e0       	ldi	r24, 0x02	; 2
     910:	87 87       	std	Z+15, r24	; 0x0f
  // set the entry mode
  command(LCD_ENTRYMODESET | _displaymode);
     912:	e9 81       	ldd	r30, Y+1	; 0x01
     914:	fa 81       	ldd	r31, Y+2	; 0x02
     916:	87 85       	ldd	r24, Z+15	; 0x0f
     918:	28 2f       	mov	r18, r24
     91a:	24 60       	ori	r18, 0x04	; 4
     91c:	89 81       	ldd	r24, Y+1	; 0x01
     91e:	9a 81       	ldd	r25, Y+2	; 0x02
     920:	62 2f       	mov	r22, r18
     922:	0e 94 b2 01 	call	0x364	; 0x364 <_ZN13LiquidCrystal7commandEh>

}
     926:	0f 90       	pop	r0
     928:	0f 90       	pop	r0
     92a:	0f 90       	pop	r0
     92c:	0f 90       	pop	r0
     92e:	0f 90       	pop	r0
     930:	cf 91       	pop	r28
     932:	df 91       	pop	r29
     934:	08 95       	ret

00000936 <_ZN13LiquidCrystal4initEhhhhhhhhhhhh>:
  init(1, rs, 255, enable, d0, d1, d2, d3, 0, 0, 0, 0);
}

void LiquidCrystal::init(uint8_t fourbitmode, uint8_t rs, uint8_t rw, uint8_t enable,
			 uint8_t d0, uint8_t d1, uint8_t d2, uint8_t d3,
			 uint8_t d4, uint8_t d5, uint8_t d6, uint8_t d7)
     936:	8f 92       	push	r8
     938:	af 92       	push	r10
     93a:	cf 92       	push	r12
     93c:	ef 92       	push	r14
     93e:	0f 93       	push	r16
     940:	df 93       	push	r29
     942:	cf 93       	push	r28
     944:	cd b7       	in	r28, 0x3d	; 61
     946:	de b7       	in	r29, 0x3e	; 62
     948:	2a 97       	sbiw	r28, 0x0a	; 10
     94a:	0f b6       	in	r0, 0x3f	; 63
     94c:	f8 94       	cli
     94e:	de bf       	out	0x3e, r29	; 62
     950:	0f be       	out	0x3f, r0	; 63
     952:	cd bf       	out	0x3d, r28	; 61
     954:	9a 83       	std	Y+2, r25	; 0x02
     956:	89 83       	std	Y+1, r24	; 0x01
     958:	6b 83       	std	Y+3, r22	; 0x03
     95a:	4c 83       	std	Y+4, r20	; 0x04
     95c:	2d 83       	std	Y+5, r18	; 0x05
     95e:	0e 83       	std	Y+6, r16	; 0x06
     960:	ef 82       	std	Y+7, r14	; 0x07
     962:	c8 86       	std	Y+8, r12	; 0x08
     964:	a9 86       	std	Y+9, r10	; 0x09
     966:	8a 86       	std	Y+10, r8	; 0x0a
{
  _rs_pin = rs;
     968:	e9 81       	ldd	r30, Y+1	; 0x01
     96a:	fa 81       	ldd	r31, Y+2	; 0x02
     96c:	8c 81       	ldd	r24, Y+4	; 0x04
     96e:	82 83       	std	Z+2, r24	; 0x02
  _rw_pin = rw;
     970:	e9 81       	ldd	r30, Y+1	; 0x01
     972:	fa 81       	ldd	r31, Y+2	; 0x02
     974:	8d 81       	ldd	r24, Y+5	; 0x05
     976:	83 83       	std	Z+3, r24	; 0x03
  _enable_pin = enable;
     978:	e9 81       	ldd	r30, Y+1	; 0x01
     97a:	fa 81       	ldd	r31, Y+2	; 0x02
     97c:	8e 81       	ldd	r24, Y+6	; 0x06
     97e:	84 83       	std	Z+4, r24	; 0x04
  
  _data_pins[0] = d0;
     980:	e9 81       	ldd	r30, Y+1	; 0x01
     982:	fa 81       	ldd	r31, Y+2	; 0x02
     984:	8f 81       	ldd	r24, Y+7	; 0x07
     986:	85 83       	std	Z+5, r24	; 0x05
  _data_pins[1] = d1;
     988:	e9 81       	ldd	r30, Y+1	; 0x01
     98a:	fa 81       	ldd	r31, Y+2	; 0x02
     98c:	88 85       	ldd	r24, Y+8	; 0x08
     98e:	86 83       	std	Z+6, r24	; 0x06
  _data_pins[2] = d2;
     990:	e9 81       	ldd	r30, Y+1	; 0x01
     992:	fa 81       	ldd	r31, Y+2	; 0x02
     994:	89 85       	ldd	r24, Y+9	; 0x09
     996:	87 83       	std	Z+7, r24	; 0x07
  _data_pins[3] = d3; 
     998:	e9 81       	ldd	r30, Y+1	; 0x01
     99a:	fa 81       	ldd	r31, Y+2	; 0x02
     99c:	8a 85       	ldd	r24, Y+10	; 0x0a
     99e:	80 87       	std	Z+8, r24	; 0x08
  _data_pins[4] = d4;
     9a0:	e9 81       	ldd	r30, Y+1	; 0x01
     9a2:	fa 81       	ldd	r31, Y+2	; 0x02
     9a4:	8c 89       	ldd	r24, Y+20	; 0x14
     9a6:	81 87       	std	Z+9, r24	; 0x09
  _data_pins[5] = d5;
     9a8:	e9 81       	ldd	r30, Y+1	; 0x01
     9aa:	fa 81       	ldd	r31, Y+2	; 0x02
     9ac:	8d 89       	ldd	r24, Y+21	; 0x15
     9ae:	82 87       	std	Z+10, r24	; 0x0a
  _data_pins[6] = d6;
     9b0:	e9 81       	ldd	r30, Y+1	; 0x01
     9b2:	fa 81       	ldd	r31, Y+2	; 0x02
     9b4:	8e 89       	ldd	r24, Y+22	; 0x16
     9b6:	83 87       	std	Z+11, r24	; 0x0b
  _data_pins[7] = d7; 
     9b8:	e9 81       	ldd	r30, Y+1	; 0x01
     9ba:	fa 81       	ldd	r31, Y+2	; 0x02
     9bc:	8f 89       	ldd	r24, Y+23	; 0x17
     9be:	84 87       	std	Z+12, r24	; 0x0c

  pinMode(_rs_pin, OUTPUT);
     9c0:	e9 81       	ldd	r30, Y+1	; 0x01
     9c2:	fa 81       	ldd	r31, Y+2	; 0x02
     9c4:	82 81       	ldd	r24, Z+2	; 0x02
     9c6:	61 e0       	ldi	r22, 0x01	; 1
     9c8:	0e 94 7b 1c 	call	0x38f6	; 0x38f6 <pinMode>
  // we can save 1 pin by not using RW. Indicate by passing 255 instead of pin#
  if (_rw_pin != 255) { 
     9cc:	e9 81       	ldd	r30, Y+1	; 0x01
     9ce:	fa 81       	ldd	r31, Y+2	; 0x02
     9d0:	83 81       	ldd	r24, Z+3	; 0x03
     9d2:	8f 3f       	cpi	r24, 0xFF	; 255
     9d4:	31 f0       	breq	.+12     	; 0x9e2 <_ZN13LiquidCrystal4initEhhhhhhhhhhhh+0xac>
    pinMode(_rw_pin, OUTPUT);
     9d6:	e9 81       	ldd	r30, Y+1	; 0x01
     9d8:	fa 81       	ldd	r31, Y+2	; 0x02
     9da:	83 81       	ldd	r24, Z+3	; 0x03
     9dc:	61 e0       	ldi	r22, 0x01	; 1
     9de:	0e 94 7b 1c 	call	0x38f6	; 0x38f6 <pinMode>
  }
  pinMode(_enable_pin, OUTPUT);
     9e2:	e9 81       	ldd	r30, Y+1	; 0x01
     9e4:	fa 81       	ldd	r31, Y+2	; 0x02
     9e6:	84 81       	ldd	r24, Z+4	; 0x04
     9e8:	61 e0       	ldi	r22, 0x01	; 1
     9ea:	0e 94 7b 1c 	call	0x38f6	; 0x38f6 <pinMode>
  
  if (fourbitmode)
     9ee:	8b 81       	ldd	r24, Y+3	; 0x03
     9f0:	88 23       	and	r24, r24
     9f2:	21 f0       	breq	.+8      	; 0x9fc <_ZN13LiquidCrystal4initEhhhhhhhhhhhh+0xc6>
    _displayfunction = LCD_4BITMODE | LCD_1LINE | LCD_5x8DOTS;
     9f4:	e9 81       	ldd	r30, Y+1	; 0x01
     9f6:	fa 81       	ldd	r31, Y+2	; 0x02
     9f8:	15 86       	std	Z+13, r1	; 0x0d
     9fa:	04 c0       	rjmp	.+8      	; 0xa04 <_ZN13LiquidCrystal4initEhhhhhhhhhhhh+0xce>
  else 
    _displayfunction = LCD_8BITMODE | LCD_1LINE | LCD_5x8DOTS;
     9fc:	e9 81       	ldd	r30, Y+1	; 0x01
     9fe:	fa 81       	ldd	r31, Y+2	; 0x02
     a00:	80 e1       	ldi	r24, 0x10	; 16
     a02:	85 87       	std	Z+13, r24	; 0x0d
  
  begin(16, 1);  
     a04:	89 81       	ldd	r24, Y+1	; 0x01
     a06:	9a 81       	ldd	r25, Y+2	; 0x02
     a08:	60 e1       	ldi	r22, 0x10	; 16
     a0a:	41 e0       	ldi	r20, 0x01	; 1
     a0c:	20 e0       	ldi	r18, 0x00	; 0
     a0e:	0e 94 da 03 	call	0x7b4	; 0x7b4 <_ZN13LiquidCrystal5beginEhhh>
}
     a12:	2a 96       	adiw	r28, 0x0a	; 10
     a14:	0f b6       	in	r0, 0x3f	; 63
     a16:	f8 94       	cli
     a18:	de bf       	out	0x3e, r29	; 62
     a1a:	0f be       	out	0x3f, r0	; 63
     a1c:	cd bf       	out	0x3d, r28	; 61
     a1e:	cf 91       	pop	r28
     a20:	df 91       	pop	r29
     a22:	0f 91       	pop	r16
     a24:	ef 90       	pop	r14
     a26:	cf 90       	pop	r12
     a28:	af 90       	pop	r10
     a2a:	8f 90       	pop	r8
     a2c:	08 95       	ret

00000a2e <_ZN13LiquidCrystalC1Ehhhhhh>:
{
  init(1, rs, rw, enable, d0, d1, d2, d3, 0, 0, 0, 0);
}

LiquidCrystal::LiquidCrystal(uint8_t rs,  uint8_t enable,
			     uint8_t d0, uint8_t d1, uint8_t d2, uint8_t d3)
     a2e:	8f 92       	push	r8
     a30:	af 92       	push	r10
     a32:	cf 92       	push	r12
     a34:	ef 92       	push	r14
     a36:	0f 93       	push	r16
     a38:	df 93       	push	r29
     a3a:	cf 93       	push	r28
     a3c:	cd b7       	in	r28, 0x3d	; 61
     a3e:	de b7       	in	r29, 0x3e	; 62
     a40:	28 97       	sbiw	r28, 0x08	; 8
     a42:	0f b6       	in	r0, 0x3f	; 63
     a44:	f8 94       	cli
     a46:	de bf       	out	0x3e, r29	; 62
     a48:	0f be       	out	0x3f, r0	; 63
     a4a:	cd bf       	out	0x3d, r28	; 61
     a4c:	9a 83       	std	Y+2, r25	; 0x02
     a4e:	89 83       	std	Y+1, r24	; 0x01
     a50:	6b 83       	std	Y+3, r22	; 0x03
     a52:	4c 83       	std	Y+4, r20	; 0x04
     a54:	2d 83       	std	Y+5, r18	; 0x05
     a56:	0e 83       	std	Y+6, r16	; 0x06
     a58:	ef 82       	std	Y+7, r14	; 0x07
     a5a:	c8 86       	std	Y+8, r12	; 0x08
     a5c:	89 81       	ldd	r24, Y+1	; 0x01
     a5e:	9a 81       	ldd	r25, Y+2	; 0x02
     a60:	0e 94 8c 00 	call	0x118	; 0x118 <_ZN5PrintC2Ev>
     a64:	e9 81       	ldd	r30, Y+1	; 0x01
     a66:	fa 81       	ldd	r31, Y+2	; 0x02
     a68:	84 e0       	ldi	r24, 0x04	; 4
     a6a:	91 e0       	ldi	r25, 0x01	; 1
     a6c:	91 83       	std	Z+1, r25	; 0x01
     a6e:	80 83       	st	Z, r24
{
  init(1, rs, 255, enable, d0, d1, d2, d3, 0, 0, 0, 0);
     a70:	00 d0       	rcall	.+0      	; 0xa72 <_ZN13LiquidCrystalC1Ehhhhhh+0x44>
     a72:	00 d0       	rcall	.+0      	; 0xa74 <_ZN13LiquidCrystalC1Ehhhhhh+0x46>
     a74:	ed b7       	in	r30, 0x3d	; 61
     a76:	fe b7       	in	r31, 0x3e	; 62
     a78:	31 96       	adiw	r30, 0x01	; 1
     a7a:	89 81       	ldd	r24, Y+1	; 0x01
     a7c:	9a 81       	ldd	r25, Y+2	; 0x02
     a7e:	10 82       	st	Z, r1
     a80:	11 82       	std	Z+1, r1	; 0x01
     a82:	12 82       	std	Z+2, r1	; 0x02
     a84:	13 82       	std	Z+3, r1	; 0x03
     a86:	61 e0       	ldi	r22, 0x01	; 1
     a88:	4b 81       	ldd	r20, Y+3	; 0x03
     a8a:	2f ef       	ldi	r18, 0xFF	; 255
     a8c:	0c 81       	ldd	r16, Y+4	; 0x04
     a8e:	ed 80       	ldd	r14, Y+5	; 0x05
     a90:	ce 80       	ldd	r12, Y+6	; 0x06
     a92:	af 80       	ldd	r10, Y+7	; 0x07
     a94:	88 84       	ldd	r8, Y+8	; 0x08
     a96:	0e 94 9b 04 	call	0x936	; 0x936 <_ZN13LiquidCrystal4initEhhhhhhhhhhhh>
     a9a:	0f 90       	pop	r0
     a9c:	0f 90       	pop	r0
     a9e:	0f 90       	pop	r0
     aa0:	0f 90       	pop	r0
}
     aa2:	28 96       	adiw	r28, 0x08	; 8
     aa4:	0f b6       	in	r0, 0x3f	; 63
     aa6:	f8 94       	cli
     aa8:	de bf       	out	0x3e, r29	; 62
     aaa:	0f be       	out	0x3f, r0	; 63
     aac:	cd bf       	out	0x3d, r28	; 61
     aae:	cf 91       	pop	r28
     ab0:	df 91       	pop	r29
     ab2:	0f 91       	pop	r16
     ab4:	ef 90       	pop	r14
     ab6:	cf 90       	pop	r12
     ab8:	af 90       	pop	r10
     aba:	8f 90       	pop	r8
     abc:	08 95       	ret

00000abe <_ZN13LiquidCrystalC2Ehhhhhh>:
{
  init(1, rs, rw, enable, d0, d1, d2, d3, 0, 0, 0, 0);
}

LiquidCrystal::LiquidCrystal(uint8_t rs,  uint8_t enable,
			     uint8_t d0, uint8_t d1, uint8_t d2, uint8_t d3)
     abe:	8f 92       	push	r8
     ac0:	af 92       	push	r10
     ac2:	cf 92       	push	r12
     ac4:	ef 92       	push	r14
     ac6:	0f 93       	push	r16
     ac8:	df 93       	push	r29
     aca:	cf 93       	push	r28
     acc:	cd b7       	in	r28, 0x3d	; 61
     ace:	de b7       	in	r29, 0x3e	; 62
     ad0:	28 97       	sbiw	r28, 0x08	; 8
     ad2:	0f b6       	in	r0, 0x3f	; 63
     ad4:	f8 94       	cli
     ad6:	de bf       	out	0x3e, r29	; 62
     ad8:	0f be       	out	0x3f, r0	; 63
     ada:	cd bf       	out	0x3d, r28	; 61
     adc:	9a 83       	std	Y+2, r25	; 0x02
     ade:	89 83       	std	Y+1, r24	; 0x01
     ae0:	6b 83       	std	Y+3, r22	; 0x03
     ae2:	4c 83       	std	Y+4, r20	; 0x04
     ae4:	2d 83       	std	Y+5, r18	; 0x05
     ae6:	0e 83       	std	Y+6, r16	; 0x06
     ae8:	ef 82       	std	Y+7, r14	; 0x07
     aea:	c8 86       	std	Y+8, r12	; 0x08
     aec:	89 81       	ldd	r24, Y+1	; 0x01
     aee:	9a 81       	ldd	r25, Y+2	; 0x02
     af0:	0e 94 8c 00 	call	0x118	; 0x118 <_ZN5PrintC2Ev>
     af4:	e9 81       	ldd	r30, Y+1	; 0x01
     af6:	fa 81       	ldd	r31, Y+2	; 0x02
     af8:	84 e0       	ldi	r24, 0x04	; 4
     afa:	91 e0       	ldi	r25, 0x01	; 1
     afc:	91 83       	std	Z+1, r25	; 0x01
     afe:	80 83       	st	Z, r24
{
  init(1, rs, 255, enable, d0, d1, d2, d3, 0, 0, 0, 0);
     b00:	00 d0       	rcall	.+0      	; 0xb02 <_ZN13LiquidCrystalC2Ehhhhhh+0x44>
     b02:	00 d0       	rcall	.+0      	; 0xb04 <_ZN13LiquidCrystalC2Ehhhhhh+0x46>
     b04:	ed b7       	in	r30, 0x3d	; 61
     b06:	fe b7       	in	r31, 0x3e	; 62
     b08:	31 96       	adiw	r30, 0x01	; 1
     b0a:	89 81       	ldd	r24, Y+1	; 0x01
     b0c:	9a 81       	ldd	r25, Y+2	; 0x02
     b0e:	10 82       	st	Z, r1
     b10:	11 82       	std	Z+1, r1	; 0x01
     b12:	12 82       	std	Z+2, r1	; 0x02
     b14:	13 82       	std	Z+3, r1	; 0x03
     b16:	61 e0       	ldi	r22, 0x01	; 1
     b18:	4b 81       	ldd	r20, Y+3	; 0x03
     b1a:	2f ef       	ldi	r18, 0xFF	; 255
     b1c:	0c 81       	ldd	r16, Y+4	; 0x04
     b1e:	ed 80       	ldd	r14, Y+5	; 0x05
     b20:	ce 80       	ldd	r12, Y+6	; 0x06
     b22:	af 80       	ldd	r10, Y+7	; 0x07
     b24:	88 84       	ldd	r8, Y+8	; 0x08
     b26:	0e 94 9b 04 	call	0x936	; 0x936 <_ZN13LiquidCrystal4initEhhhhhhhhhhhh>
     b2a:	0f 90       	pop	r0
     b2c:	0f 90       	pop	r0
     b2e:	0f 90       	pop	r0
     b30:	0f 90       	pop	r0
}
     b32:	28 96       	adiw	r28, 0x08	; 8
     b34:	0f b6       	in	r0, 0x3f	; 63
     b36:	f8 94       	cli
     b38:	de bf       	out	0x3e, r29	; 62
     b3a:	0f be       	out	0x3f, r0	; 63
     b3c:	cd bf       	out	0x3d, r28	; 61
     b3e:	cf 91       	pop	r28
     b40:	df 91       	pop	r29
     b42:	0f 91       	pop	r16
     b44:	ef 90       	pop	r14
     b46:	cf 90       	pop	r12
     b48:	af 90       	pop	r10
     b4a:	8f 90       	pop	r8
     b4c:	08 95       	ret

00000b4e <_ZN13LiquidCrystalC1Ehhhhhhh>:
{
  init(0, rs, 255, enable, d0, d1, d2, d3, d4, d5, d6, d7);
}

LiquidCrystal::LiquidCrystal(uint8_t rs, uint8_t rw, uint8_t enable,
			     uint8_t d0, uint8_t d1, uint8_t d2, uint8_t d3)
     b4e:	8f 92       	push	r8
     b50:	af 92       	push	r10
     b52:	cf 92       	push	r12
     b54:	ef 92       	push	r14
     b56:	0f 93       	push	r16
     b58:	df 93       	push	r29
     b5a:	cf 93       	push	r28
     b5c:	cd b7       	in	r28, 0x3d	; 61
     b5e:	de b7       	in	r29, 0x3e	; 62
     b60:	29 97       	sbiw	r28, 0x09	; 9
     b62:	0f b6       	in	r0, 0x3f	; 63
     b64:	f8 94       	cli
     b66:	de bf       	out	0x3e, r29	; 62
     b68:	0f be       	out	0x3f, r0	; 63
     b6a:	cd bf       	out	0x3d, r28	; 61
     b6c:	9a 83       	std	Y+2, r25	; 0x02
     b6e:	89 83       	std	Y+1, r24	; 0x01
     b70:	6b 83       	std	Y+3, r22	; 0x03
     b72:	4c 83       	std	Y+4, r20	; 0x04
     b74:	2d 83       	std	Y+5, r18	; 0x05
     b76:	0e 83       	std	Y+6, r16	; 0x06
     b78:	ef 82       	std	Y+7, r14	; 0x07
     b7a:	c8 86       	std	Y+8, r12	; 0x08
     b7c:	a9 86       	std	Y+9, r10	; 0x09
     b7e:	89 81       	ldd	r24, Y+1	; 0x01
     b80:	9a 81       	ldd	r25, Y+2	; 0x02
     b82:	0e 94 8c 00 	call	0x118	; 0x118 <_ZN5PrintC2Ev>
     b86:	e9 81       	ldd	r30, Y+1	; 0x01
     b88:	fa 81       	ldd	r31, Y+2	; 0x02
     b8a:	84 e0       	ldi	r24, 0x04	; 4
     b8c:	91 e0       	ldi	r25, 0x01	; 1
     b8e:	91 83       	std	Z+1, r25	; 0x01
     b90:	80 83       	st	Z, r24
{
  init(1, rs, rw, enable, d0, d1, d2, d3, 0, 0, 0, 0);
     b92:	00 d0       	rcall	.+0      	; 0xb94 <_ZN13LiquidCrystalC1Ehhhhhhh+0x46>
     b94:	00 d0       	rcall	.+0      	; 0xb96 <_ZN13LiquidCrystalC1Ehhhhhhh+0x48>
     b96:	ed b7       	in	r30, 0x3d	; 61
     b98:	fe b7       	in	r31, 0x3e	; 62
     b9a:	31 96       	adiw	r30, 0x01	; 1
     b9c:	89 81       	ldd	r24, Y+1	; 0x01
     b9e:	9a 81       	ldd	r25, Y+2	; 0x02
     ba0:	10 82       	st	Z, r1
     ba2:	11 82       	std	Z+1, r1	; 0x01
     ba4:	12 82       	std	Z+2, r1	; 0x02
     ba6:	13 82       	std	Z+3, r1	; 0x03
     ba8:	61 e0       	ldi	r22, 0x01	; 1
     baa:	4b 81       	ldd	r20, Y+3	; 0x03
     bac:	2c 81       	ldd	r18, Y+4	; 0x04
     bae:	0d 81       	ldd	r16, Y+5	; 0x05
     bb0:	ee 80       	ldd	r14, Y+6	; 0x06
     bb2:	cf 80       	ldd	r12, Y+7	; 0x07
     bb4:	a8 84       	ldd	r10, Y+8	; 0x08
     bb6:	89 84       	ldd	r8, Y+9	; 0x09
     bb8:	0e 94 9b 04 	call	0x936	; 0x936 <_ZN13LiquidCrystal4initEhhhhhhhhhhhh>
     bbc:	0f 90       	pop	r0
     bbe:	0f 90       	pop	r0
     bc0:	0f 90       	pop	r0
     bc2:	0f 90       	pop	r0
}
     bc4:	29 96       	adiw	r28, 0x09	; 9
     bc6:	0f b6       	in	r0, 0x3f	; 63
     bc8:	f8 94       	cli
     bca:	de bf       	out	0x3e, r29	; 62
     bcc:	0f be       	out	0x3f, r0	; 63
     bce:	cd bf       	out	0x3d, r28	; 61
     bd0:	cf 91       	pop	r28
     bd2:	df 91       	pop	r29
     bd4:	0f 91       	pop	r16
     bd6:	ef 90       	pop	r14
     bd8:	cf 90       	pop	r12
     bda:	af 90       	pop	r10
     bdc:	8f 90       	pop	r8
     bde:	08 95       	ret

00000be0 <_ZN13LiquidCrystalC2Ehhhhhhh>:
{
  init(0, rs, 255, enable, d0, d1, d2, d3, d4, d5, d6, d7);
}

LiquidCrystal::LiquidCrystal(uint8_t rs, uint8_t rw, uint8_t enable,
			     uint8_t d0, uint8_t d1, uint8_t d2, uint8_t d3)
     be0:	8f 92       	push	r8
     be2:	af 92       	push	r10
     be4:	cf 92       	push	r12
     be6:	ef 92       	push	r14
     be8:	0f 93       	push	r16
     bea:	df 93       	push	r29
     bec:	cf 93       	push	r28
     bee:	cd b7       	in	r28, 0x3d	; 61
     bf0:	de b7       	in	r29, 0x3e	; 62
     bf2:	29 97       	sbiw	r28, 0x09	; 9
     bf4:	0f b6       	in	r0, 0x3f	; 63
     bf6:	f8 94       	cli
     bf8:	de bf       	out	0x3e, r29	; 62
     bfa:	0f be       	out	0x3f, r0	; 63
     bfc:	cd bf       	out	0x3d, r28	; 61
     bfe:	9a 83       	std	Y+2, r25	; 0x02
     c00:	89 83       	std	Y+1, r24	; 0x01
     c02:	6b 83       	std	Y+3, r22	; 0x03
     c04:	4c 83       	std	Y+4, r20	; 0x04
     c06:	2d 83       	std	Y+5, r18	; 0x05
     c08:	0e 83       	std	Y+6, r16	; 0x06
     c0a:	ef 82       	std	Y+7, r14	; 0x07
     c0c:	c8 86       	std	Y+8, r12	; 0x08
     c0e:	a9 86       	std	Y+9, r10	; 0x09
     c10:	89 81       	ldd	r24, Y+1	; 0x01
     c12:	9a 81       	ldd	r25, Y+2	; 0x02
     c14:	0e 94 8c 00 	call	0x118	; 0x118 <_ZN5PrintC2Ev>
     c18:	e9 81       	ldd	r30, Y+1	; 0x01
     c1a:	fa 81       	ldd	r31, Y+2	; 0x02
     c1c:	84 e0       	ldi	r24, 0x04	; 4
     c1e:	91 e0       	ldi	r25, 0x01	; 1
     c20:	91 83       	std	Z+1, r25	; 0x01
     c22:	80 83       	st	Z, r24
{
  init(1, rs, rw, enable, d0, d1, d2, d3, 0, 0, 0, 0);
     c24:	00 d0       	rcall	.+0      	; 0xc26 <_ZN13LiquidCrystalC2Ehhhhhhh+0x46>
     c26:	00 d0       	rcall	.+0      	; 0xc28 <_ZN13LiquidCrystalC2Ehhhhhhh+0x48>
     c28:	ed b7       	in	r30, 0x3d	; 61
     c2a:	fe b7       	in	r31, 0x3e	; 62
     c2c:	31 96       	adiw	r30, 0x01	; 1
     c2e:	89 81       	ldd	r24, Y+1	; 0x01
     c30:	9a 81       	ldd	r25, Y+2	; 0x02
     c32:	10 82       	st	Z, r1
     c34:	11 82       	std	Z+1, r1	; 0x01
     c36:	12 82       	std	Z+2, r1	; 0x02
     c38:	13 82       	std	Z+3, r1	; 0x03
     c3a:	61 e0       	ldi	r22, 0x01	; 1
     c3c:	4b 81       	ldd	r20, Y+3	; 0x03
     c3e:	2c 81       	ldd	r18, Y+4	; 0x04
     c40:	0d 81       	ldd	r16, Y+5	; 0x05
     c42:	ee 80       	ldd	r14, Y+6	; 0x06
     c44:	cf 80       	ldd	r12, Y+7	; 0x07
     c46:	a8 84       	ldd	r10, Y+8	; 0x08
     c48:	89 84       	ldd	r8, Y+9	; 0x09
     c4a:	0e 94 9b 04 	call	0x936	; 0x936 <_ZN13LiquidCrystal4initEhhhhhhhhhhhh>
     c4e:	0f 90       	pop	r0
     c50:	0f 90       	pop	r0
     c52:	0f 90       	pop	r0
     c54:	0f 90       	pop	r0
}
     c56:	29 96       	adiw	r28, 0x09	; 9
     c58:	0f b6       	in	r0, 0x3f	; 63
     c5a:	f8 94       	cli
     c5c:	de bf       	out	0x3e, r29	; 62
     c5e:	0f be       	out	0x3f, r0	; 63
     c60:	cd bf       	out	0x3d, r28	; 61
     c62:	cf 91       	pop	r28
     c64:	df 91       	pop	r29
     c66:	0f 91       	pop	r16
     c68:	ef 90       	pop	r14
     c6a:	cf 90       	pop	r12
     c6c:	af 90       	pop	r10
     c6e:	8f 90       	pop	r8
     c70:	08 95       	ret

00000c72 <_ZN13LiquidCrystalC1Ehhhhhhhhhh>:
  init(0, rs, rw, enable, d0, d1, d2, d3, d4, d5, d6, d7);
}

LiquidCrystal::LiquidCrystal(uint8_t rs, uint8_t enable,
			     uint8_t d0, uint8_t d1, uint8_t d2, uint8_t d3,
			     uint8_t d4, uint8_t d5, uint8_t d6, uint8_t d7)
     c72:	8f 92       	push	r8
     c74:	af 92       	push	r10
     c76:	cf 92       	push	r12
     c78:	ef 92       	push	r14
     c7a:	0f 93       	push	r16
     c7c:	df 93       	push	r29
     c7e:	cf 93       	push	r28
     c80:	cd b7       	in	r28, 0x3d	; 61
     c82:	de b7       	in	r29, 0x3e	; 62
     c84:	2a 97       	sbiw	r28, 0x0a	; 10
     c86:	0f b6       	in	r0, 0x3f	; 63
     c88:	f8 94       	cli
     c8a:	de bf       	out	0x3e, r29	; 62
     c8c:	0f be       	out	0x3f, r0	; 63
     c8e:	cd bf       	out	0x3d, r28	; 61
     c90:	9a 83       	std	Y+2, r25	; 0x02
     c92:	89 83       	std	Y+1, r24	; 0x01
     c94:	6b 83       	std	Y+3, r22	; 0x03
     c96:	4c 83       	std	Y+4, r20	; 0x04
     c98:	2d 83       	std	Y+5, r18	; 0x05
     c9a:	0e 83       	std	Y+6, r16	; 0x06
     c9c:	ef 82       	std	Y+7, r14	; 0x07
     c9e:	c8 86       	std	Y+8, r12	; 0x08
     ca0:	a9 86       	std	Y+9, r10	; 0x09
     ca2:	8a 86       	std	Y+10, r8	; 0x0a
     ca4:	89 81       	ldd	r24, Y+1	; 0x01
     ca6:	9a 81       	ldd	r25, Y+2	; 0x02
     ca8:	0e 94 8c 00 	call	0x118	; 0x118 <_ZN5PrintC2Ev>
     cac:	e9 81       	ldd	r30, Y+1	; 0x01
     cae:	fa 81       	ldd	r31, Y+2	; 0x02
     cb0:	84 e0       	ldi	r24, 0x04	; 4
     cb2:	91 e0       	ldi	r25, 0x01	; 1
     cb4:	91 83       	std	Z+1, r25	; 0x01
     cb6:	80 83       	st	Z, r24
{
  init(0, rs, 255, enable, d0, d1, d2, d3, d4, d5, d6, d7);
     cb8:	00 d0       	rcall	.+0      	; 0xcba <_ZN13LiquidCrystalC1Ehhhhhhhhhh+0x48>
     cba:	00 d0       	rcall	.+0      	; 0xcbc <_ZN13LiquidCrystalC1Ehhhhhhhhhh+0x4a>
     cbc:	ed b7       	in	r30, 0x3d	; 61
     cbe:	fe b7       	in	r31, 0x3e	; 62
     cc0:	31 96       	adiw	r30, 0x01	; 1
     cc2:	29 81       	ldd	r18, Y+1	; 0x01
     cc4:	3a 81       	ldd	r19, Y+2	; 0x02
     cc6:	89 85       	ldd	r24, Y+9	; 0x09
     cc8:	80 83       	st	Z, r24
     cca:	8a 85       	ldd	r24, Y+10	; 0x0a
     ccc:	81 83       	std	Z+1, r24	; 0x01
     cce:	8c 89       	ldd	r24, Y+20	; 0x14
     cd0:	82 83       	std	Z+2, r24	; 0x02
     cd2:	8d 89       	ldd	r24, Y+21	; 0x15
     cd4:	83 83       	std	Z+3, r24	; 0x03
     cd6:	c9 01       	movw	r24, r18
     cd8:	60 e0       	ldi	r22, 0x00	; 0
     cda:	4b 81       	ldd	r20, Y+3	; 0x03
     cdc:	2f ef       	ldi	r18, 0xFF	; 255
     cde:	0c 81       	ldd	r16, Y+4	; 0x04
     ce0:	ed 80       	ldd	r14, Y+5	; 0x05
     ce2:	ce 80       	ldd	r12, Y+6	; 0x06
     ce4:	af 80       	ldd	r10, Y+7	; 0x07
     ce6:	88 84       	ldd	r8, Y+8	; 0x08
     ce8:	0e 94 9b 04 	call	0x936	; 0x936 <_ZN13LiquidCrystal4initEhhhhhhhhhhhh>
     cec:	0f 90       	pop	r0
     cee:	0f 90       	pop	r0
     cf0:	0f 90       	pop	r0
     cf2:	0f 90       	pop	r0
}
     cf4:	2a 96       	adiw	r28, 0x0a	; 10
     cf6:	0f b6       	in	r0, 0x3f	; 63
     cf8:	f8 94       	cli
     cfa:	de bf       	out	0x3e, r29	; 62
     cfc:	0f be       	out	0x3f, r0	; 63
     cfe:	cd bf       	out	0x3d, r28	; 61
     d00:	cf 91       	pop	r28
     d02:	df 91       	pop	r29
     d04:	0f 91       	pop	r16
     d06:	ef 90       	pop	r14
     d08:	cf 90       	pop	r12
     d0a:	af 90       	pop	r10
     d0c:	8f 90       	pop	r8
     d0e:	08 95       	ret

00000d10 <_ZN13LiquidCrystalC2Ehhhhhhhhhh>:
  init(0, rs, rw, enable, d0, d1, d2, d3, d4, d5, d6, d7);
}

LiquidCrystal::LiquidCrystal(uint8_t rs, uint8_t enable,
			     uint8_t d0, uint8_t d1, uint8_t d2, uint8_t d3,
			     uint8_t d4, uint8_t d5, uint8_t d6, uint8_t d7)
     d10:	8f 92       	push	r8
     d12:	af 92       	push	r10
     d14:	cf 92       	push	r12
     d16:	ef 92       	push	r14
     d18:	0f 93       	push	r16
     d1a:	df 93       	push	r29
     d1c:	cf 93       	push	r28
     d1e:	cd b7       	in	r28, 0x3d	; 61
     d20:	de b7       	in	r29, 0x3e	; 62
     d22:	2a 97       	sbiw	r28, 0x0a	; 10
     d24:	0f b6       	in	r0, 0x3f	; 63
     d26:	f8 94       	cli
     d28:	de bf       	out	0x3e, r29	; 62
     d2a:	0f be       	out	0x3f, r0	; 63
     d2c:	cd bf       	out	0x3d, r28	; 61
     d2e:	9a 83       	std	Y+2, r25	; 0x02
     d30:	89 83       	std	Y+1, r24	; 0x01
     d32:	6b 83       	std	Y+3, r22	; 0x03
     d34:	4c 83       	std	Y+4, r20	; 0x04
     d36:	2d 83       	std	Y+5, r18	; 0x05
     d38:	0e 83       	std	Y+6, r16	; 0x06
     d3a:	ef 82       	std	Y+7, r14	; 0x07
     d3c:	c8 86       	std	Y+8, r12	; 0x08
     d3e:	a9 86       	std	Y+9, r10	; 0x09
     d40:	8a 86       	std	Y+10, r8	; 0x0a
     d42:	89 81       	ldd	r24, Y+1	; 0x01
     d44:	9a 81       	ldd	r25, Y+2	; 0x02
     d46:	0e 94 8c 00 	call	0x118	; 0x118 <_ZN5PrintC2Ev>
     d4a:	e9 81       	ldd	r30, Y+1	; 0x01
     d4c:	fa 81       	ldd	r31, Y+2	; 0x02
     d4e:	84 e0       	ldi	r24, 0x04	; 4
     d50:	91 e0       	ldi	r25, 0x01	; 1
     d52:	91 83       	std	Z+1, r25	; 0x01
     d54:	80 83       	st	Z, r24
{
  init(0, rs, 255, enable, d0, d1, d2, d3, d4, d5, d6, d7);
     d56:	00 d0       	rcall	.+0      	; 0xd58 <_ZN13LiquidCrystalC2Ehhhhhhhhhh+0x48>
     d58:	00 d0       	rcall	.+0      	; 0xd5a <_ZN13LiquidCrystalC2Ehhhhhhhhhh+0x4a>
     d5a:	ed b7       	in	r30, 0x3d	; 61
     d5c:	fe b7       	in	r31, 0x3e	; 62
     d5e:	31 96       	adiw	r30, 0x01	; 1
     d60:	29 81       	ldd	r18, Y+1	; 0x01
     d62:	3a 81       	ldd	r19, Y+2	; 0x02
     d64:	89 85       	ldd	r24, Y+9	; 0x09
     d66:	80 83       	st	Z, r24
     d68:	8a 85       	ldd	r24, Y+10	; 0x0a
     d6a:	81 83       	std	Z+1, r24	; 0x01
     d6c:	8c 89       	ldd	r24, Y+20	; 0x14
     d6e:	82 83       	std	Z+2, r24	; 0x02
     d70:	8d 89       	ldd	r24, Y+21	; 0x15
     d72:	83 83       	std	Z+3, r24	; 0x03
     d74:	c9 01       	movw	r24, r18
     d76:	60 e0       	ldi	r22, 0x00	; 0
     d78:	4b 81       	ldd	r20, Y+3	; 0x03
     d7a:	2f ef       	ldi	r18, 0xFF	; 255
     d7c:	0c 81       	ldd	r16, Y+4	; 0x04
     d7e:	ed 80       	ldd	r14, Y+5	; 0x05
     d80:	ce 80       	ldd	r12, Y+6	; 0x06
     d82:	af 80       	ldd	r10, Y+7	; 0x07
     d84:	88 84       	ldd	r8, Y+8	; 0x08
     d86:	0e 94 9b 04 	call	0x936	; 0x936 <_ZN13LiquidCrystal4initEhhhhhhhhhhhh>
     d8a:	0f 90       	pop	r0
     d8c:	0f 90       	pop	r0
     d8e:	0f 90       	pop	r0
     d90:	0f 90       	pop	r0
}
     d92:	2a 96       	adiw	r28, 0x0a	; 10
     d94:	0f b6       	in	r0, 0x3f	; 63
     d96:	f8 94       	cli
     d98:	de bf       	out	0x3e, r29	; 62
     d9a:	0f be       	out	0x3f, r0	; 63
     d9c:	cd bf       	out	0x3d, r28	; 61
     d9e:	cf 91       	pop	r28
     da0:	df 91       	pop	r29
     da2:	0f 91       	pop	r16
     da4:	ef 90       	pop	r14
     da6:	cf 90       	pop	r12
     da8:	af 90       	pop	r10
     daa:	8f 90       	pop	r8
     dac:	08 95       	ret

00000dae <_ZN13LiquidCrystalC1Ehhhhhhhhhhh>:
// can't assume that its in that state when a sketch starts (and the
// LiquidCrystal constructor is called).

LiquidCrystal::LiquidCrystal(uint8_t rs, uint8_t rw, uint8_t enable,
			     uint8_t d0, uint8_t d1, uint8_t d2, uint8_t d3,
			     uint8_t d4, uint8_t d5, uint8_t d6, uint8_t d7)
     dae:	8f 92       	push	r8
     db0:	af 92       	push	r10
     db2:	cf 92       	push	r12
     db4:	ef 92       	push	r14
     db6:	0f 93       	push	r16
     db8:	df 93       	push	r29
     dba:	cf 93       	push	r28
     dbc:	cd b7       	in	r28, 0x3d	; 61
     dbe:	de b7       	in	r29, 0x3e	; 62
     dc0:	2a 97       	sbiw	r28, 0x0a	; 10
     dc2:	0f b6       	in	r0, 0x3f	; 63
     dc4:	f8 94       	cli
     dc6:	de bf       	out	0x3e, r29	; 62
     dc8:	0f be       	out	0x3f, r0	; 63
     dca:	cd bf       	out	0x3d, r28	; 61
     dcc:	9a 83       	std	Y+2, r25	; 0x02
     dce:	89 83       	std	Y+1, r24	; 0x01
     dd0:	6b 83       	std	Y+3, r22	; 0x03
     dd2:	4c 83       	std	Y+4, r20	; 0x04
     dd4:	2d 83       	std	Y+5, r18	; 0x05
     dd6:	0e 83       	std	Y+6, r16	; 0x06
     dd8:	ef 82       	std	Y+7, r14	; 0x07
     dda:	c8 86       	std	Y+8, r12	; 0x08
     ddc:	a9 86       	std	Y+9, r10	; 0x09
     dde:	8a 86       	std	Y+10, r8	; 0x0a
     de0:	89 81       	ldd	r24, Y+1	; 0x01
     de2:	9a 81       	ldd	r25, Y+2	; 0x02
     de4:	0e 94 8c 00 	call	0x118	; 0x118 <_ZN5PrintC2Ev>
     de8:	e9 81       	ldd	r30, Y+1	; 0x01
     dea:	fa 81       	ldd	r31, Y+2	; 0x02
     dec:	84 e0       	ldi	r24, 0x04	; 4
     dee:	91 e0       	ldi	r25, 0x01	; 1
     df0:	91 83       	std	Z+1, r25	; 0x01
     df2:	80 83       	st	Z, r24
{
  init(0, rs, rw, enable, d0, d1, d2, d3, d4, d5, d6, d7);
     df4:	00 d0       	rcall	.+0      	; 0xdf6 <_ZN13LiquidCrystalC1Ehhhhhhhhhhh+0x48>
     df6:	00 d0       	rcall	.+0      	; 0xdf8 <_ZN13LiquidCrystalC1Ehhhhhhhhhhh+0x4a>
     df8:	ed b7       	in	r30, 0x3d	; 61
     dfa:	fe b7       	in	r31, 0x3e	; 62
     dfc:	31 96       	adiw	r30, 0x01	; 1
     dfe:	29 81       	ldd	r18, Y+1	; 0x01
     e00:	3a 81       	ldd	r19, Y+2	; 0x02
     e02:	8a 85       	ldd	r24, Y+10	; 0x0a
     e04:	80 83       	st	Z, r24
     e06:	8c 89       	ldd	r24, Y+20	; 0x14
     e08:	81 83       	std	Z+1, r24	; 0x01
     e0a:	8d 89       	ldd	r24, Y+21	; 0x15
     e0c:	82 83       	std	Z+2, r24	; 0x02
     e0e:	8e 89       	ldd	r24, Y+22	; 0x16
     e10:	83 83       	std	Z+3, r24	; 0x03
     e12:	c9 01       	movw	r24, r18
     e14:	60 e0       	ldi	r22, 0x00	; 0
     e16:	4b 81       	ldd	r20, Y+3	; 0x03
     e18:	2c 81       	ldd	r18, Y+4	; 0x04
     e1a:	0d 81       	ldd	r16, Y+5	; 0x05
     e1c:	ee 80       	ldd	r14, Y+6	; 0x06
     e1e:	cf 80       	ldd	r12, Y+7	; 0x07
     e20:	a8 84       	ldd	r10, Y+8	; 0x08
     e22:	89 84       	ldd	r8, Y+9	; 0x09
     e24:	0e 94 9b 04 	call	0x936	; 0x936 <_ZN13LiquidCrystal4initEhhhhhhhhhhhh>
     e28:	0f 90       	pop	r0
     e2a:	0f 90       	pop	r0
     e2c:	0f 90       	pop	r0
     e2e:	0f 90       	pop	r0
}
     e30:	2a 96       	adiw	r28, 0x0a	; 10
     e32:	0f b6       	in	r0, 0x3f	; 63
     e34:	f8 94       	cli
     e36:	de bf       	out	0x3e, r29	; 62
     e38:	0f be       	out	0x3f, r0	; 63
     e3a:	cd bf       	out	0x3d, r28	; 61
     e3c:	cf 91       	pop	r28
     e3e:	df 91       	pop	r29
     e40:	0f 91       	pop	r16
     e42:	ef 90       	pop	r14
     e44:	cf 90       	pop	r12
     e46:	af 90       	pop	r10
     e48:	8f 90       	pop	r8
     e4a:	08 95       	ret

00000e4c <_ZN13LiquidCrystalC2Ehhhhhhhhhhh>:
// can't assume that its in that state when a sketch starts (and the
// LiquidCrystal constructor is called).

LiquidCrystal::LiquidCrystal(uint8_t rs, uint8_t rw, uint8_t enable,
			     uint8_t d0, uint8_t d1, uint8_t d2, uint8_t d3,
			     uint8_t d4, uint8_t d5, uint8_t d6, uint8_t d7)
     e4c:	8f 92       	push	r8
     e4e:	af 92       	push	r10
     e50:	cf 92       	push	r12
     e52:	ef 92       	push	r14
     e54:	0f 93       	push	r16
     e56:	df 93       	push	r29
     e58:	cf 93       	push	r28
     e5a:	cd b7       	in	r28, 0x3d	; 61
     e5c:	de b7       	in	r29, 0x3e	; 62
     e5e:	2a 97       	sbiw	r28, 0x0a	; 10
     e60:	0f b6       	in	r0, 0x3f	; 63
     e62:	f8 94       	cli
     e64:	de bf       	out	0x3e, r29	; 62
     e66:	0f be       	out	0x3f, r0	; 63
     e68:	cd bf       	out	0x3d, r28	; 61
     e6a:	9a 83       	std	Y+2, r25	; 0x02
     e6c:	89 83       	std	Y+1, r24	; 0x01
     e6e:	6b 83       	std	Y+3, r22	; 0x03
     e70:	4c 83       	std	Y+4, r20	; 0x04
     e72:	2d 83       	std	Y+5, r18	; 0x05
     e74:	0e 83       	std	Y+6, r16	; 0x06
     e76:	ef 82       	std	Y+7, r14	; 0x07
     e78:	c8 86       	std	Y+8, r12	; 0x08
     e7a:	a9 86       	std	Y+9, r10	; 0x09
     e7c:	8a 86       	std	Y+10, r8	; 0x0a
     e7e:	89 81       	ldd	r24, Y+1	; 0x01
     e80:	9a 81       	ldd	r25, Y+2	; 0x02
     e82:	0e 94 8c 00 	call	0x118	; 0x118 <_ZN5PrintC2Ev>
     e86:	e9 81       	ldd	r30, Y+1	; 0x01
     e88:	fa 81       	ldd	r31, Y+2	; 0x02
     e8a:	84 e0       	ldi	r24, 0x04	; 4
     e8c:	91 e0       	ldi	r25, 0x01	; 1
     e8e:	91 83       	std	Z+1, r25	; 0x01
     e90:	80 83       	st	Z, r24
{
  init(0, rs, rw, enable, d0, d1, d2, d3, d4, d5, d6, d7);
     e92:	00 d0       	rcall	.+0      	; 0xe94 <_ZN13LiquidCrystalC2Ehhhhhhhhhhh+0x48>
     e94:	00 d0       	rcall	.+0      	; 0xe96 <_ZN13LiquidCrystalC2Ehhhhhhhhhhh+0x4a>
     e96:	ed b7       	in	r30, 0x3d	; 61
     e98:	fe b7       	in	r31, 0x3e	; 62
     e9a:	31 96       	adiw	r30, 0x01	; 1
     e9c:	29 81       	ldd	r18, Y+1	; 0x01
     e9e:	3a 81       	ldd	r19, Y+2	; 0x02
     ea0:	8a 85       	ldd	r24, Y+10	; 0x0a
     ea2:	80 83       	st	Z, r24
     ea4:	8c 89       	ldd	r24, Y+20	; 0x14
     ea6:	81 83       	std	Z+1, r24	; 0x01
     ea8:	8d 89       	ldd	r24, Y+21	; 0x15
     eaa:	82 83       	std	Z+2, r24	; 0x02
     eac:	8e 89       	ldd	r24, Y+22	; 0x16
     eae:	83 83       	std	Z+3, r24	; 0x03
     eb0:	c9 01       	movw	r24, r18
     eb2:	60 e0       	ldi	r22, 0x00	; 0
     eb4:	4b 81       	ldd	r20, Y+3	; 0x03
     eb6:	2c 81       	ldd	r18, Y+4	; 0x04
     eb8:	0d 81       	ldd	r16, Y+5	; 0x05
     eba:	ee 80       	ldd	r14, Y+6	; 0x06
     ebc:	cf 80       	ldd	r12, Y+7	; 0x07
     ebe:	a8 84       	ldd	r10, Y+8	; 0x08
     ec0:	89 84       	ldd	r8, Y+9	; 0x09
     ec2:	0e 94 9b 04 	call	0x936	; 0x936 <_ZN13LiquidCrystal4initEhhhhhhhhhhhh>
     ec6:	0f 90       	pop	r0
     ec8:	0f 90       	pop	r0
     eca:	0f 90       	pop	r0
     ecc:	0f 90       	pop	r0
}
     ece:	2a 96       	adiw	r28, 0x0a	; 10
     ed0:	0f b6       	in	r0, 0x3f	; 63
     ed2:	f8 94       	cli
     ed4:	de bf       	out	0x3e, r29	; 62
     ed6:	0f be       	out	0x3f, r0	; 63
     ed8:	cd bf       	out	0x3d, r28	; 61
     eda:	cf 91       	pop	r28
     edc:	df 91       	pop	r29
     ede:	0f 91       	pop	r16
     ee0:	ef 90       	pop	r14
     ee2:	cf 90       	pop	r12
     ee4:	af 90       	pop	r10
     ee6:	8f 90       	pop	r8
     ee8:	08 95       	ret

00000eea <_Z13control_statePh>:
{
	lcd->clear();

}

void control_state(byte *main_state)
     eea:	df 93       	push	r29
     eec:	cf 93       	push	r28
     eee:	00 d0       	rcall	.+0      	; 0xef0 <_Z13control_statePh+0x6>
     ef0:	cd b7       	in	r28, 0x3d	; 61
     ef2:	de b7       	in	r29, 0x3e	; 62
     ef4:	9a 83       	std	Y+2, r25	; 0x02
     ef6:	89 83       	std	Y+1, r24	; 0x01
		case CONFIG_STATE:
			break;
		default:
			break;
	}
}
     ef8:	0f 90       	pop	r0
     efa:	0f 90       	pop	r0
     efc:	cf 91       	pop	r28
     efe:	df 91       	pop	r29
     f00:	08 95       	ret

00000f02 <_Z9print_lcdP13LiquidCrystal>:
#include "functions.h"

//---------> printLcd <------------------------
//handles output on lcd display
void print_lcd(LiquidCrystal* lcd)
     f02:	df 93       	push	r29
     f04:	cf 93       	push	r28
     f06:	00 d0       	rcall	.+0      	; 0xf08 <_Z9print_lcdP13LiquidCrystal+0x6>
     f08:	cd b7       	in	r28, 0x3d	; 61
     f0a:	de b7       	in	r29, 0x3e	; 62
     f0c:	9a 83       	std	Y+2, r25	; 0x02
     f0e:	89 83       	std	Y+1, r24	; 0x01
{
	lcd->clear();
     f10:	89 81       	ldd	r24, Y+1	; 0x01
     f12:	9a 81       	ldd	r25, Y+2	; 0x02
     f14:	0e 94 c5 03 	call	0x78a	; 0x78a <_ZN13LiquidCrystal5clearEv>

}
     f18:	0f 90       	pop	r0
     f1a:	0f 90       	pop	r0
     f1c:	cf 91       	pop	r28
     f1e:	df 91       	pop	r29
     f20:	08 95       	ret

00000f22 <_Z41__static_initialization_and_destruction_0ii>:
	while (true)
	{
		control_state(&main_state);
	}
	return 0;
}
     f22:	cf 92       	push	r12
     f24:	ef 92       	push	r14
     f26:	0f 93       	push	r16
     f28:	df 93       	push	r29
     f2a:	cf 93       	push	r28
     f2c:	00 d0       	rcall	.+0      	; 0xf2e <_Z41__static_initialization_and_destruction_0ii+0xc>
     f2e:	00 d0       	rcall	.+0      	; 0xf30 <_Z41__static_initialization_and_destruction_0ii+0xe>
     f30:	cd b7       	in	r28, 0x3d	; 61
     f32:	de b7       	in	r29, 0x3e	; 62
     f34:	9a 83       	std	Y+2, r25	; 0x02
     f36:	89 83       	std	Y+1, r24	; 0x01
     f38:	7c 83       	std	Y+4, r23	; 0x04
     f3a:	6b 83       	std	Y+3, r22	; 0x03
     f3c:	89 81       	ldd	r24, Y+1	; 0x01
     f3e:	9a 81       	ldd	r25, Y+2	; 0x02
     f40:	81 30       	cpi	r24, 0x01	; 1
     f42:	91 05       	cpc	r25, r1
     f44:	99 f4       	brne	.+38     	; 0xf6c <_Z41__static_initialization_and_destruction_0ii+0x4a>
     f46:	8b 81       	ldd	r24, Y+3	; 0x03
     f48:	9c 81       	ldd	r25, Y+4	; 0x04
     f4a:	2f ef       	ldi	r18, 0xFF	; 255
     f4c:	8f 3f       	cpi	r24, 0xFF	; 255
     f4e:	92 07       	cpc	r25, r18
     f50:	69 f4       	brne	.+26     	; 0xf6c <_Z41__static_initialization_and_destruction_0ii+0x4a>
#include "WProgram.h" //Include arduino headers
#include "LiquidCrystal.h"
#include "macros.h"
#include "functions.h"

LiquidCrystal lcd(7, 5, 4, 3, 2, 1);
     f52:	8a e3       	ldi	r24, 0x3A	; 58
     f54:	92 e0       	ldi	r25, 0x02	; 2
     f56:	67 e0       	ldi	r22, 0x07	; 7
     f58:	45 e0       	ldi	r20, 0x05	; 5
     f5a:	24 e0       	ldi	r18, 0x04	; 4
     f5c:	03 e0       	ldi	r16, 0x03	; 3
     f5e:	ee 24       	eor	r14, r14
     f60:	68 94       	set
     f62:	e1 f8       	bld	r14, 1
     f64:	cc 24       	eor	r12, r12
     f66:	c3 94       	inc	r12
     f68:	0e 94 17 05 	call	0xa2e	; 0xa2e <_ZN13LiquidCrystalC1Ehhhhhh>
	while (true)
	{
		control_state(&main_state);
	}
	return 0;
}
     f6c:	0f 90       	pop	r0
     f6e:	0f 90       	pop	r0
     f70:	0f 90       	pop	r0
     f72:	0f 90       	pop	r0
     f74:	cf 91       	pop	r28
     f76:	df 91       	pop	r29
     f78:	0f 91       	pop	r16
     f7a:	ef 90       	pop	r14
     f7c:	cf 90       	pop	r12
     f7e:	08 95       	ret

00000f80 <_GLOBAL__I_lcd>:
     f80:	df 93       	push	r29
     f82:	cf 93       	push	r28
     f84:	cd b7       	in	r28, 0x3d	; 61
     f86:	de b7       	in	r29, 0x3e	; 62
     f88:	81 e0       	ldi	r24, 0x01	; 1
     f8a:	90 e0       	ldi	r25, 0x00	; 0
     f8c:	6f ef       	ldi	r22, 0xFF	; 255
     f8e:	7f ef       	ldi	r23, 0xFF	; 255
     f90:	0e 94 91 07 	call	0xf22	; 0xf22 <_Z41__static_initialization_and_destruction_0ii>
     f94:	cf 91       	pop	r28
     f96:	df 91       	pop	r29
     f98:	08 95       	ret

00000f9a <main>:

DWORD amount = START_AMOUNT; //number of pictures that should be taken
DWORD currentAmount = 0; //number of pictures allready taken

///MAIN///
int main()
     f9a:	df 93       	push	r29
     f9c:	cf 93       	push	r28
     f9e:	0f 92       	push	r0
     fa0:	cd b7       	in	r28, 0x3d	; 61
     fa2:	de b7       	in	r29, 0x3e	; 62
{
	//Initialize the Arduino library
	init();
     fa4:	0e 94 0b 1c 	call	0x3816	; 0x3816 <init>

	lcd.begin(16, 2);
     fa8:	8a e3       	ldi	r24, 0x3A	; 58
     faa:	92 e0       	ldi	r25, 0x02	; 2
     fac:	60 e1       	ldi	r22, 0x10	; 16
     fae:	42 e0       	ldi	r20, 0x02	; 2
     fb0:	20 e0       	ldi	r18, 0x00	; 0
     fb2:	0e 94 da 03 	call	0x7b4	; 0x7b4 <_ZN13LiquidCrystal5beginEhhh>

	pinMode(TRIGGER_PIN, OUTPUT);
     fb6:	8a e0       	ldi	r24, 0x0A	; 10
     fb8:	61 e0       	ldi	r22, 0x01	; 1
     fba:	0e 94 7b 1c 	call	0x38f6	; 0x38f6 <pinMode>
	pinMode(FOCUS_PIN, OUTPUT);
     fbe:	89 e0       	ldi	r24, 0x09	; 9
     fc0:	61 e0       	ldi	r22, 0x01	; 1
     fc2:	0e 94 7b 1c 	call	0x38f6	; 0x38f6 <pinMode>
	pinMode(UP, INPUT);
     fc6:	8b e0       	ldi	r24, 0x0B	; 11
     fc8:	60 e0       	ldi	r22, 0x00	; 0
     fca:	0e 94 7b 1c 	call	0x38f6	; 0x38f6 <pinMode>
	pinMode(DOWN, INPUT);
     fce:	80 e0       	ldi	r24, 0x00	; 0
     fd0:	60 e0       	ldi	r22, 0x00	; 0
     fd2:	0e 94 7b 1c 	call	0x38f6	; 0x38f6 <pinMode>
	pinMode(LEFT, INPUT);
     fd6:	8d e0       	ldi	r24, 0x0D	; 13
     fd8:	60 e0       	ldi	r22, 0x00	; 0
     fda:	0e 94 7b 1c 	call	0x38f6	; 0x38f6 <pinMode>
	pinMode(RIGHT, INPUT);
     fde:	8c e0       	ldi	r24, 0x0C	; 12
     fe0:	60 e0       	ldi	r22, 0x00	; 0
     fe2:	0e 94 7b 1c 	call	0x38f6	; 0x38f6 <pinMode>

	print_lcd(&lcd);
     fe6:	8a e3       	ldi	r24, 0x3A	; 58
     fe8:	92 e0       	ldi	r25, 0x02	; 2
     fea:	0e 94 81 07 	call	0xf02	; 0xf02 <_Z9print_lcdP13LiquidCrystal>

	byte main_state = 0;
     fee:	19 82       	std	Y+1, r1	; 0x01
	while (true)
	{
		control_state(&main_state);
     ff0:	ce 01       	movw	r24, r28
     ff2:	01 96       	adiw	r24, 0x01	; 1
     ff4:	0e 94 75 07 	call	0xeea	; 0xeea <_Z13control_statePh>
     ff8:	fb cf       	rjmp	.-10     	; 0xff0 <main+0x56>

00000ffa <_ZNK6String6lengthEv>:
     ffa:	df 93       	push	r29
     ffc:	cf 93       	push	r28
     ffe:	00 d0       	rcall	.+0      	; 0x1000 <_ZNK6String6lengthEv+0x6>
    1000:	cd b7       	in	r28, 0x3d	; 61
    1002:	de b7       	in	r29, 0x3e	; 62
    1004:	9a 83       	std	Y+2, r25	; 0x02
    1006:	89 83       	std	Y+1, r24	; 0x01
    1008:	e9 81       	ldd	r30, Y+1	; 0x01
    100a:	fa 81       	ldd	r31, Y+2	; 0x02
    100c:	84 81       	ldd	r24, Z+4	; 0x04
    100e:	95 81       	ldd	r25, Z+5	; 0x05
    1010:	0f 90       	pop	r0
    1012:	0f 90       	pop	r0
    1014:	cf 91       	pop	r28
    1016:	df 91       	pop	r29
    1018:	08 95       	ret

0000101a <_ZN5Print5writeEPKc>:
    101a:	df 93       	push	r29
    101c:	cf 93       	push	r28
    101e:	00 d0       	rcall	.+0      	; 0x1020 <_ZN5Print5writeEPKc+0x6>
    1020:	00 d0       	rcall	.+0      	; 0x1022 <_ZN5Print5writeEPKc+0x8>
    1022:	cd b7       	in	r28, 0x3d	; 61
    1024:	de b7       	in	r29, 0x3e	; 62
    1026:	9a 83       	std	Y+2, r25	; 0x02
    1028:	89 83       	std	Y+1, r24	; 0x01
    102a:	7c 83       	std	Y+4, r23	; 0x04
    102c:	6b 83       	std	Y+3, r22	; 0x03
    102e:	14 c0       	rjmp	.+40     	; 0x1058 <_ZN5Print5writeEPKc+0x3e>
    1030:	e9 81       	ldd	r30, Y+1	; 0x01
    1032:	fa 81       	ldd	r31, Y+2	; 0x02
    1034:	01 90       	ld	r0, Z+
    1036:	f0 81       	ld	r31, Z
    1038:	e0 2d       	mov	r30, r0
    103a:	20 81       	ld	r18, Z
    103c:	31 81       	ldd	r19, Z+1	; 0x01
    103e:	eb 81       	ldd	r30, Y+3	; 0x03
    1040:	fc 81       	ldd	r31, Y+4	; 0x04
    1042:	40 81       	ld	r20, Z
    1044:	8b 81       	ldd	r24, Y+3	; 0x03
    1046:	9c 81       	ldd	r25, Y+4	; 0x04
    1048:	01 96       	adiw	r24, 0x01	; 1
    104a:	9c 83       	std	Y+4, r25	; 0x04
    104c:	8b 83       	std	Y+3, r24	; 0x03
    104e:	89 81       	ldd	r24, Y+1	; 0x01
    1050:	9a 81       	ldd	r25, Y+2	; 0x02
    1052:	64 2f       	mov	r22, r20
    1054:	f9 01       	movw	r30, r18
    1056:	09 95       	icall
    1058:	eb 81       	ldd	r30, Y+3	; 0x03
    105a:	fc 81       	ldd	r31, Y+4	; 0x04
    105c:	80 81       	ld	r24, Z
    105e:	88 23       	and	r24, r24
    1060:	39 f7       	brne	.-50     	; 0x1030 <_ZN5Print5writeEPKc+0x16>
    1062:	0f 90       	pop	r0
    1064:	0f 90       	pop	r0
    1066:	0f 90       	pop	r0
    1068:	0f 90       	pop	r0
    106a:	cf 91       	pop	r28
    106c:	df 91       	pop	r29
    106e:	08 95       	ret

00001070 <_ZN5Print5writeEPKhj>:
    1070:	df 93       	push	r29
    1072:	cf 93       	push	r28
    1074:	cd b7       	in	r28, 0x3d	; 61
    1076:	de b7       	in	r29, 0x3e	; 62
    1078:	27 97       	sbiw	r28, 0x07	; 7
    107a:	0f b6       	in	r0, 0x3f	; 63
    107c:	f8 94       	cli
    107e:	de bf       	out	0x3e, r29	; 62
    1080:	0f be       	out	0x3f, r0	; 63
    1082:	cd bf       	out	0x3d, r28	; 61
    1084:	9a 83       	std	Y+2, r25	; 0x02
    1086:	89 83       	std	Y+1, r24	; 0x01
    1088:	7c 83       	std	Y+4, r23	; 0x04
    108a:	6b 83       	std	Y+3, r22	; 0x03
    108c:	5e 83       	std	Y+6, r21	; 0x06
    108e:	4d 83       	std	Y+5, r20	; 0x05
    1090:	14 c0       	rjmp	.+40     	; 0x10ba <_ZN5Print5writeEPKhj+0x4a>
    1092:	e9 81       	ldd	r30, Y+1	; 0x01
    1094:	fa 81       	ldd	r31, Y+2	; 0x02
    1096:	01 90       	ld	r0, Z+
    1098:	f0 81       	ld	r31, Z
    109a:	e0 2d       	mov	r30, r0
    109c:	20 81       	ld	r18, Z
    109e:	31 81       	ldd	r19, Z+1	; 0x01
    10a0:	eb 81       	ldd	r30, Y+3	; 0x03
    10a2:	fc 81       	ldd	r31, Y+4	; 0x04
    10a4:	40 81       	ld	r20, Z
    10a6:	8b 81       	ldd	r24, Y+3	; 0x03
    10a8:	9c 81       	ldd	r25, Y+4	; 0x04
    10aa:	01 96       	adiw	r24, 0x01	; 1
    10ac:	9c 83       	std	Y+4, r25	; 0x04
    10ae:	8b 83       	std	Y+3, r24	; 0x03
    10b0:	89 81       	ldd	r24, Y+1	; 0x01
    10b2:	9a 81       	ldd	r25, Y+2	; 0x02
    10b4:	64 2f       	mov	r22, r20
    10b6:	f9 01       	movw	r30, r18
    10b8:	09 95       	icall
    10ba:	1f 82       	std	Y+7, r1	; 0x07
    10bc:	8d 81       	ldd	r24, Y+5	; 0x05
    10be:	9e 81       	ldd	r25, Y+6	; 0x06
    10c0:	00 97       	sbiw	r24, 0x00	; 0
    10c2:	11 f0       	breq	.+4      	; 0x10c8 <_ZN5Print5writeEPKhj+0x58>
    10c4:	81 e0       	ldi	r24, 0x01	; 1
    10c6:	8f 83       	std	Y+7, r24	; 0x07
    10c8:	8d 81       	ldd	r24, Y+5	; 0x05
    10ca:	9e 81       	ldd	r25, Y+6	; 0x06
    10cc:	01 97       	sbiw	r24, 0x01	; 1
    10ce:	9e 83       	std	Y+6, r25	; 0x06
    10d0:	8d 83       	std	Y+5, r24	; 0x05
    10d2:	8f 81       	ldd	r24, Y+7	; 0x07
    10d4:	88 23       	and	r24, r24
    10d6:	e9 f6       	brne	.-70     	; 0x1092 <_ZN5Print5writeEPKhj+0x22>
    10d8:	27 96       	adiw	r28, 0x07	; 7
    10da:	0f b6       	in	r0, 0x3f	; 63
    10dc:	f8 94       	cli
    10de:	de bf       	out	0x3e, r29	; 62
    10e0:	0f be       	out	0x3f, r0	; 63
    10e2:	cd bf       	out	0x3d, r28	; 61
    10e4:	cf 91       	pop	r28
    10e6:	df 91       	pop	r29
    10e8:	08 95       	ret

000010ea <_ZN5Print5printEPKc>:
    10ea:	df 93       	push	r29
    10ec:	cf 93       	push	r28
    10ee:	00 d0       	rcall	.+0      	; 0x10f0 <_ZN5Print5printEPKc+0x6>
    10f0:	00 d0       	rcall	.+0      	; 0x10f2 <_ZN5Print5printEPKc+0x8>
    10f2:	cd b7       	in	r28, 0x3d	; 61
    10f4:	de b7       	in	r29, 0x3e	; 62
    10f6:	9a 83       	std	Y+2, r25	; 0x02
    10f8:	89 83       	std	Y+1, r24	; 0x01
    10fa:	7c 83       	std	Y+4, r23	; 0x04
    10fc:	6b 83       	std	Y+3, r22	; 0x03
    10fe:	e9 81       	ldd	r30, Y+1	; 0x01
    1100:	fa 81       	ldd	r31, Y+2	; 0x02
    1102:	80 81       	ld	r24, Z
    1104:	91 81       	ldd	r25, Z+1	; 0x01
    1106:	fc 01       	movw	r30, r24
    1108:	32 96       	adiw	r30, 0x02	; 2
    110a:	01 90       	ld	r0, Z+
    110c:	f0 81       	ld	r31, Z
    110e:	e0 2d       	mov	r30, r0
    1110:	89 81       	ldd	r24, Y+1	; 0x01
    1112:	9a 81       	ldd	r25, Y+2	; 0x02
    1114:	2b 81       	ldd	r18, Y+3	; 0x03
    1116:	3c 81       	ldd	r19, Y+4	; 0x04
    1118:	b9 01       	movw	r22, r18
    111a:	09 95       	icall
    111c:	0f 90       	pop	r0
    111e:	0f 90       	pop	r0
    1120:	0f 90       	pop	r0
    1122:	0f 90       	pop	r0
    1124:	cf 91       	pop	r28
    1126:	df 91       	pop	r29
    1128:	08 95       	ret

0000112a <_ZN5Print11printNumberEmh>:
    112a:	ef 92       	push	r14
    112c:	ff 92       	push	r15
    112e:	0f 93       	push	r16
    1130:	1f 93       	push	r17
    1132:	df 93       	push	r29
    1134:	cf 93       	push	r28
    1136:	cd b7       	in	r28, 0x3d	; 61
    1138:	de b7       	in	r29, 0x3e	; 62
    113a:	ac 97       	sbiw	r28, 0x2c	; 44
    113c:	0f b6       	in	r0, 0x3f	; 63
    113e:	f8 94       	cli
    1140:	de bf       	out	0x3e, r29	; 62
    1142:	0f be       	out	0x3f, r0	; 63
    1144:	cd bf       	out	0x3d, r28	; 61
    1146:	9e a3       	std	Y+38, r25	; 0x26
    1148:	8d a3       	std	Y+37, r24	; 0x25
    114a:	4f a3       	std	Y+39, r20	; 0x27
    114c:	58 a7       	std	Y+40, r21	; 0x28
    114e:	69 a7       	std	Y+41, r22	; 0x29
    1150:	7a a7       	std	Y+42, r23	; 0x2a
    1152:	2b a7       	std	Y+43, r18	; 0x2b
    1154:	19 82       	std	Y+1, r1	; 0x01
    1156:	1a 82       	std	Y+2, r1	; 0x02
    1158:	1b 82       	std	Y+3, r1	; 0x03
    115a:	1c 82       	std	Y+4, r1	; 0x04
    115c:	8f a1       	ldd	r24, Y+39	; 0x27
    115e:	98 a5       	ldd	r25, Y+40	; 0x28
    1160:	a9 a5       	ldd	r26, Y+41	; 0x29
    1162:	ba a5       	ldd	r27, Y+42	; 0x2a
    1164:	00 97       	sbiw	r24, 0x00	; 0
    1166:	a1 05       	cpc	r26, r1
    1168:	b1 05       	cpc	r27, r1
    116a:	09 f0       	breq	.+2      	; 0x116e <_ZN5Print11printNumberEmh+0x44>
    116c:	40 c0       	rjmp	.+128    	; 0x11ee <_ZN5Print11printNumberEmh+0xc4>
    116e:	8d a1       	ldd	r24, Y+37	; 0x25
    1170:	9e a1       	ldd	r25, Y+38	; 0x26
    1172:	60 e3       	ldi	r22, 0x30	; 48
    1174:	40 e0       	ldi	r20, 0x00	; 0
    1176:	50 e0       	ldi	r21, 0x00	; 0
    1178:	0e 94 67 0a 	call	0x14ce	; 0x14ce <_ZN5Print5printEci>
    117c:	90 c0       	rjmp	.+288    	; 0x129e <_ZN5Print11printNumberEmh+0x174>
    117e:	e9 80       	ldd	r14, Y+1	; 0x01
    1180:	fa 80       	ldd	r15, Y+2	; 0x02
    1182:	0b 81       	ldd	r16, Y+3	; 0x03
    1184:	1c 81       	ldd	r17, Y+4	; 0x04
    1186:	8b a5       	ldd	r24, Y+43	; 0x2b
    1188:	28 2f       	mov	r18, r24
    118a:	30 e0       	ldi	r19, 0x00	; 0
    118c:	40 e0       	ldi	r20, 0x00	; 0
    118e:	50 e0       	ldi	r21, 0x00	; 0
    1190:	8f a1       	ldd	r24, Y+39	; 0x27
    1192:	98 a5       	ldd	r25, Y+40	; 0x28
    1194:	a9 a5       	ldd	r26, Y+41	; 0x29
    1196:	ba a5       	ldd	r27, Y+42	; 0x2a
    1198:	bc 01       	movw	r22, r24
    119a:	cd 01       	movw	r24, r26
    119c:	0e 94 4f 25 	call	0x4a9e	; 0x4a9e <__udivmodsi4>
    11a0:	dc 01       	movw	r26, r24
    11a2:	cb 01       	movw	r24, r22
    11a4:	28 2f       	mov	r18, r24
    11a6:	ce 01       	movw	r24, r28
    11a8:	05 96       	adiw	r24, 0x05	; 5
    11aa:	fc 01       	movw	r30, r24
    11ac:	ee 0d       	add	r30, r14
    11ae:	ff 1d       	adc	r31, r15
    11b0:	20 83       	st	Z, r18
    11b2:	89 81       	ldd	r24, Y+1	; 0x01
    11b4:	9a 81       	ldd	r25, Y+2	; 0x02
    11b6:	ab 81       	ldd	r26, Y+3	; 0x03
    11b8:	bc 81       	ldd	r27, Y+4	; 0x04
    11ba:	01 96       	adiw	r24, 0x01	; 1
    11bc:	a1 1d       	adc	r26, r1
    11be:	b1 1d       	adc	r27, r1
    11c0:	89 83       	std	Y+1, r24	; 0x01
    11c2:	9a 83       	std	Y+2, r25	; 0x02
    11c4:	ab 83       	std	Y+3, r26	; 0x03
    11c6:	bc 83       	std	Y+4, r27	; 0x04
    11c8:	8b a5       	ldd	r24, Y+43	; 0x2b
    11ca:	28 2f       	mov	r18, r24
    11cc:	30 e0       	ldi	r19, 0x00	; 0
    11ce:	40 e0       	ldi	r20, 0x00	; 0
    11d0:	50 e0       	ldi	r21, 0x00	; 0
    11d2:	8f a1       	ldd	r24, Y+39	; 0x27
    11d4:	98 a5       	ldd	r25, Y+40	; 0x28
    11d6:	a9 a5       	ldd	r26, Y+41	; 0x29
    11d8:	ba a5       	ldd	r27, Y+42	; 0x2a
    11da:	bc 01       	movw	r22, r24
    11dc:	cd 01       	movw	r24, r26
    11de:	0e 94 4f 25 	call	0x4a9e	; 0x4a9e <__udivmodsi4>
    11e2:	da 01       	movw	r26, r20
    11e4:	c9 01       	movw	r24, r18
    11e6:	8f a3       	std	Y+39, r24	; 0x27
    11e8:	98 a7       	std	Y+40, r25	; 0x28
    11ea:	a9 a7       	std	Y+41, r26	; 0x29
    11ec:	ba a7       	std	Y+42, r27	; 0x2a
    11ee:	8f a1       	ldd	r24, Y+39	; 0x27
    11f0:	98 a5       	ldd	r25, Y+40	; 0x28
    11f2:	a9 a5       	ldd	r26, Y+41	; 0x29
    11f4:	ba a5       	ldd	r27, Y+42	; 0x2a
    11f6:	00 97       	sbiw	r24, 0x00	; 0
    11f8:	a1 05       	cpc	r26, r1
    11fa:	b1 05       	cpc	r27, r1
    11fc:	09 f0       	breq	.+2      	; 0x1200 <_ZN5Print11printNumberEmh+0xd6>
    11fe:	bf cf       	rjmp	.-130    	; 0x117e <_ZN5Print11printNumberEmh+0x54>
    1200:	45 c0       	rjmp	.+138    	; 0x128c <_ZN5Print11printNumberEmh+0x162>
    1202:	89 81       	ldd	r24, Y+1	; 0x01
    1204:	9a 81       	ldd	r25, Y+2	; 0x02
    1206:	ab 81       	ldd	r26, Y+3	; 0x03
    1208:	bc 81       	ldd	r27, Y+4	; 0x04
    120a:	01 97       	sbiw	r24, 0x01	; 1
    120c:	a1 09       	sbc	r26, r1
    120e:	b1 09       	sbc	r27, r1
    1210:	9e 01       	movw	r18, r28
    1212:	2b 5f       	subi	r18, 0xFB	; 251
    1214:	3f 4f       	sbci	r19, 0xFF	; 255
    1216:	f9 01       	movw	r30, r18
    1218:	e8 0f       	add	r30, r24
    121a:	f9 1f       	adc	r31, r25
    121c:	80 81       	ld	r24, Z
    121e:	8a 30       	cpi	r24, 0x0A	; 10
    1220:	90 f4       	brcc	.+36     	; 0x1246 <_ZN5Print11printNumberEmh+0x11c>
    1222:	89 81       	ldd	r24, Y+1	; 0x01
    1224:	9a 81       	ldd	r25, Y+2	; 0x02
    1226:	ab 81       	ldd	r26, Y+3	; 0x03
    1228:	bc 81       	ldd	r27, Y+4	; 0x04
    122a:	01 97       	sbiw	r24, 0x01	; 1
    122c:	a1 09       	sbc	r26, r1
    122e:	b1 09       	sbc	r27, r1
    1230:	9e 01       	movw	r18, r28
    1232:	2b 5f       	subi	r18, 0xFB	; 251
    1234:	3f 4f       	sbci	r19, 0xFF	; 255
    1236:	f9 01       	movw	r30, r18
    1238:	e8 0f       	add	r30, r24
    123a:	f9 1f       	adc	r31, r25
    123c:	80 81       	ld	r24, Z
    123e:	98 2f       	mov	r25, r24
    1240:	90 5d       	subi	r25, 0xD0	; 208
    1242:	9c a7       	std	Y+44, r25	; 0x2c
    1244:	11 c0       	rjmp	.+34     	; 0x1268 <_ZN5Print11printNumberEmh+0x13e>
    1246:	89 81       	ldd	r24, Y+1	; 0x01
    1248:	9a 81       	ldd	r25, Y+2	; 0x02
    124a:	ab 81       	ldd	r26, Y+3	; 0x03
    124c:	bc 81       	ldd	r27, Y+4	; 0x04
    124e:	01 97       	sbiw	r24, 0x01	; 1
    1250:	a1 09       	sbc	r26, r1
    1252:	b1 09       	sbc	r27, r1
    1254:	9e 01       	movw	r18, r28
    1256:	2b 5f       	subi	r18, 0xFB	; 251
    1258:	3f 4f       	sbci	r19, 0xFF	; 255
    125a:	f9 01       	movw	r30, r18
    125c:	e8 0f       	add	r30, r24
    125e:	f9 1f       	adc	r31, r25
    1260:	80 81       	ld	r24, Z
    1262:	98 2f       	mov	r25, r24
    1264:	99 5c       	subi	r25, 0xC9	; 201
    1266:	9c a7       	std	Y+44, r25	; 0x2c
    1268:	8d a1       	ldd	r24, Y+37	; 0x25
    126a:	9e a1       	ldd	r25, Y+38	; 0x26
    126c:	6c a5       	ldd	r22, Y+44	; 0x2c
    126e:	40 e0       	ldi	r20, 0x00	; 0
    1270:	50 e0       	ldi	r21, 0x00	; 0
    1272:	0e 94 67 0a 	call	0x14ce	; 0x14ce <_ZN5Print5printEci>
    1276:	89 81       	ldd	r24, Y+1	; 0x01
    1278:	9a 81       	ldd	r25, Y+2	; 0x02
    127a:	ab 81       	ldd	r26, Y+3	; 0x03
    127c:	bc 81       	ldd	r27, Y+4	; 0x04
    127e:	01 97       	sbiw	r24, 0x01	; 1
    1280:	a1 09       	sbc	r26, r1
    1282:	b1 09       	sbc	r27, r1
    1284:	89 83       	std	Y+1, r24	; 0x01
    1286:	9a 83       	std	Y+2, r25	; 0x02
    1288:	ab 83       	std	Y+3, r26	; 0x03
    128a:	bc 83       	std	Y+4, r27	; 0x04
    128c:	89 81       	ldd	r24, Y+1	; 0x01
    128e:	9a 81       	ldd	r25, Y+2	; 0x02
    1290:	ab 81       	ldd	r26, Y+3	; 0x03
    1292:	bc 81       	ldd	r27, Y+4	; 0x04
    1294:	00 97       	sbiw	r24, 0x00	; 0
    1296:	a1 05       	cpc	r26, r1
    1298:	b1 05       	cpc	r27, r1
    129a:	09 f0       	breq	.+2      	; 0x129e <_ZN5Print11printNumberEmh+0x174>
    129c:	b2 cf       	rjmp	.-156    	; 0x1202 <_ZN5Print11printNumberEmh+0xd8>
    129e:	ac 96       	adiw	r28, 0x2c	; 44
    12a0:	0f b6       	in	r0, 0x3f	; 63
    12a2:	f8 94       	cli
    12a4:	de bf       	out	0x3e, r29	; 62
    12a6:	0f be       	out	0x3f, r0	; 63
    12a8:	cd bf       	out	0x3d, r28	; 61
    12aa:	cf 91       	pop	r28
    12ac:	df 91       	pop	r29
    12ae:	1f 91       	pop	r17
    12b0:	0f 91       	pop	r16
    12b2:	ff 90       	pop	r15
    12b4:	ef 90       	pop	r14
    12b6:	08 95       	ret

000012b8 <_ZN5Print5printEmi>:
    12b8:	df 93       	push	r29
    12ba:	cf 93       	push	r28
    12bc:	cd b7       	in	r28, 0x3d	; 61
    12be:	de b7       	in	r29, 0x3e	; 62
    12c0:	28 97       	sbiw	r28, 0x08	; 8
    12c2:	0f b6       	in	r0, 0x3f	; 63
    12c4:	f8 94       	cli
    12c6:	de bf       	out	0x3e, r29	; 62
    12c8:	0f be       	out	0x3f, r0	; 63
    12ca:	cd bf       	out	0x3d, r28	; 61
    12cc:	9a 83       	std	Y+2, r25	; 0x02
    12ce:	89 83       	std	Y+1, r24	; 0x01
    12d0:	4b 83       	std	Y+3, r20	; 0x03
    12d2:	5c 83       	std	Y+4, r21	; 0x04
    12d4:	6d 83       	std	Y+5, r22	; 0x05
    12d6:	7e 83       	std	Y+6, r23	; 0x06
    12d8:	38 87       	std	Y+8, r19	; 0x08
    12da:	2f 83       	std	Y+7, r18	; 0x07
    12dc:	8f 81       	ldd	r24, Y+7	; 0x07
    12de:	98 85       	ldd	r25, Y+8	; 0x08
    12e0:	00 97       	sbiw	r24, 0x00	; 0
    12e2:	71 f4       	brne	.+28     	; 0x1300 <_ZN5Print5printEmi+0x48>
    12e4:	e9 81       	ldd	r30, Y+1	; 0x01
    12e6:	fa 81       	ldd	r31, Y+2	; 0x02
    12e8:	01 90       	ld	r0, Z+
    12ea:	f0 81       	ld	r31, Z
    12ec:	e0 2d       	mov	r30, r0
    12ee:	01 90       	ld	r0, Z+
    12f0:	f0 81       	ld	r31, Z
    12f2:	e0 2d       	mov	r30, r0
    12f4:	2b 81       	ldd	r18, Y+3	; 0x03
    12f6:	89 81       	ldd	r24, Y+1	; 0x01
    12f8:	9a 81       	ldd	r25, Y+2	; 0x02
    12fa:	62 2f       	mov	r22, r18
    12fc:	09 95       	icall
    12fe:	0c c0       	rjmp	.+24     	; 0x1318 <_ZN5Print5printEmi+0x60>
    1300:	ef 81       	ldd	r30, Y+7	; 0x07
    1302:	89 81       	ldd	r24, Y+1	; 0x01
    1304:	9a 81       	ldd	r25, Y+2	; 0x02
    1306:	2b 81       	ldd	r18, Y+3	; 0x03
    1308:	3c 81       	ldd	r19, Y+4	; 0x04
    130a:	4d 81       	ldd	r20, Y+5	; 0x05
    130c:	5e 81       	ldd	r21, Y+6	; 0x06
    130e:	ba 01       	movw	r22, r20
    1310:	a9 01       	movw	r20, r18
    1312:	2e 2f       	mov	r18, r30
    1314:	0e 94 95 08 	call	0x112a	; 0x112a <_ZN5Print11printNumberEmh>
    1318:	28 96       	adiw	r28, 0x08	; 8
    131a:	0f b6       	in	r0, 0x3f	; 63
    131c:	f8 94       	cli
    131e:	de bf       	out	0x3e, r29	; 62
    1320:	0f be       	out	0x3f, r0	; 63
    1322:	cd bf       	out	0x3d, r28	; 61
    1324:	cf 91       	pop	r28
    1326:	df 91       	pop	r29
    1328:	08 95       	ret

0000132a <_ZN5Print5printEji>:
    132a:	df 93       	push	r29
    132c:	cf 93       	push	r28
    132e:	00 d0       	rcall	.+0      	; 0x1330 <_ZN5Print5printEji+0x6>
    1330:	00 d0       	rcall	.+0      	; 0x1332 <_ZN5Print5printEji+0x8>
    1332:	00 d0       	rcall	.+0      	; 0x1334 <_ZN5Print5printEji+0xa>
    1334:	cd b7       	in	r28, 0x3d	; 61
    1336:	de b7       	in	r29, 0x3e	; 62
    1338:	9a 83       	std	Y+2, r25	; 0x02
    133a:	89 83       	std	Y+1, r24	; 0x01
    133c:	7c 83       	std	Y+4, r23	; 0x04
    133e:	6b 83       	std	Y+3, r22	; 0x03
    1340:	5e 83       	std	Y+6, r21	; 0x06
    1342:	4d 83       	std	Y+5, r20	; 0x05
    1344:	8b 81       	ldd	r24, Y+3	; 0x03
    1346:	9c 81       	ldd	r25, Y+4	; 0x04
    1348:	9c 01       	movw	r18, r24
    134a:	40 e0       	ldi	r20, 0x00	; 0
    134c:	50 e0       	ldi	r21, 0x00	; 0
    134e:	89 81       	ldd	r24, Y+1	; 0x01
    1350:	9a 81       	ldd	r25, Y+2	; 0x02
    1352:	ed 81       	ldd	r30, Y+5	; 0x05
    1354:	fe 81       	ldd	r31, Y+6	; 0x06
    1356:	ba 01       	movw	r22, r20
    1358:	a9 01       	movw	r20, r18
    135a:	9f 01       	movw	r18, r30
    135c:	0e 94 5c 09 	call	0x12b8	; 0x12b8 <_ZN5Print5printEmi>
    1360:	26 96       	adiw	r28, 0x06	; 6
    1362:	0f b6       	in	r0, 0x3f	; 63
    1364:	f8 94       	cli
    1366:	de bf       	out	0x3e, r29	; 62
    1368:	0f be       	out	0x3f, r0	; 63
    136a:	cd bf       	out	0x3d, r28	; 61
    136c:	cf 91       	pop	r28
    136e:	df 91       	pop	r29
    1370:	08 95       	ret

00001372 <_ZN5Print5printEhi>:
    1372:	df 93       	push	r29
    1374:	cf 93       	push	r28
    1376:	00 d0       	rcall	.+0      	; 0x1378 <_ZN5Print5printEhi+0x6>
    1378:	00 d0       	rcall	.+0      	; 0x137a <_ZN5Print5printEhi+0x8>
    137a:	0f 92       	push	r0
    137c:	cd b7       	in	r28, 0x3d	; 61
    137e:	de b7       	in	r29, 0x3e	; 62
    1380:	9a 83       	std	Y+2, r25	; 0x02
    1382:	89 83       	std	Y+1, r24	; 0x01
    1384:	6b 83       	std	Y+3, r22	; 0x03
    1386:	5d 83       	std	Y+5, r21	; 0x05
    1388:	4c 83       	std	Y+4, r20	; 0x04
    138a:	8b 81       	ldd	r24, Y+3	; 0x03
    138c:	28 2f       	mov	r18, r24
    138e:	30 e0       	ldi	r19, 0x00	; 0
    1390:	40 e0       	ldi	r20, 0x00	; 0
    1392:	50 e0       	ldi	r21, 0x00	; 0
    1394:	89 81       	ldd	r24, Y+1	; 0x01
    1396:	9a 81       	ldd	r25, Y+2	; 0x02
    1398:	ec 81       	ldd	r30, Y+4	; 0x04
    139a:	fd 81       	ldd	r31, Y+5	; 0x05
    139c:	ba 01       	movw	r22, r20
    139e:	a9 01       	movw	r20, r18
    13a0:	9f 01       	movw	r18, r30
    13a2:	0e 94 5c 09 	call	0x12b8	; 0x12b8 <_ZN5Print5printEmi>
    13a6:	0f 90       	pop	r0
    13a8:	0f 90       	pop	r0
    13aa:	0f 90       	pop	r0
    13ac:	0f 90       	pop	r0
    13ae:	0f 90       	pop	r0
    13b0:	cf 91       	pop	r28
    13b2:	df 91       	pop	r29
    13b4:	08 95       	ret

000013b6 <_ZN5Print5printEli>:
    13b6:	df 93       	push	r29
    13b8:	cf 93       	push	r28
    13ba:	cd b7       	in	r28, 0x3d	; 61
    13bc:	de b7       	in	r29, 0x3e	; 62
    13be:	28 97       	sbiw	r28, 0x08	; 8
    13c0:	0f b6       	in	r0, 0x3f	; 63
    13c2:	f8 94       	cli
    13c4:	de bf       	out	0x3e, r29	; 62
    13c6:	0f be       	out	0x3f, r0	; 63
    13c8:	cd bf       	out	0x3d, r28	; 61
    13ca:	9a 83       	std	Y+2, r25	; 0x02
    13cc:	89 83       	std	Y+1, r24	; 0x01
    13ce:	4b 83       	std	Y+3, r20	; 0x03
    13d0:	5c 83       	std	Y+4, r21	; 0x04
    13d2:	6d 83       	std	Y+5, r22	; 0x05
    13d4:	7e 83       	std	Y+6, r23	; 0x06
    13d6:	38 87       	std	Y+8, r19	; 0x08
    13d8:	2f 83       	std	Y+7, r18	; 0x07
    13da:	8f 81       	ldd	r24, Y+7	; 0x07
    13dc:	98 85       	ldd	r25, Y+8	; 0x08
    13de:	00 97       	sbiw	r24, 0x00	; 0
    13e0:	71 f4       	brne	.+28     	; 0x13fe <_ZN5Print5printEli+0x48>
    13e2:	e9 81       	ldd	r30, Y+1	; 0x01
    13e4:	fa 81       	ldd	r31, Y+2	; 0x02
    13e6:	01 90       	ld	r0, Z+
    13e8:	f0 81       	ld	r31, Z
    13ea:	e0 2d       	mov	r30, r0
    13ec:	01 90       	ld	r0, Z+
    13ee:	f0 81       	ld	r31, Z
    13f0:	e0 2d       	mov	r30, r0
    13f2:	2b 81       	ldd	r18, Y+3	; 0x03
    13f4:	89 81       	ldd	r24, Y+1	; 0x01
    13f6:	9a 81       	ldd	r25, Y+2	; 0x02
    13f8:	62 2f       	mov	r22, r18
    13fa:	09 95       	icall
    13fc:	39 c0       	rjmp	.+114    	; 0x1470 <_ZN5Print5printEli+0xba>
    13fe:	8f 81       	ldd	r24, Y+7	; 0x07
    1400:	98 85       	ldd	r25, Y+8	; 0x08
    1402:	8a 30       	cpi	r24, 0x0A	; 10
    1404:	91 05       	cpc	r25, r1
    1406:	41 f5       	brne	.+80     	; 0x1458 <_ZN5Print5printEli+0xa2>
    1408:	8b 81       	ldd	r24, Y+3	; 0x03
    140a:	9c 81       	ldd	r25, Y+4	; 0x04
    140c:	ad 81       	ldd	r26, Y+5	; 0x05
    140e:	be 81       	ldd	r27, Y+6	; 0x06
    1410:	bb 23       	and	r27, r27
    1412:	b4 f4       	brge	.+44     	; 0x1440 <_ZN5Print5printEli+0x8a>
    1414:	89 81       	ldd	r24, Y+1	; 0x01
    1416:	9a 81       	ldd	r25, Y+2	; 0x02
    1418:	6d e2       	ldi	r22, 0x2D	; 45
    141a:	40 e0       	ldi	r20, 0x00	; 0
    141c:	50 e0       	ldi	r21, 0x00	; 0
    141e:	0e 94 67 0a 	call	0x14ce	; 0x14ce <_ZN5Print5printEci>
    1422:	8b 81       	ldd	r24, Y+3	; 0x03
    1424:	9c 81       	ldd	r25, Y+4	; 0x04
    1426:	ad 81       	ldd	r26, Y+5	; 0x05
    1428:	be 81       	ldd	r27, Y+6	; 0x06
    142a:	b0 95       	com	r27
    142c:	a0 95       	com	r26
    142e:	90 95       	com	r25
    1430:	81 95       	neg	r24
    1432:	9f 4f       	sbci	r25, 0xFF	; 255
    1434:	af 4f       	sbci	r26, 0xFF	; 255
    1436:	bf 4f       	sbci	r27, 0xFF	; 255
    1438:	8b 83       	std	Y+3, r24	; 0x03
    143a:	9c 83       	std	Y+4, r25	; 0x04
    143c:	ad 83       	std	Y+5, r26	; 0x05
    143e:	be 83       	std	Y+6, r27	; 0x06
    1440:	2b 81       	ldd	r18, Y+3	; 0x03
    1442:	3c 81       	ldd	r19, Y+4	; 0x04
    1444:	4d 81       	ldd	r20, Y+5	; 0x05
    1446:	5e 81       	ldd	r21, Y+6	; 0x06
    1448:	89 81       	ldd	r24, Y+1	; 0x01
    144a:	9a 81       	ldd	r25, Y+2	; 0x02
    144c:	ba 01       	movw	r22, r20
    144e:	a9 01       	movw	r20, r18
    1450:	2a e0       	ldi	r18, 0x0A	; 10
    1452:	0e 94 95 08 	call	0x112a	; 0x112a <_ZN5Print11printNumberEmh>
    1456:	0c c0       	rjmp	.+24     	; 0x1470 <_ZN5Print5printEli+0xba>
    1458:	2b 81       	ldd	r18, Y+3	; 0x03
    145a:	3c 81       	ldd	r19, Y+4	; 0x04
    145c:	4d 81       	ldd	r20, Y+5	; 0x05
    145e:	5e 81       	ldd	r21, Y+6	; 0x06
    1460:	ef 81       	ldd	r30, Y+7	; 0x07
    1462:	89 81       	ldd	r24, Y+1	; 0x01
    1464:	9a 81       	ldd	r25, Y+2	; 0x02
    1466:	ba 01       	movw	r22, r20
    1468:	a9 01       	movw	r20, r18
    146a:	2e 2f       	mov	r18, r30
    146c:	0e 94 95 08 	call	0x112a	; 0x112a <_ZN5Print11printNumberEmh>
    1470:	28 96       	adiw	r28, 0x08	; 8
    1472:	0f b6       	in	r0, 0x3f	; 63
    1474:	f8 94       	cli
    1476:	de bf       	out	0x3e, r29	; 62
    1478:	0f be       	out	0x3f, r0	; 63
    147a:	cd bf       	out	0x3d, r28	; 61
    147c:	cf 91       	pop	r28
    147e:	df 91       	pop	r29
    1480:	08 95       	ret

00001482 <_ZN5Print5printEii>:
    1482:	df 93       	push	r29
    1484:	cf 93       	push	r28
    1486:	00 d0       	rcall	.+0      	; 0x1488 <_ZN5Print5printEii+0x6>
    1488:	00 d0       	rcall	.+0      	; 0x148a <_ZN5Print5printEii+0x8>
    148a:	00 d0       	rcall	.+0      	; 0x148c <_ZN5Print5printEii+0xa>
    148c:	cd b7       	in	r28, 0x3d	; 61
    148e:	de b7       	in	r29, 0x3e	; 62
    1490:	9a 83       	std	Y+2, r25	; 0x02
    1492:	89 83       	std	Y+1, r24	; 0x01
    1494:	7c 83       	std	Y+4, r23	; 0x04
    1496:	6b 83       	std	Y+3, r22	; 0x03
    1498:	5e 83       	std	Y+6, r21	; 0x06
    149a:	4d 83       	std	Y+5, r20	; 0x05
    149c:	8b 81       	ldd	r24, Y+3	; 0x03
    149e:	9c 81       	ldd	r25, Y+4	; 0x04
    14a0:	9c 01       	movw	r18, r24
    14a2:	44 27       	eor	r20, r20
    14a4:	37 fd       	sbrc	r19, 7
    14a6:	40 95       	com	r20
    14a8:	54 2f       	mov	r21, r20
    14aa:	89 81       	ldd	r24, Y+1	; 0x01
    14ac:	9a 81       	ldd	r25, Y+2	; 0x02
    14ae:	ed 81       	ldd	r30, Y+5	; 0x05
    14b0:	fe 81       	ldd	r31, Y+6	; 0x06
    14b2:	ba 01       	movw	r22, r20
    14b4:	a9 01       	movw	r20, r18
    14b6:	9f 01       	movw	r18, r30
    14b8:	0e 94 db 09 	call	0x13b6	; 0x13b6 <_ZN5Print5printEli>
    14bc:	26 96       	adiw	r28, 0x06	; 6
    14be:	0f b6       	in	r0, 0x3f	; 63
    14c0:	f8 94       	cli
    14c2:	de bf       	out	0x3e, r29	; 62
    14c4:	0f be       	out	0x3f, r0	; 63
    14c6:	cd bf       	out	0x3d, r28	; 61
    14c8:	cf 91       	pop	r28
    14ca:	df 91       	pop	r29
    14cc:	08 95       	ret

000014ce <_ZN5Print5printEci>:
    14ce:	df 93       	push	r29
    14d0:	cf 93       	push	r28
    14d2:	00 d0       	rcall	.+0      	; 0x14d4 <_ZN5Print5printEci+0x6>
    14d4:	00 d0       	rcall	.+0      	; 0x14d6 <_ZN5Print5printEci+0x8>
    14d6:	0f 92       	push	r0
    14d8:	cd b7       	in	r28, 0x3d	; 61
    14da:	de b7       	in	r29, 0x3e	; 62
    14dc:	9a 83       	std	Y+2, r25	; 0x02
    14de:	89 83       	std	Y+1, r24	; 0x01
    14e0:	6b 83       	std	Y+3, r22	; 0x03
    14e2:	5d 83       	std	Y+5, r21	; 0x05
    14e4:	4c 83       	std	Y+4, r20	; 0x04
    14e6:	8b 81       	ldd	r24, Y+3	; 0x03
    14e8:	28 2f       	mov	r18, r24
    14ea:	30 e0       	ldi	r19, 0x00	; 0
    14ec:	40 e0       	ldi	r20, 0x00	; 0
    14ee:	50 e0       	ldi	r21, 0x00	; 0
    14f0:	89 81       	ldd	r24, Y+1	; 0x01
    14f2:	9a 81       	ldd	r25, Y+2	; 0x02
    14f4:	ec 81       	ldd	r30, Y+4	; 0x04
    14f6:	fd 81       	ldd	r31, Y+5	; 0x05
    14f8:	ba 01       	movw	r22, r20
    14fa:	a9 01       	movw	r20, r18
    14fc:	9f 01       	movw	r18, r30
    14fe:	0e 94 db 09 	call	0x13b6	; 0x13b6 <_ZN5Print5printEli>
    1502:	0f 90       	pop	r0
    1504:	0f 90       	pop	r0
    1506:	0f 90       	pop	r0
    1508:	0f 90       	pop	r0
    150a:	0f 90       	pop	r0
    150c:	cf 91       	pop	r28
    150e:	df 91       	pop	r29
    1510:	08 95       	ret

00001512 <_ZN5Print7printlnEv>:
    1512:	df 93       	push	r29
    1514:	cf 93       	push	r28
    1516:	00 d0       	rcall	.+0      	; 0x1518 <_ZN5Print7printlnEv+0x6>
    1518:	cd b7       	in	r28, 0x3d	; 61
    151a:	de b7       	in	r29, 0x3e	; 62
    151c:	9a 83       	std	Y+2, r25	; 0x02
    151e:	89 83       	std	Y+1, r24	; 0x01
    1520:	89 81       	ldd	r24, Y+1	; 0x01
    1522:	9a 81       	ldd	r25, Y+2	; 0x02
    1524:	6d e0       	ldi	r22, 0x0D	; 13
    1526:	40 e0       	ldi	r20, 0x00	; 0
    1528:	50 e0       	ldi	r21, 0x00	; 0
    152a:	0e 94 67 0a 	call	0x14ce	; 0x14ce <_ZN5Print5printEci>
    152e:	89 81       	ldd	r24, Y+1	; 0x01
    1530:	9a 81       	ldd	r25, Y+2	; 0x02
    1532:	6a e0       	ldi	r22, 0x0A	; 10
    1534:	40 e0       	ldi	r20, 0x00	; 0
    1536:	50 e0       	ldi	r21, 0x00	; 0
    1538:	0e 94 67 0a 	call	0x14ce	; 0x14ce <_ZN5Print5printEci>
    153c:	0f 90       	pop	r0
    153e:	0f 90       	pop	r0
    1540:	cf 91       	pop	r28
    1542:	df 91       	pop	r29
    1544:	08 95       	ret

00001546 <_ZN5Print7printlnEmi>:
    1546:	df 93       	push	r29
    1548:	cf 93       	push	r28
    154a:	cd b7       	in	r28, 0x3d	; 61
    154c:	de b7       	in	r29, 0x3e	; 62
    154e:	28 97       	sbiw	r28, 0x08	; 8
    1550:	0f b6       	in	r0, 0x3f	; 63
    1552:	f8 94       	cli
    1554:	de bf       	out	0x3e, r29	; 62
    1556:	0f be       	out	0x3f, r0	; 63
    1558:	cd bf       	out	0x3d, r28	; 61
    155a:	9a 83       	std	Y+2, r25	; 0x02
    155c:	89 83       	std	Y+1, r24	; 0x01
    155e:	4b 83       	std	Y+3, r20	; 0x03
    1560:	5c 83       	std	Y+4, r21	; 0x04
    1562:	6d 83       	std	Y+5, r22	; 0x05
    1564:	7e 83       	std	Y+6, r23	; 0x06
    1566:	38 87       	std	Y+8, r19	; 0x08
    1568:	2f 83       	std	Y+7, r18	; 0x07
    156a:	89 81       	ldd	r24, Y+1	; 0x01
    156c:	9a 81       	ldd	r25, Y+2	; 0x02
    156e:	2b 81       	ldd	r18, Y+3	; 0x03
    1570:	3c 81       	ldd	r19, Y+4	; 0x04
    1572:	4d 81       	ldd	r20, Y+5	; 0x05
    1574:	5e 81       	ldd	r21, Y+6	; 0x06
    1576:	ef 81       	ldd	r30, Y+7	; 0x07
    1578:	f8 85       	ldd	r31, Y+8	; 0x08
    157a:	ba 01       	movw	r22, r20
    157c:	a9 01       	movw	r20, r18
    157e:	9f 01       	movw	r18, r30
    1580:	0e 94 5c 09 	call	0x12b8	; 0x12b8 <_ZN5Print5printEmi>
    1584:	89 81       	ldd	r24, Y+1	; 0x01
    1586:	9a 81       	ldd	r25, Y+2	; 0x02
    1588:	0e 94 89 0a 	call	0x1512	; 0x1512 <_ZN5Print7printlnEv>
    158c:	28 96       	adiw	r28, 0x08	; 8
    158e:	0f b6       	in	r0, 0x3f	; 63
    1590:	f8 94       	cli
    1592:	de bf       	out	0x3e, r29	; 62
    1594:	0f be       	out	0x3f, r0	; 63
    1596:	cd bf       	out	0x3d, r28	; 61
    1598:	cf 91       	pop	r28
    159a:	df 91       	pop	r29
    159c:	08 95       	ret

0000159e <_ZN5Print7printlnEji>:
    159e:	df 93       	push	r29
    15a0:	cf 93       	push	r28
    15a2:	00 d0       	rcall	.+0      	; 0x15a4 <_ZN5Print7printlnEji+0x6>
    15a4:	00 d0       	rcall	.+0      	; 0x15a6 <_ZN5Print7printlnEji+0x8>
    15a6:	00 d0       	rcall	.+0      	; 0x15a8 <_ZN5Print7printlnEji+0xa>
    15a8:	cd b7       	in	r28, 0x3d	; 61
    15aa:	de b7       	in	r29, 0x3e	; 62
    15ac:	9a 83       	std	Y+2, r25	; 0x02
    15ae:	89 83       	std	Y+1, r24	; 0x01
    15b0:	7c 83       	std	Y+4, r23	; 0x04
    15b2:	6b 83       	std	Y+3, r22	; 0x03
    15b4:	5e 83       	std	Y+6, r21	; 0x06
    15b6:	4d 83       	std	Y+5, r20	; 0x05
    15b8:	89 81       	ldd	r24, Y+1	; 0x01
    15ba:	9a 81       	ldd	r25, Y+2	; 0x02
    15bc:	2b 81       	ldd	r18, Y+3	; 0x03
    15be:	3c 81       	ldd	r19, Y+4	; 0x04
    15c0:	4d 81       	ldd	r20, Y+5	; 0x05
    15c2:	5e 81       	ldd	r21, Y+6	; 0x06
    15c4:	b9 01       	movw	r22, r18
    15c6:	0e 94 95 09 	call	0x132a	; 0x132a <_ZN5Print5printEji>
    15ca:	89 81       	ldd	r24, Y+1	; 0x01
    15cc:	9a 81       	ldd	r25, Y+2	; 0x02
    15ce:	0e 94 89 0a 	call	0x1512	; 0x1512 <_ZN5Print7printlnEv>
    15d2:	26 96       	adiw	r28, 0x06	; 6
    15d4:	0f b6       	in	r0, 0x3f	; 63
    15d6:	f8 94       	cli
    15d8:	de bf       	out	0x3e, r29	; 62
    15da:	0f be       	out	0x3f, r0	; 63
    15dc:	cd bf       	out	0x3d, r28	; 61
    15de:	cf 91       	pop	r28
    15e0:	df 91       	pop	r29
    15e2:	08 95       	ret

000015e4 <_ZN5Print7printlnEii>:
    15e4:	df 93       	push	r29
    15e6:	cf 93       	push	r28
    15e8:	00 d0       	rcall	.+0      	; 0x15ea <_ZN5Print7printlnEii+0x6>
    15ea:	00 d0       	rcall	.+0      	; 0x15ec <_ZN5Print7printlnEii+0x8>
    15ec:	00 d0       	rcall	.+0      	; 0x15ee <_ZN5Print7printlnEii+0xa>
    15ee:	cd b7       	in	r28, 0x3d	; 61
    15f0:	de b7       	in	r29, 0x3e	; 62
    15f2:	9a 83       	std	Y+2, r25	; 0x02
    15f4:	89 83       	std	Y+1, r24	; 0x01
    15f6:	7c 83       	std	Y+4, r23	; 0x04
    15f8:	6b 83       	std	Y+3, r22	; 0x03
    15fa:	5e 83       	std	Y+6, r21	; 0x06
    15fc:	4d 83       	std	Y+5, r20	; 0x05
    15fe:	89 81       	ldd	r24, Y+1	; 0x01
    1600:	9a 81       	ldd	r25, Y+2	; 0x02
    1602:	2b 81       	ldd	r18, Y+3	; 0x03
    1604:	3c 81       	ldd	r19, Y+4	; 0x04
    1606:	4d 81       	ldd	r20, Y+5	; 0x05
    1608:	5e 81       	ldd	r21, Y+6	; 0x06
    160a:	b9 01       	movw	r22, r18
    160c:	0e 94 41 0a 	call	0x1482	; 0x1482 <_ZN5Print5printEii>
    1610:	89 81       	ldd	r24, Y+1	; 0x01
    1612:	9a 81       	ldd	r25, Y+2	; 0x02
    1614:	0e 94 89 0a 	call	0x1512	; 0x1512 <_ZN5Print7printlnEv>
    1618:	26 96       	adiw	r28, 0x06	; 6
    161a:	0f b6       	in	r0, 0x3f	; 63
    161c:	f8 94       	cli
    161e:	de bf       	out	0x3e, r29	; 62
    1620:	0f be       	out	0x3f, r0	; 63
    1622:	cd bf       	out	0x3d, r28	; 61
    1624:	cf 91       	pop	r28
    1626:	df 91       	pop	r29
    1628:	08 95       	ret

0000162a <_ZN5Print7printlnEhi>:
    162a:	df 93       	push	r29
    162c:	cf 93       	push	r28
    162e:	00 d0       	rcall	.+0      	; 0x1630 <_ZN5Print7printlnEhi+0x6>
    1630:	00 d0       	rcall	.+0      	; 0x1632 <_ZN5Print7printlnEhi+0x8>
    1632:	0f 92       	push	r0
    1634:	cd b7       	in	r28, 0x3d	; 61
    1636:	de b7       	in	r29, 0x3e	; 62
    1638:	9a 83       	std	Y+2, r25	; 0x02
    163a:	89 83       	std	Y+1, r24	; 0x01
    163c:	6b 83       	std	Y+3, r22	; 0x03
    163e:	5d 83       	std	Y+5, r21	; 0x05
    1640:	4c 83       	std	Y+4, r20	; 0x04
    1642:	89 81       	ldd	r24, Y+1	; 0x01
    1644:	9a 81       	ldd	r25, Y+2	; 0x02
    1646:	2c 81       	ldd	r18, Y+4	; 0x04
    1648:	3d 81       	ldd	r19, Y+5	; 0x05
    164a:	6b 81       	ldd	r22, Y+3	; 0x03
    164c:	a9 01       	movw	r20, r18
    164e:	0e 94 b9 09 	call	0x1372	; 0x1372 <_ZN5Print5printEhi>
    1652:	89 81       	ldd	r24, Y+1	; 0x01
    1654:	9a 81       	ldd	r25, Y+2	; 0x02
    1656:	0e 94 89 0a 	call	0x1512	; 0x1512 <_ZN5Print7printlnEv>
    165a:	0f 90       	pop	r0
    165c:	0f 90       	pop	r0
    165e:	0f 90       	pop	r0
    1660:	0f 90       	pop	r0
    1662:	0f 90       	pop	r0
    1664:	cf 91       	pop	r28
    1666:	df 91       	pop	r29
    1668:	08 95       	ret

0000166a <_ZN5Print7printlnEPKc>:
    166a:	df 93       	push	r29
    166c:	cf 93       	push	r28
    166e:	00 d0       	rcall	.+0      	; 0x1670 <_ZN5Print7printlnEPKc+0x6>
    1670:	00 d0       	rcall	.+0      	; 0x1672 <_ZN5Print7printlnEPKc+0x8>
    1672:	cd b7       	in	r28, 0x3d	; 61
    1674:	de b7       	in	r29, 0x3e	; 62
    1676:	9a 83       	std	Y+2, r25	; 0x02
    1678:	89 83       	std	Y+1, r24	; 0x01
    167a:	7c 83       	std	Y+4, r23	; 0x04
    167c:	6b 83       	std	Y+3, r22	; 0x03
    167e:	89 81       	ldd	r24, Y+1	; 0x01
    1680:	9a 81       	ldd	r25, Y+2	; 0x02
    1682:	2b 81       	ldd	r18, Y+3	; 0x03
    1684:	3c 81       	ldd	r19, Y+4	; 0x04
    1686:	b9 01       	movw	r22, r18
    1688:	0e 94 75 08 	call	0x10ea	; 0x10ea <_ZN5Print5printEPKc>
    168c:	89 81       	ldd	r24, Y+1	; 0x01
    168e:	9a 81       	ldd	r25, Y+2	; 0x02
    1690:	0e 94 89 0a 	call	0x1512	; 0x1512 <_ZN5Print7printlnEv>
    1694:	0f 90       	pop	r0
    1696:	0f 90       	pop	r0
    1698:	0f 90       	pop	r0
    169a:	0f 90       	pop	r0
    169c:	cf 91       	pop	r28
    169e:	df 91       	pop	r29
    16a0:	08 95       	ret

000016a2 <_ZN5Print7printlnEci>:
    16a2:	df 93       	push	r29
    16a4:	cf 93       	push	r28
    16a6:	00 d0       	rcall	.+0      	; 0x16a8 <_ZN5Print7printlnEci+0x6>
    16a8:	00 d0       	rcall	.+0      	; 0x16aa <_ZN5Print7printlnEci+0x8>
    16aa:	0f 92       	push	r0
    16ac:	cd b7       	in	r28, 0x3d	; 61
    16ae:	de b7       	in	r29, 0x3e	; 62
    16b0:	9a 83       	std	Y+2, r25	; 0x02
    16b2:	89 83       	std	Y+1, r24	; 0x01
    16b4:	6b 83       	std	Y+3, r22	; 0x03
    16b6:	5d 83       	std	Y+5, r21	; 0x05
    16b8:	4c 83       	std	Y+4, r20	; 0x04
    16ba:	89 81       	ldd	r24, Y+1	; 0x01
    16bc:	9a 81       	ldd	r25, Y+2	; 0x02
    16be:	2c 81       	ldd	r18, Y+4	; 0x04
    16c0:	3d 81       	ldd	r19, Y+5	; 0x05
    16c2:	6b 81       	ldd	r22, Y+3	; 0x03
    16c4:	a9 01       	movw	r20, r18
    16c6:	0e 94 67 0a 	call	0x14ce	; 0x14ce <_ZN5Print5printEci>
    16ca:	89 81       	ldd	r24, Y+1	; 0x01
    16cc:	9a 81       	ldd	r25, Y+2	; 0x02
    16ce:	0e 94 89 0a 	call	0x1512	; 0x1512 <_ZN5Print7printlnEv>
    16d2:	0f 90       	pop	r0
    16d4:	0f 90       	pop	r0
    16d6:	0f 90       	pop	r0
    16d8:	0f 90       	pop	r0
    16da:	0f 90       	pop	r0
    16dc:	cf 91       	pop	r28
    16de:	df 91       	pop	r29
    16e0:	08 95       	ret

000016e2 <_ZN5Print7printlnEli>:
    16e2:	df 93       	push	r29
    16e4:	cf 93       	push	r28
    16e6:	cd b7       	in	r28, 0x3d	; 61
    16e8:	de b7       	in	r29, 0x3e	; 62
    16ea:	28 97       	sbiw	r28, 0x08	; 8
    16ec:	0f b6       	in	r0, 0x3f	; 63
    16ee:	f8 94       	cli
    16f0:	de bf       	out	0x3e, r29	; 62
    16f2:	0f be       	out	0x3f, r0	; 63
    16f4:	cd bf       	out	0x3d, r28	; 61
    16f6:	9a 83       	std	Y+2, r25	; 0x02
    16f8:	89 83       	std	Y+1, r24	; 0x01
    16fa:	4b 83       	std	Y+3, r20	; 0x03
    16fc:	5c 83       	std	Y+4, r21	; 0x04
    16fe:	6d 83       	std	Y+5, r22	; 0x05
    1700:	7e 83       	std	Y+6, r23	; 0x06
    1702:	38 87       	std	Y+8, r19	; 0x08
    1704:	2f 83       	std	Y+7, r18	; 0x07
    1706:	89 81       	ldd	r24, Y+1	; 0x01
    1708:	9a 81       	ldd	r25, Y+2	; 0x02
    170a:	2b 81       	ldd	r18, Y+3	; 0x03
    170c:	3c 81       	ldd	r19, Y+4	; 0x04
    170e:	4d 81       	ldd	r20, Y+5	; 0x05
    1710:	5e 81       	ldd	r21, Y+6	; 0x06
    1712:	ef 81       	ldd	r30, Y+7	; 0x07
    1714:	f8 85       	ldd	r31, Y+8	; 0x08
    1716:	ba 01       	movw	r22, r20
    1718:	a9 01       	movw	r20, r18
    171a:	9f 01       	movw	r18, r30
    171c:	0e 94 db 09 	call	0x13b6	; 0x13b6 <_ZN5Print5printEli>
    1720:	89 81       	ldd	r24, Y+1	; 0x01
    1722:	9a 81       	ldd	r25, Y+2	; 0x02
    1724:	0e 94 89 0a 	call	0x1512	; 0x1512 <_ZN5Print7printlnEv>
    1728:	28 96       	adiw	r28, 0x08	; 8
    172a:	0f b6       	in	r0, 0x3f	; 63
    172c:	f8 94       	cli
    172e:	de bf       	out	0x3e, r29	; 62
    1730:	0f be       	out	0x3f, r0	; 63
    1732:	cd bf       	out	0x3d, r28	; 61
    1734:	cf 91       	pop	r28
    1736:	df 91       	pop	r29
    1738:	08 95       	ret

0000173a <_ZN5Print10printFloatEdh>:
    173a:	df 93       	push	r29
    173c:	cf 93       	push	r28
    173e:	cd b7       	in	r28, 0x3d	; 61
    1740:	de b7       	in	r29, 0x3e	; 62
    1742:	67 97       	sbiw	r28, 0x17	; 23
    1744:	0f b6       	in	r0, 0x3f	; 63
    1746:	f8 94       	cli
    1748:	de bf       	out	0x3e, r29	; 62
    174a:	0f be       	out	0x3f, r0	; 63
    174c:	cd bf       	out	0x3d, r28	; 61
    174e:	99 8b       	std	Y+17, r25	; 0x11
    1750:	88 8b       	std	Y+16, r24	; 0x10
    1752:	4a 8b       	std	Y+18, r20	; 0x12
    1754:	5b 8b       	std	Y+19, r21	; 0x13
    1756:	6c 8b       	std	Y+20, r22	; 0x14
    1758:	7d 8b       	std	Y+21, r23	; 0x15
    175a:	2e 8b       	std	Y+22, r18	; 0x16
    175c:	6a 89       	ldd	r22, Y+18	; 0x12
    175e:	7b 89       	ldd	r23, Y+19	; 0x13
    1760:	8c 89       	ldd	r24, Y+20	; 0x14
    1762:	9d 89       	ldd	r25, Y+21	; 0x15
    1764:	20 e0       	ldi	r18, 0x00	; 0
    1766:	30 e0       	ldi	r19, 0x00	; 0
    1768:	40 e0       	ldi	r20, 0x00	; 0
    176a:	50 e0       	ldi	r21, 0x00	; 0
    176c:	0e 94 fe 21 	call	0x43fc	; 0x43fc <__ltsf2>
    1770:	88 23       	and	r24, r24
    1772:	84 f4       	brge	.+32     	; 0x1794 <_ZN5Print10printFloatEdh+0x5a>
    1774:	88 89       	ldd	r24, Y+16	; 0x10
    1776:	99 89       	ldd	r25, Y+17	; 0x11
    1778:	6d e2       	ldi	r22, 0x2D	; 45
    177a:	40 e0       	ldi	r20, 0x00	; 0
    177c:	50 e0       	ldi	r21, 0x00	; 0
    177e:	0e 94 67 0a 	call	0x14ce	; 0x14ce <_ZN5Print5printEci>
    1782:	8a 89       	ldd	r24, Y+18	; 0x12
    1784:	9b 89       	ldd	r25, Y+19	; 0x13
    1786:	ac 89       	ldd	r26, Y+20	; 0x14
    1788:	bd 89       	ldd	r27, Y+21	; 0x15
    178a:	b0 58       	subi	r27, 0x80	; 128
    178c:	8a 8b       	std	Y+18, r24	; 0x12
    178e:	9b 8b       	std	Y+19, r25	; 0x13
    1790:	ac 8b       	std	Y+20, r26	; 0x14
    1792:	bd 8b       	std	Y+21, r27	; 0x15
    1794:	80 e0       	ldi	r24, 0x00	; 0
    1796:	90 e0       	ldi	r25, 0x00	; 0
    1798:	a0 e0       	ldi	r26, 0x00	; 0
    179a:	bf e3       	ldi	r27, 0x3F	; 63
    179c:	8c 87       	std	Y+12, r24	; 0x0c
    179e:	9d 87       	std	Y+13, r25	; 0x0d
    17a0:	ae 87       	std	Y+14, r26	; 0x0e
    17a2:	bf 87       	std	Y+15, r27	; 0x0f
    17a4:	1b 82       	std	Y+3, r1	; 0x03
    17a6:	13 c0       	rjmp	.+38     	; 0x17ce <_ZN5Print10printFloatEdh+0x94>
    17a8:	6c 85       	ldd	r22, Y+12	; 0x0c
    17aa:	7d 85       	ldd	r23, Y+13	; 0x0d
    17ac:	8e 85       	ldd	r24, Y+14	; 0x0e
    17ae:	9f 85       	ldd	r25, Y+15	; 0x0f
    17b0:	20 e0       	ldi	r18, 0x00	; 0
    17b2:	30 e0       	ldi	r19, 0x00	; 0
    17b4:	40 e2       	ldi	r20, 0x20	; 32
    17b6:	51 e4       	ldi	r21, 0x41	; 65
    17b8:	0e 94 22 21 	call	0x4244	; 0x4244 <__divsf3>
    17bc:	dc 01       	movw	r26, r24
    17be:	cb 01       	movw	r24, r22
    17c0:	8c 87       	std	Y+12, r24	; 0x0c
    17c2:	9d 87       	std	Y+13, r25	; 0x0d
    17c4:	ae 87       	std	Y+14, r26	; 0x0e
    17c6:	bf 87       	std	Y+15, r27	; 0x0f
    17c8:	8b 81       	ldd	r24, Y+3	; 0x03
    17ca:	8f 5f       	subi	r24, 0xFF	; 255
    17cc:	8b 83       	std	Y+3, r24	; 0x03
    17ce:	9b 81       	ldd	r25, Y+3	; 0x03
    17d0:	8e 89       	ldd	r24, Y+22	; 0x16
    17d2:	98 17       	cp	r25, r24
    17d4:	48 f3       	brcs	.-46     	; 0x17a8 <_ZN5Print10printFloatEdh+0x6e>
    17d6:	6a 89       	ldd	r22, Y+18	; 0x12
    17d8:	7b 89       	ldd	r23, Y+19	; 0x13
    17da:	8c 89       	ldd	r24, Y+20	; 0x14
    17dc:	9d 89       	ldd	r25, Y+21	; 0x15
    17de:	2c 85       	ldd	r18, Y+12	; 0x0c
    17e0:	3d 85       	ldd	r19, Y+13	; 0x0d
    17e2:	4e 85       	ldd	r20, Y+14	; 0x0e
    17e4:	5f 85       	ldd	r21, Y+15	; 0x0f
    17e6:	0e 94 fb 1f 	call	0x3ff6	; 0x3ff6 <__addsf3>
    17ea:	dc 01       	movw	r26, r24
    17ec:	cb 01       	movw	r24, r22
    17ee:	8a 8b       	std	Y+18, r24	; 0x12
    17f0:	9b 8b       	std	Y+19, r25	; 0x13
    17f2:	ac 8b       	std	Y+20, r26	; 0x14
    17f4:	bd 8b       	std	Y+21, r27	; 0x15
    17f6:	6a 89       	ldd	r22, Y+18	; 0x12
    17f8:	7b 89       	ldd	r23, Y+19	; 0x13
    17fa:	8c 89       	ldd	r24, Y+20	; 0x14
    17fc:	9d 89       	ldd	r25, Y+21	; 0x15
    17fe:	0e 94 52 1e 	call	0x3ca4	; 0x3ca4 <__fixunssfsi>
    1802:	dc 01       	movw	r26, r24
    1804:	cb 01       	movw	r24, r22
    1806:	88 87       	std	Y+8, r24	; 0x08
    1808:	99 87       	std	Y+9, r25	; 0x09
    180a:	aa 87       	std	Y+10, r26	; 0x0a
    180c:	bb 87       	std	Y+11, r27	; 0x0b
    180e:	68 85       	ldd	r22, Y+8	; 0x08
    1810:	79 85       	ldd	r23, Y+9	; 0x09
    1812:	8a 85       	ldd	r24, Y+10	; 0x0a
    1814:	9b 85       	ldd	r25, Y+11	; 0x0b
    1816:	0e 94 e0 22 	call	0x45c0	; 0x45c0 <__floatunsisf>
    181a:	9b 01       	movw	r18, r22
    181c:	ac 01       	movw	r20, r24
    181e:	6a 89       	ldd	r22, Y+18	; 0x12
    1820:	7b 89       	ldd	r23, Y+19	; 0x13
    1822:	8c 89       	ldd	r24, Y+20	; 0x14
    1824:	9d 89       	ldd	r25, Y+21	; 0x15
    1826:	0e 94 ca 1f 	call	0x3f94	; 0x3f94 <__subsf3>
    182a:	dc 01       	movw	r26, r24
    182c:	cb 01       	movw	r24, r22
    182e:	8c 83       	std	Y+4, r24	; 0x04
    1830:	9d 83       	std	Y+5, r25	; 0x05
    1832:	ae 83       	std	Y+6, r26	; 0x06
    1834:	bf 83       	std	Y+7, r27	; 0x07
    1836:	88 89       	ldd	r24, Y+16	; 0x10
    1838:	99 89       	ldd	r25, Y+17	; 0x11
    183a:	28 85       	ldd	r18, Y+8	; 0x08
    183c:	39 85       	ldd	r19, Y+9	; 0x09
    183e:	4a 85       	ldd	r20, Y+10	; 0x0a
    1840:	5b 85       	ldd	r21, Y+11	; 0x0b
    1842:	ba 01       	movw	r22, r20
    1844:	a9 01       	movw	r20, r18
    1846:	2a e0       	ldi	r18, 0x0A	; 10
    1848:	30 e0       	ldi	r19, 0x00	; 0
    184a:	0e 94 5c 09 	call	0x12b8	; 0x12b8 <_ZN5Print5printEmi>
    184e:	8e 89       	ldd	r24, Y+22	; 0x16
    1850:	88 23       	and	r24, r24
    1852:	09 f4       	brne	.+2      	; 0x1856 <_ZN5Print10printFloatEdh+0x11c>
    1854:	43 c0       	rjmp	.+134    	; 0x18dc <_ZN5Print10printFloatEdh+0x1a2>
    1856:	88 89       	ldd	r24, Y+16	; 0x10
    1858:	99 89       	ldd	r25, Y+17	; 0x11
    185a:	26 e1       	ldi	r18, 0x16	; 22
    185c:	31 e0       	ldi	r19, 0x01	; 1
    185e:	b9 01       	movw	r22, r18
    1860:	0e 94 75 08 	call	0x10ea	; 0x10ea <_ZN5Print5printEPKc>
    1864:	3b c0       	rjmp	.+118    	; 0x18dc <_ZN5Print10printFloatEdh+0x1a2>
    1866:	6c 81       	ldd	r22, Y+4	; 0x04
    1868:	7d 81       	ldd	r23, Y+5	; 0x05
    186a:	8e 81       	ldd	r24, Y+6	; 0x06
    186c:	9f 81       	ldd	r25, Y+7	; 0x07
    186e:	20 e0       	ldi	r18, 0x00	; 0
    1870:	30 e0       	ldi	r19, 0x00	; 0
    1872:	40 e2       	ldi	r20, 0x20	; 32
    1874:	51 e4       	ldi	r21, 0x41	; 65
    1876:	0e 94 28 20 	call	0x4050	; 0x4050 <__mulsf3>
    187a:	dc 01       	movw	r26, r24
    187c:	cb 01       	movw	r24, r22
    187e:	8c 83       	std	Y+4, r24	; 0x04
    1880:	9d 83       	std	Y+5, r25	; 0x05
    1882:	ae 83       	std	Y+6, r26	; 0x06
    1884:	bf 83       	std	Y+7, r27	; 0x07
    1886:	6c 81       	ldd	r22, Y+4	; 0x04
    1888:	7d 81       	ldd	r23, Y+5	; 0x05
    188a:	8e 81       	ldd	r24, Y+6	; 0x06
    188c:	9f 81       	ldd	r25, Y+7	; 0x07
    188e:	0e 94 8c 22 	call	0x4518	; 0x4518 <__fixsfsi>
    1892:	dc 01       	movw	r26, r24
    1894:	cb 01       	movw	r24, r22
    1896:	9a 83       	std	Y+2, r25	; 0x02
    1898:	89 83       	std	Y+1, r24	; 0x01
    189a:	88 89       	ldd	r24, Y+16	; 0x10
    189c:	99 89       	ldd	r25, Y+17	; 0x11
    189e:	29 81       	ldd	r18, Y+1	; 0x01
    18a0:	3a 81       	ldd	r19, Y+2	; 0x02
    18a2:	b9 01       	movw	r22, r18
    18a4:	4a e0       	ldi	r20, 0x0A	; 10
    18a6:	50 e0       	ldi	r21, 0x00	; 0
    18a8:	0e 94 41 0a 	call	0x1482	; 0x1482 <_ZN5Print5printEii>
    18ac:	89 81       	ldd	r24, Y+1	; 0x01
    18ae:	9a 81       	ldd	r25, Y+2	; 0x02
    18b0:	aa 27       	eor	r26, r26
    18b2:	97 fd       	sbrc	r25, 7
    18b4:	a0 95       	com	r26
    18b6:	ba 2f       	mov	r27, r26
    18b8:	bc 01       	movw	r22, r24
    18ba:	cd 01       	movw	r24, r26
    18bc:	0e 94 2e 22 	call	0x445c	; 0x445c <__floatsisf>
    18c0:	9b 01       	movw	r18, r22
    18c2:	ac 01       	movw	r20, r24
    18c4:	6c 81       	ldd	r22, Y+4	; 0x04
    18c6:	7d 81       	ldd	r23, Y+5	; 0x05
    18c8:	8e 81       	ldd	r24, Y+6	; 0x06
    18ca:	9f 81       	ldd	r25, Y+7	; 0x07
    18cc:	0e 94 ca 1f 	call	0x3f94	; 0x3f94 <__subsf3>
    18d0:	dc 01       	movw	r26, r24
    18d2:	cb 01       	movw	r24, r22
    18d4:	8c 83       	std	Y+4, r24	; 0x04
    18d6:	9d 83       	std	Y+5, r25	; 0x05
    18d8:	ae 83       	std	Y+6, r26	; 0x06
    18da:	bf 83       	std	Y+7, r27	; 0x07
    18dc:	8e 89       	ldd	r24, Y+22	; 0x16
    18de:	8f 8b       	std	Y+23, r24	; 0x17
    18e0:	8f 89       	ldd	r24, Y+23	; 0x17
    18e2:	88 23       	and	r24, r24
    18e4:	11 f0       	breq	.+4      	; 0x18ea <_ZN5Print10printFloatEdh+0x1b0>
    18e6:	81 e0       	ldi	r24, 0x01	; 1
    18e8:	8f 8b       	std	Y+23, r24	; 0x17
    18ea:	8f 89       	ldd	r24, Y+23	; 0x17
    18ec:	9e 89       	ldd	r25, Y+22	; 0x16
    18ee:	91 50       	subi	r25, 0x01	; 1
    18f0:	9e 8b       	std	Y+22, r25	; 0x16
    18f2:	88 23       	and	r24, r24
    18f4:	09 f0       	breq	.+2      	; 0x18f8 <_ZN5Print10printFloatEdh+0x1be>
    18f6:	b7 cf       	rjmp	.-146    	; 0x1866 <_ZN5Print10printFloatEdh+0x12c>
    18f8:	67 96       	adiw	r28, 0x17	; 23
    18fa:	0f b6       	in	r0, 0x3f	; 63
    18fc:	f8 94       	cli
    18fe:	de bf       	out	0x3e, r29	; 62
    1900:	0f be       	out	0x3f, r0	; 63
    1902:	cd bf       	out	0x3d, r28	; 61
    1904:	cf 91       	pop	r28
    1906:	df 91       	pop	r29
    1908:	08 95       	ret

0000190a <_ZN5Print5printEdi>:
    190a:	df 93       	push	r29
    190c:	cf 93       	push	r28
    190e:	cd b7       	in	r28, 0x3d	; 61
    1910:	de b7       	in	r29, 0x3e	; 62
    1912:	28 97       	sbiw	r28, 0x08	; 8
    1914:	0f b6       	in	r0, 0x3f	; 63
    1916:	f8 94       	cli
    1918:	de bf       	out	0x3e, r29	; 62
    191a:	0f be       	out	0x3f, r0	; 63
    191c:	cd bf       	out	0x3d, r28	; 61
    191e:	9a 83       	std	Y+2, r25	; 0x02
    1920:	89 83       	std	Y+1, r24	; 0x01
    1922:	4b 83       	std	Y+3, r20	; 0x03
    1924:	5c 83       	std	Y+4, r21	; 0x04
    1926:	6d 83       	std	Y+5, r22	; 0x05
    1928:	7e 83       	std	Y+6, r23	; 0x06
    192a:	38 87       	std	Y+8, r19	; 0x08
    192c:	2f 83       	std	Y+7, r18	; 0x07
    192e:	ef 81       	ldd	r30, Y+7	; 0x07
    1930:	89 81       	ldd	r24, Y+1	; 0x01
    1932:	9a 81       	ldd	r25, Y+2	; 0x02
    1934:	2b 81       	ldd	r18, Y+3	; 0x03
    1936:	3c 81       	ldd	r19, Y+4	; 0x04
    1938:	4d 81       	ldd	r20, Y+5	; 0x05
    193a:	5e 81       	ldd	r21, Y+6	; 0x06
    193c:	ba 01       	movw	r22, r20
    193e:	a9 01       	movw	r20, r18
    1940:	2e 2f       	mov	r18, r30
    1942:	0e 94 9d 0b 	call	0x173a	; 0x173a <_ZN5Print10printFloatEdh>
    1946:	28 96       	adiw	r28, 0x08	; 8
    1948:	0f b6       	in	r0, 0x3f	; 63
    194a:	f8 94       	cli
    194c:	de bf       	out	0x3e, r29	; 62
    194e:	0f be       	out	0x3f, r0	; 63
    1950:	cd bf       	out	0x3d, r28	; 61
    1952:	cf 91       	pop	r28
    1954:	df 91       	pop	r29
    1956:	08 95       	ret

00001958 <_ZN5Print7printlnEdi>:
    1958:	df 93       	push	r29
    195a:	cf 93       	push	r28
    195c:	cd b7       	in	r28, 0x3d	; 61
    195e:	de b7       	in	r29, 0x3e	; 62
    1960:	28 97       	sbiw	r28, 0x08	; 8
    1962:	0f b6       	in	r0, 0x3f	; 63
    1964:	f8 94       	cli
    1966:	de bf       	out	0x3e, r29	; 62
    1968:	0f be       	out	0x3f, r0	; 63
    196a:	cd bf       	out	0x3d, r28	; 61
    196c:	9a 83       	std	Y+2, r25	; 0x02
    196e:	89 83       	std	Y+1, r24	; 0x01
    1970:	4b 83       	std	Y+3, r20	; 0x03
    1972:	5c 83       	std	Y+4, r21	; 0x04
    1974:	6d 83       	std	Y+5, r22	; 0x05
    1976:	7e 83       	std	Y+6, r23	; 0x06
    1978:	38 87       	std	Y+8, r19	; 0x08
    197a:	2f 83       	std	Y+7, r18	; 0x07
    197c:	89 81       	ldd	r24, Y+1	; 0x01
    197e:	9a 81       	ldd	r25, Y+2	; 0x02
    1980:	2b 81       	ldd	r18, Y+3	; 0x03
    1982:	3c 81       	ldd	r19, Y+4	; 0x04
    1984:	4d 81       	ldd	r20, Y+5	; 0x05
    1986:	5e 81       	ldd	r21, Y+6	; 0x06
    1988:	ef 81       	ldd	r30, Y+7	; 0x07
    198a:	f8 85       	ldd	r31, Y+8	; 0x08
    198c:	ba 01       	movw	r22, r20
    198e:	a9 01       	movw	r20, r18
    1990:	9f 01       	movw	r18, r30
    1992:	0e 94 85 0c 	call	0x190a	; 0x190a <_ZN5Print5printEdi>
    1996:	89 81       	ldd	r24, Y+1	; 0x01
    1998:	9a 81       	ldd	r25, Y+2	; 0x02
    199a:	0e 94 89 0a 	call	0x1512	; 0x1512 <_ZN5Print7printlnEv>
    199e:	28 96       	adiw	r28, 0x08	; 8
    19a0:	0f b6       	in	r0, 0x3f	; 63
    19a2:	f8 94       	cli
    19a4:	de bf       	out	0x3e, r29	; 62
    19a6:	0f be       	out	0x3f, r0	; 63
    19a8:	cd bf       	out	0x3d, r28	; 61
    19aa:	cf 91       	pop	r28
    19ac:	df 91       	pop	r29
    19ae:	08 95       	ret

000019b0 <_ZN5Print5printERK6String>:
    19b0:	0f 93       	push	r16
    19b2:	1f 93       	push	r17
    19b4:	df 93       	push	r29
    19b6:	cf 93       	push	r28
    19b8:	cd b7       	in	r28, 0x3d	; 61
    19ba:	de b7       	in	r29, 0x3e	; 62
    19bc:	27 97       	sbiw	r28, 0x07	; 7
    19be:	0f b6       	in	r0, 0x3f	; 63
    19c0:	f8 94       	cli
    19c2:	de bf       	out	0x3e, r29	; 62
    19c4:	0f be       	out	0x3f, r0	; 63
    19c6:	cd bf       	out	0x3d, r28	; 61
    19c8:	9c 83       	std	Y+4, r25	; 0x04
    19ca:	8b 83       	std	Y+3, r24	; 0x03
    19cc:	7e 83       	std	Y+6, r23	; 0x06
    19ce:	6d 83       	std	Y+5, r22	; 0x05
    19d0:	1a 82       	std	Y+2, r1	; 0x02
    19d2:	19 82       	std	Y+1, r1	; 0x01
    19d4:	19 c0       	rjmp	.+50     	; 0x1a08 <_ZN5Print5printERK6String+0x58>
    19d6:	eb 81       	ldd	r30, Y+3	; 0x03
    19d8:	fc 81       	ldd	r31, Y+4	; 0x04
    19da:	01 90       	ld	r0, Z+
    19dc:	f0 81       	ld	r31, Z
    19de:	e0 2d       	mov	r30, r0
    19e0:	00 81       	ld	r16, Z
    19e2:	11 81       	ldd	r17, Z+1	; 0x01
    19e4:	29 81       	ldd	r18, Y+1	; 0x01
    19e6:	3a 81       	ldd	r19, Y+2	; 0x02
    19e8:	8d 81       	ldd	r24, Y+5	; 0x05
    19ea:	9e 81       	ldd	r25, Y+6	; 0x06
    19ec:	b9 01       	movw	r22, r18
    19ee:	0e 94 af 0d 	call	0x1b5e	; 0x1b5e <_ZNK6StringixEj>
    19f2:	28 2f       	mov	r18, r24
    19f4:	8b 81       	ldd	r24, Y+3	; 0x03
    19f6:	9c 81       	ldd	r25, Y+4	; 0x04
    19f8:	62 2f       	mov	r22, r18
    19fa:	f8 01       	movw	r30, r16
    19fc:	09 95       	icall
    19fe:	89 81       	ldd	r24, Y+1	; 0x01
    1a00:	9a 81       	ldd	r25, Y+2	; 0x02
    1a02:	01 96       	adiw	r24, 0x01	; 1
    1a04:	9a 83       	std	Y+2, r25	; 0x02
    1a06:	89 83       	std	Y+1, r24	; 0x01
    1a08:	09 81       	ldd	r16, Y+1	; 0x01
    1a0a:	1a 81       	ldd	r17, Y+2	; 0x02
    1a0c:	8d 81       	ldd	r24, Y+5	; 0x05
    1a0e:	9e 81       	ldd	r25, Y+6	; 0x06
    1a10:	0e 94 fd 07 	call	0xffa	; 0xffa <_ZNK6String6lengthEv>
    1a14:	1f 82       	std	Y+7, r1	; 0x07
    1a16:	08 17       	cp	r16, r24
    1a18:	19 07       	cpc	r17, r25
    1a1a:	10 f4       	brcc	.+4      	; 0x1a20 <_ZN5Print5printERK6String+0x70>
    1a1c:	81 e0       	ldi	r24, 0x01	; 1
    1a1e:	8f 83       	std	Y+7, r24	; 0x07
    1a20:	8f 81       	ldd	r24, Y+7	; 0x07
    1a22:	88 23       	and	r24, r24
    1a24:	c1 f6       	brne	.-80     	; 0x19d6 <_ZN5Print5printERK6String+0x26>
    1a26:	27 96       	adiw	r28, 0x07	; 7
    1a28:	0f b6       	in	r0, 0x3f	; 63
    1a2a:	f8 94       	cli
    1a2c:	de bf       	out	0x3e, r29	; 62
    1a2e:	0f be       	out	0x3f, r0	; 63
    1a30:	cd bf       	out	0x3d, r28	; 61
    1a32:	cf 91       	pop	r28
    1a34:	df 91       	pop	r29
    1a36:	1f 91       	pop	r17
    1a38:	0f 91       	pop	r16
    1a3a:	08 95       	ret

00001a3c <_ZN5Print7printlnERK6String>:
    1a3c:	df 93       	push	r29
    1a3e:	cf 93       	push	r28
    1a40:	00 d0       	rcall	.+0      	; 0x1a42 <_ZN5Print7printlnERK6String+0x6>
    1a42:	00 d0       	rcall	.+0      	; 0x1a44 <_ZN5Print7printlnERK6String+0x8>
    1a44:	cd b7       	in	r28, 0x3d	; 61
    1a46:	de b7       	in	r29, 0x3e	; 62
    1a48:	9a 83       	std	Y+2, r25	; 0x02
    1a4a:	89 83       	std	Y+1, r24	; 0x01
    1a4c:	7c 83       	std	Y+4, r23	; 0x04
    1a4e:	6b 83       	std	Y+3, r22	; 0x03
    1a50:	89 81       	ldd	r24, Y+1	; 0x01
    1a52:	9a 81       	ldd	r25, Y+2	; 0x02
    1a54:	2b 81       	ldd	r18, Y+3	; 0x03
    1a56:	3c 81       	ldd	r19, Y+4	; 0x04
    1a58:	b9 01       	movw	r22, r18
    1a5a:	0e 94 d8 0c 	call	0x19b0	; 0x19b0 <_ZN5Print5printERK6String>
    1a5e:	89 81       	ldd	r24, Y+1	; 0x01
    1a60:	9a 81       	ldd	r25, Y+2	; 0x02
    1a62:	0e 94 89 0a 	call	0x1512	; 0x1512 <_ZN5Print7printlnEv>
    1a66:	0f 90       	pop	r0
    1a68:	0f 90       	pop	r0
    1a6a:	0f 90       	pop	r0
    1a6c:	0f 90       	pop	r0
    1a6e:	cf 91       	pop	r28
    1a70:	df 91       	pop	r29
    1a72:	08 95       	ret
    1a74:	df 93       	push	r29
    1a76:	cf 93       	push	r28
    1a78:	00 d0       	rcall	.+0      	; 0x1a7a <_ZN5Print7printlnERK6String+0x3e>
    1a7a:	cd b7       	in	r28, 0x3d	; 61
    1a7c:	de b7       	in	r29, 0x3e	; 62
    1a7e:	9a 83       	std	Y+2, r25	; 0x02
    1a80:	89 83       	std	Y+1, r24	; 0x01
    1a82:	e9 81       	ldd	r30, Y+1	; 0x01
    1a84:	fa 81       	ldd	r31, Y+2	; 0x02
    1a86:	84 81       	ldd	r24, Z+4	; 0x04
    1a88:	95 81       	ldd	r25, Z+5	; 0x05
    1a8a:	0f 90       	pop	r0
    1a8c:	0f 90       	pop	r0
    1a8e:	cf 91       	pop	r28
    1a90:	df 91       	pop	r29
    1a92:	08 95       	ret

00001a94 <_ZN6String9setCharAtEjc>:
    1a94:	df 93       	push	r29
    1a96:	cf 93       	push	r28
    1a98:	00 d0       	rcall	.+0      	; 0x1a9a <_ZN6String9setCharAtEjc+0x6>
    1a9a:	00 d0       	rcall	.+0      	; 0x1a9c <_ZN6String9setCharAtEjc+0x8>
    1a9c:	0f 92       	push	r0
    1a9e:	cd b7       	in	r28, 0x3d	; 61
    1aa0:	de b7       	in	r29, 0x3e	; 62
    1aa2:	9a 83       	std	Y+2, r25	; 0x02
    1aa4:	89 83       	std	Y+1, r24	; 0x01
    1aa6:	7c 83       	std	Y+4, r23	; 0x04
    1aa8:	6b 83       	std	Y+3, r22	; 0x03
    1aaa:	4d 83       	std	Y+5, r20	; 0x05
    1aac:	e9 81       	ldd	r30, Y+1	; 0x01
    1aae:	fa 81       	ldd	r31, Y+2	; 0x02
    1ab0:	80 81       	ld	r24, Z
    1ab2:	91 81       	ldd	r25, Z+1	; 0x01
    1ab4:	00 97       	sbiw	r24, 0x00	; 0
    1ab6:	a1 f0       	breq	.+40     	; 0x1ae0 <_ZN6String9setCharAtEjc+0x4c>
    1ab8:	e9 81       	ldd	r30, Y+1	; 0x01
    1aba:	fa 81       	ldd	r31, Y+2	; 0x02
    1abc:	24 81       	ldd	r18, Z+4	; 0x04
    1abe:	35 81       	ldd	r19, Z+5	; 0x05
    1ac0:	8b 81       	ldd	r24, Y+3	; 0x03
    1ac2:	9c 81       	ldd	r25, Y+4	; 0x04
    1ac4:	82 17       	cp	r24, r18
    1ac6:	93 07       	cpc	r25, r19
    1ac8:	58 f4       	brcc	.+22     	; 0x1ae0 <_ZN6String9setCharAtEjc+0x4c>
    1aca:	e9 81       	ldd	r30, Y+1	; 0x01
    1acc:	fa 81       	ldd	r31, Y+2	; 0x02
    1ace:	20 81       	ld	r18, Z
    1ad0:	31 81       	ldd	r19, Z+1	; 0x01
    1ad2:	8b 81       	ldd	r24, Y+3	; 0x03
    1ad4:	9c 81       	ldd	r25, Y+4	; 0x04
    1ad6:	f9 01       	movw	r30, r18
    1ad8:	e8 0f       	add	r30, r24
    1ada:	f9 1f       	adc	r31, r25
    1adc:	8d 81       	ldd	r24, Y+5	; 0x05
    1ade:	80 83       	st	Z, r24
    1ae0:	0f 90       	pop	r0
    1ae2:	0f 90       	pop	r0
    1ae4:	0f 90       	pop	r0
    1ae6:	0f 90       	pop	r0
    1ae8:	0f 90       	pop	r0
    1aea:	cf 91       	pop	r28
    1aec:	df 91       	pop	r29
    1aee:	08 95       	ret

00001af0 <_ZN6StringixEj>:
    1af0:	df 93       	push	r29
    1af2:	cf 93       	push	r28
    1af4:	00 d0       	rcall	.+0      	; 0x1af6 <_ZN6StringixEj+0x6>
    1af6:	00 d0       	rcall	.+0      	; 0x1af8 <_ZN6StringixEj+0x8>
    1af8:	00 d0       	rcall	.+0      	; 0x1afa <_ZN6StringixEj+0xa>
    1afa:	cd b7       	in	r28, 0x3d	; 61
    1afc:	de b7       	in	r29, 0x3e	; 62
    1afe:	9a 83       	std	Y+2, r25	; 0x02
    1b00:	89 83       	std	Y+1, r24	; 0x01
    1b02:	7c 83       	std	Y+4, r23	; 0x04
    1b04:	6b 83       	std	Y+3, r22	; 0x03
    1b06:	e9 81       	ldd	r30, Y+1	; 0x01
    1b08:	fa 81       	ldd	r31, Y+2	; 0x02
    1b0a:	24 81       	ldd	r18, Z+4	; 0x04
    1b0c:	35 81       	ldd	r19, Z+5	; 0x05
    1b0e:	8b 81       	ldd	r24, Y+3	; 0x03
    1b10:	9c 81       	ldd	r25, Y+4	; 0x04
    1b12:	82 17       	cp	r24, r18
    1b14:	93 07       	cpc	r25, r19
    1b16:	30 f4       	brcc	.+12     	; 0x1b24 <_ZN6StringixEj+0x34>
    1b18:	e9 81       	ldd	r30, Y+1	; 0x01
    1b1a:	fa 81       	ldd	r31, Y+2	; 0x02
    1b1c:	80 81       	ld	r24, Z
    1b1e:	91 81       	ldd	r25, Z+1	; 0x01
    1b20:	00 97       	sbiw	r24, 0x00	; 0
    1b22:	39 f4       	brne	.+14     	; 0x1b32 <_ZN6StringixEj+0x42>
    1b24:	10 92 51 02 	sts	0x0251, r1
    1b28:	41 e5       	ldi	r20, 0x51	; 81
    1b2a:	52 e0       	ldi	r21, 0x02	; 2
    1b2c:	5e 83       	std	Y+6, r21	; 0x06
    1b2e:	4d 83       	std	Y+5, r20	; 0x05
    1b30:	0b c0       	rjmp	.+22     	; 0x1b48 <_ZN6StringixEj+0x58>
    1b32:	e9 81       	ldd	r30, Y+1	; 0x01
    1b34:	fa 81       	ldd	r31, Y+2	; 0x02
    1b36:	20 81       	ld	r18, Z
    1b38:	31 81       	ldd	r19, Z+1	; 0x01
    1b3a:	8b 81       	ldd	r24, Y+3	; 0x03
    1b3c:	9c 81       	ldd	r25, Y+4	; 0x04
    1b3e:	a9 01       	movw	r20, r18
    1b40:	48 0f       	add	r20, r24
    1b42:	59 1f       	adc	r21, r25
    1b44:	5e 83       	std	Y+6, r21	; 0x06
    1b46:	4d 83       	std	Y+5, r20	; 0x05
    1b48:	8d 81       	ldd	r24, Y+5	; 0x05
    1b4a:	9e 81       	ldd	r25, Y+6	; 0x06
    1b4c:	26 96       	adiw	r28, 0x06	; 6
    1b4e:	0f b6       	in	r0, 0x3f	; 63
    1b50:	f8 94       	cli
    1b52:	de bf       	out	0x3e, r29	; 62
    1b54:	0f be       	out	0x3f, r0	; 63
    1b56:	cd bf       	out	0x3d, r28	; 61
    1b58:	cf 91       	pop	r28
    1b5a:	df 91       	pop	r29
    1b5c:	08 95       	ret

00001b5e <_ZNK6StringixEj>:
    1b5e:	df 93       	push	r29
    1b60:	cf 93       	push	r28
    1b62:	00 d0       	rcall	.+0      	; 0x1b64 <_ZNK6StringixEj+0x6>
    1b64:	00 d0       	rcall	.+0      	; 0x1b66 <_ZNK6StringixEj+0x8>
    1b66:	cd b7       	in	r28, 0x3d	; 61
    1b68:	de b7       	in	r29, 0x3e	; 62
    1b6a:	9a 83       	std	Y+2, r25	; 0x02
    1b6c:	89 83       	std	Y+1, r24	; 0x01
    1b6e:	7c 83       	std	Y+4, r23	; 0x04
    1b70:	6b 83       	std	Y+3, r22	; 0x03
    1b72:	e9 81       	ldd	r30, Y+1	; 0x01
    1b74:	fa 81       	ldd	r31, Y+2	; 0x02
    1b76:	20 81       	ld	r18, Z
    1b78:	31 81       	ldd	r19, Z+1	; 0x01
    1b7a:	8b 81       	ldd	r24, Y+3	; 0x03
    1b7c:	9c 81       	ldd	r25, Y+4	; 0x04
    1b7e:	f9 01       	movw	r30, r18
    1b80:	e8 0f       	add	r30, r24
    1b82:	f9 1f       	adc	r31, r25
    1b84:	80 81       	ld	r24, Z
    1b86:	0f 90       	pop	r0
    1b88:	0f 90       	pop	r0
    1b8a:	0f 90       	pop	r0
    1b8c:	0f 90       	pop	r0
    1b8e:	cf 91       	pop	r28
    1b90:	df 91       	pop	r29
    1b92:	08 95       	ret

00001b94 <_ZNK6String6charAtEj>:
    1b94:	df 93       	push	r29
    1b96:	cf 93       	push	r28
    1b98:	00 d0       	rcall	.+0      	; 0x1b9a <_ZNK6String6charAtEj+0x6>
    1b9a:	00 d0       	rcall	.+0      	; 0x1b9c <_ZNK6String6charAtEj+0x8>
    1b9c:	cd b7       	in	r28, 0x3d	; 61
    1b9e:	de b7       	in	r29, 0x3e	; 62
    1ba0:	9a 83       	std	Y+2, r25	; 0x02
    1ba2:	89 83       	std	Y+1, r24	; 0x01
    1ba4:	7c 83       	std	Y+4, r23	; 0x04
    1ba6:	6b 83       	std	Y+3, r22	; 0x03
    1ba8:	89 81       	ldd	r24, Y+1	; 0x01
    1baa:	9a 81       	ldd	r25, Y+2	; 0x02
    1bac:	2b 81       	ldd	r18, Y+3	; 0x03
    1bae:	3c 81       	ldd	r19, Y+4	; 0x04
    1bb0:	b9 01       	movw	r22, r18
    1bb2:	0e 94 af 0d 	call	0x1b5e	; 0x1b5e <_ZNK6StringixEj>
    1bb6:	0f 90       	pop	r0
    1bb8:	0f 90       	pop	r0
    1bba:	0f 90       	pop	r0
    1bbc:	0f 90       	pop	r0
    1bbe:	cf 91       	pop	r28
    1bc0:	df 91       	pop	r29
    1bc2:	08 95       	ret

00001bc4 <_ZN6String11toCharArrayEPcj>:
    1bc4:	df 93       	push	r29
    1bc6:	cf 93       	push	r28
    1bc8:	cd b7       	in	r28, 0x3d	; 61
    1bca:	de b7       	in	r29, 0x3e	; 62
    1bcc:	28 97       	sbiw	r28, 0x08	; 8
    1bce:	0f b6       	in	r0, 0x3f	; 63
    1bd0:	f8 94       	cli
    1bd2:	de bf       	out	0x3e, r29	; 62
    1bd4:	0f be       	out	0x3f, r0	; 63
    1bd6:	cd bf       	out	0x3d, r28	; 61
    1bd8:	9c 83       	std	Y+4, r25	; 0x04
    1bda:	8b 83       	std	Y+3, r24	; 0x03
    1bdc:	7e 83       	std	Y+6, r23	; 0x06
    1bde:	6d 83       	std	Y+5, r22	; 0x05
    1be0:	58 87       	std	Y+8, r21	; 0x08
    1be2:	4f 83       	std	Y+7, r20	; 0x07
    1be4:	8f 81       	ldd	r24, Y+7	; 0x07
    1be6:	98 85       	ldd	r25, Y+8	; 0x08
    1be8:	00 97       	sbiw	r24, 0x00	; 0
    1bea:	61 f1       	breq	.+88     	; 0x1c44 <_ZN6String11toCharArrayEPcj+0x80>
    1bec:	8d 81       	ldd	r24, Y+5	; 0x05
    1bee:	9e 81       	ldd	r25, Y+6	; 0x06
    1bf0:	00 97       	sbiw	r24, 0x00	; 0
    1bf2:	41 f1       	breq	.+80     	; 0x1c44 <_ZN6String11toCharArrayEPcj+0x80>
    1bf4:	8f 81       	ldd	r24, Y+7	; 0x07
    1bf6:	98 85       	ldd	r25, Y+8	; 0x08
    1bf8:	01 97       	sbiw	r24, 0x01	; 1
    1bfa:	9a 83       	std	Y+2, r25	; 0x02
    1bfc:	89 83       	std	Y+1, r24	; 0x01
    1bfe:	eb 81       	ldd	r30, Y+3	; 0x03
    1c00:	fc 81       	ldd	r31, Y+4	; 0x04
    1c02:	24 81       	ldd	r18, Z+4	; 0x04
    1c04:	35 81       	ldd	r19, Z+5	; 0x05
    1c06:	89 81       	ldd	r24, Y+1	; 0x01
    1c08:	9a 81       	ldd	r25, Y+2	; 0x02
    1c0a:	28 17       	cp	r18, r24
    1c0c:	39 07       	cpc	r19, r25
    1c0e:	30 f4       	brcc	.+12     	; 0x1c1c <_ZN6String11toCharArrayEPcj+0x58>
    1c10:	eb 81       	ldd	r30, Y+3	; 0x03
    1c12:	fc 81       	ldd	r31, Y+4	; 0x04
    1c14:	84 81       	ldd	r24, Z+4	; 0x04
    1c16:	95 81       	ldd	r25, Z+5	; 0x05
    1c18:	9a 83       	std	Y+2, r25	; 0x02
    1c1a:	89 83       	std	Y+1, r24	; 0x01
    1c1c:	eb 81       	ldd	r30, Y+3	; 0x03
    1c1e:	fc 81       	ldd	r31, Y+4	; 0x04
    1c20:	40 81       	ld	r20, Z
    1c22:	51 81       	ldd	r21, Z+1	; 0x01
    1c24:	8d 81       	ldd	r24, Y+5	; 0x05
    1c26:	9e 81       	ldd	r25, Y+6	; 0x06
    1c28:	29 81       	ldd	r18, Y+1	; 0x01
    1c2a:	3a 81       	ldd	r19, Y+2	; 0x02
    1c2c:	ba 01       	movw	r22, r20
    1c2e:	a9 01       	movw	r20, r18
    1c30:	0e 94 08 27 	call	0x4e10	; 0x4e10 <strncpy>
    1c34:	2d 81       	ldd	r18, Y+5	; 0x05
    1c36:	3e 81       	ldd	r19, Y+6	; 0x06
    1c38:	89 81       	ldd	r24, Y+1	; 0x01
    1c3a:	9a 81       	ldd	r25, Y+2	; 0x02
    1c3c:	f9 01       	movw	r30, r18
    1c3e:	e8 0f       	add	r30, r24
    1c40:	f9 1f       	adc	r31, r25
    1c42:	10 82       	st	Z, r1
    1c44:	28 96       	adiw	r28, 0x08	; 8
    1c46:	0f b6       	in	r0, 0x3f	; 63
    1c48:	f8 94       	cli
    1c4a:	de bf       	out	0x3e, r29	; 62
    1c4c:	0f be       	out	0x3f, r0	; 63
    1c4e:	cd bf       	out	0x3d, r28	; 61
    1c50:	cf 91       	pop	r28
    1c52:	df 91       	pop	r29
    1c54:	08 95       	ret

00001c56 <_ZN6String8getBytesEPhj>:
    1c56:	df 93       	push	r29
    1c58:	cf 93       	push	r28
    1c5a:	cd b7       	in	r28, 0x3d	; 61
    1c5c:	de b7       	in	r29, 0x3e	; 62
    1c5e:	28 97       	sbiw	r28, 0x08	; 8
    1c60:	0f b6       	in	r0, 0x3f	; 63
    1c62:	f8 94       	cli
    1c64:	de bf       	out	0x3e, r29	; 62
    1c66:	0f be       	out	0x3f, r0	; 63
    1c68:	cd bf       	out	0x3d, r28	; 61
    1c6a:	9c 83       	std	Y+4, r25	; 0x04
    1c6c:	8b 83       	std	Y+3, r24	; 0x03
    1c6e:	7e 83       	std	Y+6, r23	; 0x06
    1c70:	6d 83       	std	Y+5, r22	; 0x05
    1c72:	58 87       	std	Y+8, r21	; 0x08
    1c74:	4f 83       	std	Y+7, r20	; 0x07
    1c76:	8f 81       	ldd	r24, Y+7	; 0x07
    1c78:	98 85       	ldd	r25, Y+8	; 0x08
    1c7a:	00 97       	sbiw	r24, 0x00	; 0
    1c7c:	61 f1       	breq	.+88     	; 0x1cd6 <_ZN6String8getBytesEPhj+0x80>
    1c7e:	8d 81       	ldd	r24, Y+5	; 0x05
    1c80:	9e 81       	ldd	r25, Y+6	; 0x06
    1c82:	00 97       	sbiw	r24, 0x00	; 0
    1c84:	41 f1       	breq	.+80     	; 0x1cd6 <_ZN6String8getBytesEPhj+0x80>
    1c86:	8f 81       	ldd	r24, Y+7	; 0x07
    1c88:	98 85       	ldd	r25, Y+8	; 0x08
    1c8a:	01 97       	sbiw	r24, 0x01	; 1
    1c8c:	9a 83       	std	Y+2, r25	; 0x02
    1c8e:	89 83       	std	Y+1, r24	; 0x01
    1c90:	eb 81       	ldd	r30, Y+3	; 0x03
    1c92:	fc 81       	ldd	r31, Y+4	; 0x04
    1c94:	24 81       	ldd	r18, Z+4	; 0x04
    1c96:	35 81       	ldd	r19, Z+5	; 0x05
    1c98:	89 81       	ldd	r24, Y+1	; 0x01
    1c9a:	9a 81       	ldd	r25, Y+2	; 0x02
    1c9c:	28 17       	cp	r18, r24
    1c9e:	39 07       	cpc	r19, r25
    1ca0:	30 f4       	brcc	.+12     	; 0x1cae <_ZN6String8getBytesEPhj+0x58>
    1ca2:	eb 81       	ldd	r30, Y+3	; 0x03
    1ca4:	fc 81       	ldd	r31, Y+4	; 0x04
    1ca6:	84 81       	ldd	r24, Z+4	; 0x04
    1ca8:	95 81       	ldd	r25, Z+5	; 0x05
    1caa:	9a 83       	std	Y+2, r25	; 0x02
    1cac:	89 83       	std	Y+1, r24	; 0x01
    1cae:	eb 81       	ldd	r30, Y+3	; 0x03
    1cb0:	fc 81       	ldd	r31, Y+4	; 0x04
    1cb2:	40 81       	ld	r20, Z
    1cb4:	51 81       	ldd	r21, Z+1	; 0x01
    1cb6:	8d 81       	ldd	r24, Y+5	; 0x05
    1cb8:	9e 81       	ldd	r25, Y+6	; 0x06
    1cba:	29 81       	ldd	r18, Y+1	; 0x01
    1cbc:	3a 81       	ldd	r19, Y+2	; 0x02
    1cbe:	ba 01       	movw	r22, r20
    1cc0:	a9 01       	movw	r20, r18
    1cc2:	0e 94 08 27 	call	0x4e10	; 0x4e10 <strncpy>
    1cc6:	2d 81       	ldd	r18, Y+5	; 0x05
    1cc8:	3e 81       	ldd	r19, Y+6	; 0x06
    1cca:	89 81       	ldd	r24, Y+1	; 0x01
    1ccc:	9a 81       	ldd	r25, Y+2	; 0x02
    1cce:	f9 01       	movw	r30, r18
    1cd0:	e8 0f       	add	r30, r24
    1cd2:	f9 1f       	adc	r31, r25
    1cd4:	10 82       	st	Z, r1
    1cd6:	28 96       	adiw	r28, 0x08	; 8
    1cd8:	0f b6       	in	r0, 0x3f	; 63
    1cda:	f8 94       	cli
    1cdc:	de bf       	out	0x3e, r29	; 62
    1cde:	0f be       	out	0x3f, r0	; 63
    1ce0:	cd bf       	out	0x3d, r28	; 61
    1ce2:	cf 91       	pop	r28
    1ce4:	df 91       	pop	r29
    1ce6:	08 95       	ret

00001ce8 <_ZN6StringD1Ev>:
    1ce8:	df 93       	push	r29
    1cea:	cf 93       	push	r28
    1cec:	00 d0       	rcall	.+0      	; 0x1cee <_ZN6StringD1Ev+0x6>
    1cee:	cd b7       	in	r28, 0x3d	; 61
    1cf0:	de b7       	in	r29, 0x3e	; 62
    1cf2:	9a 83       	std	Y+2, r25	; 0x02
    1cf4:	89 83       	std	Y+1, r24	; 0x01
    1cf6:	e9 81       	ldd	r30, Y+1	; 0x01
    1cf8:	fa 81       	ldd	r31, Y+2	; 0x02
    1cfa:	80 81       	ld	r24, Z
    1cfc:	91 81       	ldd	r25, Z+1	; 0x01
    1cfe:	0e 94 5b 26 	call	0x4cb6	; 0x4cb6 <free>
    1d02:	e9 81       	ldd	r30, Y+1	; 0x01
    1d04:	fa 81       	ldd	r31, Y+2	; 0x02
    1d06:	13 82       	std	Z+3, r1	; 0x03
    1d08:	12 82       	std	Z+2, r1	; 0x02
    1d0a:	e9 81       	ldd	r30, Y+1	; 0x01
    1d0c:	fa 81       	ldd	r31, Y+2	; 0x02
    1d0e:	82 81       	ldd	r24, Z+2	; 0x02
    1d10:	93 81       	ldd	r25, Z+3	; 0x03
    1d12:	e9 81       	ldd	r30, Y+1	; 0x01
    1d14:	fa 81       	ldd	r31, Y+2	; 0x02
    1d16:	95 83       	std	Z+5, r25	; 0x05
    1d18:	84 83       	std	Z+4, r24	; 0x04
    1d1a:	0f 90       	pop	r0
    1d1c:	0f 90       	pop	r0
    1d1e:	cf 91       	pop	r28
    1d20:	df 91       	pop	r29
    1d22:	08 95       	ret

00001d24 <_ZNK6String10startsWithERKS_j>:
    1d24:	df 93       	push	r29
    1d26:	cf 93       	push	r28
    1d28:	cd b7       	in	r28, 0x3d	; 61
    1d2a:	de b7       	in	r29, 0x3e	; 62
    1d2c:	27 97       	sbiw	r28, 0x07	; 7
    1d2e:	0f b6       	in	r0, 0x3f	; 63
    1d30:	f8 94       	cli
    1d32:	de bf       	out	0x3e, r29	; 62
    1d34:	0f be       	out	0x3f, r0	; 63
    1d36:	cd bf       	out	0x3d, r28	; 61
    1d38:	9a 83       	std	Y+2, r25	; 0x02
    1d3a:	89 83       	std	Y+1, r24	; 0x01
    1d3c:	7c 83       	std	Y+4, r23	; 0x04
    1d3e:	6b 83       	std	Y+3, r22	; 0x03
    1d40:	5e 83       	std	Y+6, r21	; 0x06
    1d42:	4d 83       	std	Y+5, r20	; 0x05
    1d44:	e9 81       	ldd	r30, Y+1	; 0x01
    1d46:	fa 81       	ldd	r31, Y+2	; 0x02
    1d48:	24 81       	ldd	r18, Z+4	; 0x04
    1d4a:	35 81       	ldd	r19, Z+5	; 0x05
    1d4c:	eb 81       	ldd	r30, Y+3	; 0x03
    1d4e:	fc 81       	ldd	r31, Y+4	; 0x04
    1d50:	84 81       	ldd	r24, Z+4	; 0x04
    1d52:	95 81       	ldd	r25, Z+5	; 0x05
    1d54:	28 1b       	sub	r18, r24
    1d56:	39 0b       	sbc	r19, r25
    1d58:	8d 81       	ldd	r24, Y+5	; 0x05
    1d5a:	9e 81       	ldd	r25, Y+6	; 0x06
    1d5c:	28 17       	cp	r18, r24
    1d5e:	39 07       	cpc	r19, r25
    1d60:	10 f4       	brcc	.+4      	; 0x1d66 <_ZNK6String10startsWithERKS_j+0x42>
    1d62:	1f 82       	std	Y+7, r1	; 0x07
    1d64:	19 c0       	rjmp	.+50     	; 0x1d98 <_ZNK6String10startsWithERKS_j+0x74>
    1d66:	e9 81       	ldd	r30, Y+1	; 0x01
    1d68:	fa 81       	ldd	r31, Y+2	; 0x02
    1d6a:	20 81       	ld	r18, Z
    1d6c:	31 81       	ldd	r19, Z+1	; 0x01
    1d6e:	8d 81       	ldd	r24, Y+5	; 0x05
    1d70:	9e 81       	ldd	r25, Y+6	; 0x06
    1d72:	82 0f       	add	r24, r18
    1d74:	93 1f       	adc	r25, r19
    1d76:	eb 81       	ldd	r30, Y+3	; 0x03
    1d78:	fc 81       	ldd	r31, Y+4	; 0x04
    1d7a:	40 81       	ld	r20, Z
    1d7c:	51 81       	ldd	r21, Z+1	; 0x01
    1d7e:	eb 81       	ldd	r30, Y+3	; 0x03
    1d80:	fc 81       	ldd	r31, Y+4	; 0x04
    1d82:	24 81       	ldd	r18, Z+4	; 0x04
    1d84:	35 81       	ldd	r19, Z+5	; 0x05
    1d86:	ba 01       	movw	r22, r20
    1d88:	a9 01       	movw	r20, r18
    1d8a:	0e 94 fa 26 	call	0x4df4	; 0x4df4 <strncmp>
    1d8e:	1f 82       	std	Y+7, r1	; 0x07
    1d90:	00 97       	sbiw	r24, 0x00	; 0
    1d92:	11 f4       	brne	.+4      	; 0x1d98 <_ZNK6String10startsWithERKS_j+0x74>
    1d94:	81 e0       	ldi	r24, 0x01	; 1
    1d96:	8f 83       	std	Y+7, r24	; 0x07
    1d98:	8f 81       	ldd	r24, Y+7	; 0x07
    1d9a:	27 96       	adiw	r28, 0x07	; 7
    1d9c:	0f b6       	in	r0, 0x3f	; 63
    1d9e:	f8 94       	cli
    1da0:	de bf       	out	0x3e, r29	; 62
    1da2:	0f be       	out	0x3f, r0	; 63
    1da4:	cd bf       	out	0x3d, r28	; 61
    1da6:	cf 91       	pop	r28
    1da8:	df 91       	pop	r29
    1daa:	08 95       	ret

00001dac <_ZNK6String10startsWithERKS_>:
    1dac:	df 93       	push	r29
    1dae:	cf 93       	push	r28
    1db0:	00 d0       	rcall	.+0      	; 0x1db2 <_ZNK6String10startsWithERKS_+0x6>
    1db2:	00 d0       	rcall	.+0      	; 0x1db4 <_ZNK6String10startsWithERKS_+0x8>
    1db4:	0f 92       	push	r0
    1db6:	cd b7       	in	r28, 0x3d	; 61
    1db8:	de b7       	in	r29, 0x3e	; 62
    1dba:	9a 83       	std	Y+2, r25	; 0x02
    1dbc:	89 83       	std	Y+1, r24	; 0x01
    1dbe:	7c 83       	std	Y+4, r23	; 0x04
    1dc0:	6b 83       	std	Y+3, r22	; 0x03
    1dc2:	e9 81       	ldd	r30, Y+1	; 0x01
    1dc4:	fa 81       	ldd	r31, Y+2	; 0x02
    1dc6:	24 81       	ldd	r18, Z+4	; 0x04
    1dc8:	35 81       	ldd	r19, Z+5	; 0x05
    1dca:	eb 81       	ldd	r30, Y+3	; 0x03
    1dcc:	fc 81       	ldd	r31, Y+4	; 0x04
    1dce:	84 81       	ldd	r24, Z+4	; 0x04
    1dd0:	95 81       	ldd	r25, Z+5	; 0x05
    1dd2:	28 17       	cp	r18, r24
    1dd4:	39 07       	cpc	r19, r25
    1dd6:	10 f4       	brcc	.+4      	; 0x1ddc <_ZNK6String10startsWithERKS_+0x30>
    1dd8:	1d 82       	std	Y+5, r1	; 0x05
    1dda:	0a c0       	rjmp	.+20     	; 0x1df0 <_ZNK6String10startsWithERKS_+0x44>
    1ddc:	89 81       	ldd	r24, Y+1	; 0x01
    1dde:	9a 81       	ldd	r25, Y+2	; 0x02
    1de0:	2b 81       	ldd	r18, Y+3	; 0x03
    1de2:	3c 81       	ldd	r19, Y+4	; 0x04
    1de4:	b9 01       	movw	r22, r18
    1de6:	40 e0       	ldi	r20, 0x00	; 0
    1de8:	50 e0       	ldi	r21, 0x00	; 0
    1dea:	0e 94 92 0e 	call	0x1d24	; 0x1d24 <_ZNK6String10startsWithERKS_j>
    1dee:	8d 83       	std	Y+5, r24	; 0x05
    1df0:	8d 81       	ldd	r24, Y+5	; 0x05
    1df2:	0f 90       	pop	r0
    1df4:	0f 90       	pop	r0
    1df6:	0f 90       	pop	r0
    1df8:	0f 90       	pop	r0
    1dfa:	0f 90       	pop	r0
    1dfc:	cf 91       	pop	r28
    1dfe:	df 91       	pop	r29
    1e00:	08 95       	ret

00001e02 <_ZNK6String11lastIndexOfEcj>:
    1e02:	df 93       	push	r29
    1e04:	cf 93       	push	r28
    1e06:	cd b7       	in	r28, 0x3d	; 61
    1e08:	de b7       	in	r29, 0x3e	; 62
    1e0a:	2a 97       	sbiw	r28, 0x0a	; 10
    1e0c:	0f b6       	in	r0, 0x3f	; 63
    1e0e:	f8 94       	cli
    1e10:	de bf       	out	0x3e, r29	; 62
    1e12:	0f be       	out	0x3f, r0	; 63
    1e14:	cd bf       	out	0x3d, r28	; 61
    1e16:	9d 83       	std	Y+5, r25	; 0x05
    1e18:	8c 83       	std	Y+4, r24	; 0x04
    1e1a:	6e 83       	std	Y+6, r22	; 0x06
    1e1c:	58 87       	std	Y+8, r21	; 0x08
    1e1e:	4f 83       	std	Y+7, r20	; 0x07
    1e20:	ec 81       	ldd	r30, Y+4	; 0x04
    1e22:	fd 81       	ldd	r31, Y+5	; 0x05
    1e24:	24 81       	ldd	r18, Z+4	; 0x04
    1e26:	35 81       	ldd	r19, Z+5	; 0x05
    1e28:	8f 81       	ldd	r24, Y+7	; 0x07
    1e2a:	98 85       	ldd	r25, Y+8	; 0x08
    1e2c:	82 17       	cp	r24, r18
    1e2e:	93 07       	cpc	r25, r19
    1e30:	28 f0       	brcs	.+10     	; 0x1e3c <_ZNK6String11lastIndexOfEcj+0x3a>
    1e32:	4f ef       	ldi	r20, 0xFF	; 255
    1e34:	5f ef       	ldi	r21, 0xFF	; 255
    1e36:	5a 87       	std	Y+10, r21	; 0x0a
    1e38:	49 87       	std	Y+9, r20	; 0x09
    1e3a:	44 c0       	rjmp	.+136    	; 0x1ec4 <_ZNK6String11lastIndexOfEcj+0xc2>
    1e3c:	ec 81       	ldd	r30, Y+4	; 0x04
    1e3e:	fd 81       	ldd	r31, Y+5	; 0x05
    1e40:	20 81       	ld	r18, Z
    1e42:	31 81       	ldd	r19, Z+1	; 0x01
    1e44:	8f 81       	ldd	r24, Y+7	; 0x07
    1e46:	98 85       	ldd	r25, Y+8	; 0x08
    1e48:	01 96       	adiw	r24, 0x01	; 1
    1e4a:	f9 01       	movw	r30, r18
    1e4c:	e8 0f       	add	r30, r24
    1e4e:	f9 1f       	adc	r31, r25
    1e50:	80 81       	ld	r24, Z
    1e52:	8b 83       	std	Y+3, r24	; 0x03
    1e54:	ec 81       	ldd	r30, Y+4	; 0x04
    1e56:	fd 81       	ldd	r31, Y+5	; 0x05
    1e58:	20 81       	ld	r18, Z
    1e5a:	31 81       	ldd	r19, Z+1	; 0x01
    1e5c:	8f 81       	ldd	r24, Y+7	; 0x07
    1e5e:	98 85       	ldd	r25, Y+8	; 0x08
    1e60:	01 96       	adiw	r24, 0x01	; 1
    1e62:	f9 01       	movw	r30, r18
    1e64:	e8 0f       	add	r30, r24
    1e66:	f9 1f       	adc	r31, r25
    1e68:	10 82       	st	Z, r1
    1e6a:	ec 81       	ldd	r30, Y+4	; 0x04
    1e6c:	fd 81       	ldd	r31, Y+5	; 0x05
    1e6e:	40 81       	ld	r20, Z
    1e70:	51 81       	ldd	r21, Z+1	; 0x01
    1e72:	8e 81       	ldd	r24, Y+6	; 0x06
    1e74:	28 2f       	mov	r18, r24
    1e76:	30 e0       	ldi	r19, 0x00	; 0
    1e78:	ca 01       	movw	r24, r20
    1e7a:	b9 01       	movw	r22, r18
    1e7c:	0e 94 17 27 	call	0x4e2e	; 0x4e2e <strrchr>
    1e80:	9a 83       	std	Y+2, r25	; 0x02
    1e82:	89 83       	std	Y+1, r24	; 0x01
    1e84:	ec 81       	ldd	r30, Y+4	; 0x04
    1e86:	fd 81       	ldd	r31, Y+5	; 0x05
    1e88:	20 81       	ld	r18, Z
    1e8a:	31 81       	ldd	r19, Z+1	; 0x01
    1e8c:	8f 81       	ldd	r24, Y+7	; 0x07
    1e8e:	98 85       	ldd	r25, Y+8	; 0x08
    1e90:	01 96       	adiw	r24, 0x01	; 1
    1e92:	f9 01       	movw	r30, r18
    1e94:	e8 0f       	add	r30, r24
    1e96:	f9 1f       	adc	r31, r25
    1e98:	8b 81       	ldd	r24, Y+3	; 0x03
    1e9a:	80 83       	st	Z, r24
    1e9c:	89 81       	ldd	r24, Y+1	; 0x01
    1e9e:	9a 81       	ldd	r25, Y+2	; 0x02
    1ea0:	00 97       	sbiw	r24, 0x00	; 0
    1ea2:	29 f4       	brne	.+10     	; 0x1eae <_ZNK6String11lastIndexOfEcj+0xac>
    1ea4:	8f ef       	ldi	r24, 0xFF	; 255
    1ea6:	9f ef       	ldi	r25, 0xFF	; 255
    1ea8:	9a 87       	std	Y+10, r25	; 0x0a
    1eaa:	89 87       	std	Y+9, r24	; 0x09
    1eac:	0b c0       	rjmp	.+22     	; 0x1ec4 <_ZNK6String11lastIndexOfEcj+0xc2>
    1eae:	29 81       	ldd	r18, Y+1	; 0x01
    1eb0:	3a 81       	ldd	r19, Y+2	; 0x02
    1eb2:	ec 81       	ldd	r30, Y+4	; 0x04
    1eb4:	fd 81       	ldd	r31, Y+5	; 0x05
    1eb6:	80 81       	ld	r24, Z
    1eb8:	91 81       	ldd	r25, Z+1	; 0x01
    1eba:	a9 01       	movw	r20, r18
    1ebc:	48 1b       	sub	r20, r24
    1ebe:	59 0b       	sbc	r21, r25
    1ec0:	5a 87       	std	Y+10, r21	; 0x0a
    1ec2:	49 87       	std	Y+9, r20	; 0x09
    1ec4:	89 85       	ldd	r24, Y+9	; 0x09
    1ec6:	9a 85       	ldd	r25, Y+10	; 0x0a
    1ec8:	2a 96       	adiw	r28, 0x0a	; 10
    1eca:	0f b6       	in	r0, 0x3f	; 63
    1ecc:	f8 94       	cli
    1ece:	de bf       	out	0x3e, r29	; 62
    1ed0:	0f be       	out	0x3f, r0	; 63
    1ed2:	cd bf       	out	0x3d, r28	; 61
    1ed4:	cf 91       	pop	r28
    1ed6:	df 91       	pop	r29
    1ed8:	08 95       	ret

00001eda <_ZNK6String11lastIndexOfEc>:
    1eda:	df 93       	push	r29
    1edc:	cf 93       	push	r28
    1ede:	00 d0       	rcall	.+0      	; 0x1ee0 <_ZNK6String11lastIndexOfEc+0x6>
    1ee0:	0f 92       	push	r0
    1ee2:	cd b7       	in	r28, 0x3d	; 61
    1ee4:	de b7       	in	r29, 0x3e	; 62
    1ee6:	9a 83       	std	Y+2, r25	; 0x02
    1ee8:	89 83       	std	Y+1, r24	; 0x01
    1eea:	6b 83       	std	Y+3, r22	; 0x03
    1eec:	e9 81       	ldd	r30, Y+1	; 0x01
    1eee:	fa 81       	ldd	r31, Y+2	; 0x02
    1ef0:	84 81       	ldd	r24, Z+4	; 0x04
    1ef2:	95 81       	ldd	r25, Z+5	; 0x05
    1ef4:	9c 01       	movw	r18, r24
    1ef6:	21 50       	subi	r18, 0x01	; 1
    1ef8:	30 40       	sbci	r19, 0x00	; 0
    1efa:	89 81       	ldd	r24, Y+1	; 0x01
    1efc:	9a 81       	ldd	r25, Y+2	; 0x02
    1efe:	6b 81       	ldd	r22, Y+3	; 0x03
    1f00:	a9 01       	movw	r20, r18
    1f02:	0e 94 01 0f 	call	0x1e02	; 0x1e02 <_ZNK6String11lastIndexOfEcj>
    1f06:	0f 90       	pop	r0
    1f08:	0f 90       	pop	r0
    1f0a:	0f 90       	pop	r0
    1f0c:	cf 91       	pop	r28
    1f0e:	df 91       	pop	r29
    1f10:	08 95       	ret

00001f12 <_ZNK6String7indexOfERKS_j>:
    1f12:	df 93       	push	r29
    1f14:	cf 93       	push	r28
    1f16:	cd b7       	in	r28, 0x3d	; 61
    1f18:	de b7       	in	r29, 0x3e	; 62
    1f1a:	2a 97       	sbiw	r28, 0x0a	; 10
    1f1c:	0f b6       	in	r0, 0x3f	; 63
    1f1e:	f8 94       	cli
    1f20:	de bf       	out	0x3e, r29	; 62
    1f22:	0f be       	out	0x3f, r0	; 63
    1f24:	cd bf       	out	0x3d, r28	; 61
    1f26:	9c 83       	std	Y+4, r25	; 0x04
    1f28:	8b 83       	std	Y+3, r24	; 0x03
    1f2a:	7e 83       	std	Y+6, r23	; 0x06
    1f2c:	6d 83       	std	Y+5, r22	; 0x05
    1f2e:	58 87       	std	Y+8, r21	; 0x08
    1f30:	4f 83       	std	Y+7, r20	; 0x07
    1f32:	eb 81       	ldd	r30, Y+3	; 0x03
    1f34:	fc 81       	ldd	r31, Y+4	; 0x04
    1f36:	24 81       	ldd	r18, Z+4	; 0x04
    1f38:	35 81       	ldd	r19, Z+5	; 0x05
    1f3a:	8f 81       	ldd	r24, Y+7	; 0x07
    1f3c:	98 85       	ldd	r25, Y+8	; 0x08
    1f3e:	82 17       	cp	r24, r18
    1f40:	93 07       	cpc	r25, r19
    1f42:	28 f0       	brcs	.+10     	; 0x1f4e <_ZNK6String7indexOfERKS_j+0x3c>
    1f44:	4f ef       	ldi	r20, 0xFF	; 255
    1f46:	5f ef       	ldi	r21, 0xFF	; 255
    1f48:	5a 87       	std	Y+10, r21	; 0x0a
    1f4a:	49 87       	std	Y+9, r20	; 0x09
    1f4c:	25 c0       	rjmp	.+74     	; 0x1f98 <_ZNK6String7indexOfERKS_j+0x86>
    1f4e:	eb 81       	ldd	r30, Y+3	; 0x03
    1f50:	fc 81       	ldd	r31, Y+4	; 0x04
    1f52:	20 81       	ld	r18, Z
    1f54:	31 81       	ldd	r19, Z+1	; 0x01
    1f56:	8f 81       	ldd	r24, Y+7	; 0x07
    1f58:	98 85       	ldd	r25, Y+8	; 0x08
    1f5a:	82 0f       	add	r24, r18
    1f5c:	93 1f       	adc	r25, r19
    1f5e:	ed 81       	ldd	r30, Y+5	; 0x05
    1f60:	fe 81       	ldd	r31, Y+6	; 0x06
    1f62:	20 81       	ld	r18, Z
    1f64:	31 81       	ldd	r19, Z+1	; 0x01
    1f66:	b9 01       	movw	r22, r18
    1f68:	0e 94 22 27 	call	0x4e44	; 0x4e44 <strstr>
    1f6c:	9a 83       	std	Y+2, r25	; 0x02
    1f6e:	89 83       	std	Y+1, r24	; 0x01
    1f70:	89 81       	ldd	r24, Y+1	; 0x01
    1f72:	9a 81       	ldd	r25, Y+2	; 0x02
    1f74:	00 97       	sbiw	r24, 0x00	; 0
    1f76:	29 f4       	brne	.+10     	; 0x1f82 <_ZNK6String7indexOfERKS_j+0x70>
    1f78:	8f ef       	ldi	r24, 0xFF	; 255
    1f7a:	9f ef       	ldi	r25, 0xFF	; 255
    1f7c:	9a 87       	std	Y+10, r25	; 0x0a
    1f7e:	89 87       	std	Y+9, r24	; 0x09
    1f80:	0b c0       	rjmp	.+22     	; 0x1f98 <_ZNK6String7indexOfERKS_j+0x86>
    1f82:	29 81       	ldd	r18, Y+1	; 0x01
    1f84:	3a 81       	ldd	r19, Y+2	; 0x02
    1f86:	eb 81       	ldd	r30, Y+3	; 0x03
    1f88:	fc 81       	ldd	r31, Y+4	; 0x04
    1f8a:	80 81       	ld	r24, Z
    1f8c:	91 81       	ldd	r25, Z+1	; 0x01
    1f8e:	a9 01       	movw	r20, r18
    1f90:	48 1b       	sub	r20, r24
    1f92:	59 0b       	sbc	r21, r25
    1f94:	5a 87       	std	Y+10, r21	; 0x0a
    1f96:	49 87       	std	Y+9, r20	; 0x09
    1f98:	89 85       	ldd	r24, Y+9	; 0x09
    1f9a:	9a 85       	ldd	r25, Y+10	; 0x0a
    1f9c:	2a 96       	adiw	r28, 0x0a	; 10
    1f9e:	0f b6       	in	r0, 0x3f	; 63
    1fa0:	f8 94       	cli
    1fa2:	de bf       	out	0x3e, r29	; 62
    1fa4:	0f be       	out	0x3f, r0	; 63
    1fa6:	cd bf       	out	0x3d, r28	; 61
    1fa8:	cf 91       	pop	r28
    1faa:	df 91       	pop	r29
    1fac:	08 95       	ret

00001fae <_ZNK6String7indexOfERKS_>:
    1fae:	df 93       	push	r29
    1fb0:	cf 93       	push	r28
    1fb2:	00 d0       	rcall	.+0      	; 0x1fb4 <_ZNK6String7indexOfERKS_+0x6>
    1fb4:	00 d0       	rcall	.+0      	; 0x1fb6 <_ZNK6String7indexOfERKS_+0x8>
    1fb6:	cd b7       	in	r28, 0x3d	; 61
    1fb8:	de b7       	in	r29, 0x3e	; 62
    1fba:	9a 83       	std	Y+2, r25	; 0x02
    1fbc:	89 83       	std	Y+1, r24	; 0x01
    1fbe:	7c 83       	std	Y+4, r23	; 0x04
    1fc0:	6b 83       	std	Y+3, r22	; 0x03
    1fc2:	89 81       	ldd	r24, Y+1	; 0x01
    1fc4:	9a 81       	ldd	r25, Y+2	; 0x02
    1fc6:	2b 81       	ldd	r18, Y+3	; 0x03
    1fc8:	3c 81       	ldd	r19, Y+4	; 0x04
    1fca:	b9 01       	movw	r22, r18
    1fcc:	40 e0       	ldi	r20, 0x00	; 0
    1fce:	50 e0       	ldi	r21, 0x00	; 0
    1fd0:	0e 94 89 0f 	call	0x1f12	; 0x1f12 <_ZNK6String7indexOfERKS_j>
    1fd4:	0f 90       	pop	r0
    1fd6:	0f 90       	pop	r0
    1fd8:	0f 90       	pop	r0
    1fda:	0f 90       	pop	r0
    1fdc:	cf 91       	pop	r28
    1fde:	df 91       	pop	r29
    1fe0:	08 95       	ret

00001fe2 <_ZNK6String7indexOfEcj>:
    1fe2:	df 93       	push	r29
    1fe4:	cf 93       	push	r28
    1fe6:	cd b7       	in	r28, 0x3d	; 61
    1fe8:	de b7       	in	r29, 0x3e	; 62
    1fea:	29 97       	sbiw	r28, 0x09	; 9
    1fec:	0f b6       	in	r0, 0x3f	; 63
    1fee:	f8 94       	cli
    1ff0:	de bf       	out	0x3e, r29	; 62
    1ff2:	0f be       	out	0x3f, r0	; 63
    1ff4:	cd bf       	out	0x3d, r28	; 61
    1ff6:	9c 83       	std	Y+4, r25	; 0x04
    1ff8:	8b 83       	std	Y+3, r24	; 0x03
    1ffa:	6d 83       	std	Y+5, r22	; 0x05
    1ffc:	5f 83       	std	Y+7, r21	; 0x07
    1ffe:	4e 83       	std	Y+6, r20	; 0x06
    2000:	eb 81       	ldd	r30, Y+3	; 0x03
    2002:	fc 81       	ldd	r31, Y+4	; 0x04
    2004:	24 81       	ldd	r18, Z+4	; 0x04
    2006:	35 81       	ldd	r19, Z+5	; 0x05
    2008:	8e 81       	ldd	r24, Y+6	; 0x06
    200a:	9f 81       	ldd	r25, Y+7	; 0x07
    200c:	82 17       	cp	r24, r18
    200e:	93 07       	cpc	r25, r19
    2010:	28 f0       	brcs	.+10     	; 0x201c <_ZNK6String7indexOfEcj+0x3a>
    2012:	4f ef       	ldi	r20, 0xFF	; 255
    2014:	5f ef       	ldi	r21, 0xFF	; 255
    2016:	59 87       	std	Y+9, r21	; 0x09
    2018:	48 87       	std	Y+8, r20	; 0x08
    201a:	26 c0       	rjmp	.+76     	; 0x2068 <_ZNK6String7indexOfEcj+0x86>
    201c:	eb 81       	ldd	r30, Y+3	; 0x03
    201e:	fc 81       	ldd	r31, Y+4	; 0x04
    2020:	20 81       	ld	r18, Z
    2022:	31 81       	ldd	r19, Z+1	; 0x01
    2024:	8e 81       	ldd	r24, Y+6	; 0x06
    2026:	9f 81       	ldd	r25, Y+7	; 0x07
    2028:	a9 01       	movw	r20, r18
    202a:	48 0f       	add	r20, r24
    202c:	59 1f       	adc	r21, r25
    202e:	8d 81       	ldd	r24, Y+5	; 0x05
    2030:	28 2f       	mov	r18, r24
    2032:	30 e0       	ldi	r19, 0x00	; 0
    2034:	ca 01       	movw	r24, r20
    2036:	b9 01       	movw	r22, r18
    2038:	0e 94 d6 26 	call	0x4dac	; 0x4dac <strchr>
    203c:	9a 83       	std	Y+2, r25	; 0x02
    203e:	89 83       	std	Y+1, r24	; 0x01
    2040:	89 81       	ldd	r24, Y+1	; 0x01
    2042:	9a 81       	ldd	r25, Y+2	; 0x02
    2044:	00 97       	sbiw	r24, 0x00	; 0
    2046:	29 f4       	brne	.+10     	; 0x2052 <_ZNK6String7indexOfEcj+0x70>
    2048:	8f ef       	ldi	r24, 0xFF	; 255
    204a:	9f ef       	ldi	r25, 0xFF	; 255
    204c:	99 87       	std	Y+9, r25	; 0x09
    204e:	88 87       	std	Y+8, r24	; 0x08
    2050:	0b c0       	rjmp	.+22     	; 0x2068 <_ZNK6String7indexOfEcj+0x86>
    2052:	29 81       	ldd	r18, Y+1	; 0x01
    2054:	3a 81       	ldd	r19, Y+2	; 0x02
    2056:	eb 81       	ldd	r30, Y+3	; 0x03
    2058:	fc 81       	ldd	r31, Y+4	; 0x04
    205a:	80 81       	ld	r24, Z
    205c:	91 81       	ldd	r25, Z+1	; 0x01
    205e:	a9 01       	movw	r20, r18
    2060:	48 1b       	sub	r20, r24
    2062:	59 0b       	sbc	r21, r25
    2064:	59 87       	std	Y+9, r21	; 0x09
    2066:	48 87       	std	Y+8, r20	; 0x08
    2068:	88 85       	ldd	r24, Y+8	; 0x08
    206a:	99 85       	ldd	r25, Y+9	; 0x09
    206c:	29 96       	adiw	r28, 0x09	; 9
    206e:	0f b6       	in	r0, 0x3f	; 63
    2070:	f8 94       	cli
    2072:	de bf       	out	0x3e, r29	; 62
    2074:	0f be       	out	0x3f, r0	; 63
    2076:	cd bf       	out	0x3d, r28	; 61
    2078:	cf 91       	pop	r28
    207a:	df 91       	pop	r29
    207c:	08 95       	ret

0000207e <_ZNK6String7indexOfEc>:
    207e:	df 93       	push	r29
    2080:	cf 93       	push	r28
    2082:	00 d0       	rcall	.+0      	; 0x2084 <_ZNK6String7indexOfEc+0x6>
    2084:	0f 92       	push	r0
    2086:	cd b7       	in	r28, 0x3d	; 61
    2088:	de b7       	in	r29, 0x3e	; 62
    208a:	9a 83       	std	Y+2, r25	; 0x02
    208c:	89 83       	std	Y+1, r24	; 0x01
    208e:	6b 83       	std	Y+3, r22	; 0x03
    2090:	89 81       	ldd	r24, Y+1	; 0x01
    2092:	9a 81       	ldd	r25, Y+2	; 0x02
    2094:	6b 81       	ldd	r22, Y+3	; 0x03
    2096:	40 e0       	ldi	r20, 0x00	; 0
    2098:	50 e0       	ldi	r21, 0x00	; 0
    209a:	0e 94 f1 0f 	call	0x1fe2	; 0x1fe2 <_ZNK6String7indexOfEcj>
    209e:	0f 90       	pop	r0
    20a0:	0f 90       	pop	r0
    20a2:	0f 90       	pop	r0
    20a4:	cf 91       	pop	r28
    20a6:	df 91       	pop	r29
    20a8:	08 95       	ret

000020aa <_ZNK6String6equalsERKS_>:
    20aa:	df 93       	push	r29
    20ac:	cf 93       	push	r28
    20ae:	00 d0       	rcall	.+0      	; 0x20b0 <_ZNK6String6equalsERKS_+0x6>
    20b0:	00 d0       	rcall	.+0      	; 0x20b2 <_ZNK6String6equalsERKS_+0x8>
    20b2:	0f 92       	push	r0
    20b4:	cd b7       	in	r28, 0x3d	; 61
    20b6:	de b7       	in	r29, 0x3e	; 62
    20b8:	9a 83       	std	Y+2, r25	; 0x02
    20ba:	89 83       	std	Y+1, r24	; 0x01
    20bc:	7c 83       	std	Y+4, r23	; 0x04
    20be:	6b 83       	std	Y+3, r22	; 0x03
    20c0:	e9 81       	ldd	r30, Y+1	; 0x01
    20c2:	fa 81       	ldd	r31, Y+2	; 0x02
    20c4:	24 81       	ldd	r18, Z+4	; 0x04
    20c6:	35 81       	ldd	r19, Z+5	; 0x05
    20c8:	eb 81       	ldd	r30, Y+3	; 0x03
    20ca:	fc 81       	ldd	r31, Y+4	; 0x04
    20cc:	84 81       	ldd	r24, Z+4	; 0x04
    20ce:	95 81       	ldd	r25, Z+5	; 0x05
    20d0:	28 17       	cp	r18, r24
    20d2:	39 07       	cpc	r19, r25
    20d4:	81 f4       	brne	.+32     	; 0x20f6 <_ZNK6String6equalsERKS_+0x4c>
    20d6:	e9 81       	ldd	r30, Y+1	; 0x01
    20d8:	fa 81       	ldd	r31, Y+2	; 0x02
    20da:	80 81       	ld	r24, Z
    20dc:	91 81       	ldd	r25, Z+1	; 0x01
    20de:	eb 81       	ldd	r30, Y+3	; 0x03
    20e0:	fc 81       	ldd	r31, Y+4	; 0x04
    20e2:	20 81       	ld	r18, Z
    20e4:	31 81       	ldd	r19, Z+1	; 0x01
    20e6:	b9 01       	movw	r22, r18
    20e8:	0e 94 e1 26 	call	0x4dc2	; 0x4dc2 <strcmp>
    20ec:	00 97       	sbiw	r24, 0x00	; 0
    20ee:	19 f4       	brne	.+6      	; 0x20f6 <_ZNK6String6equalsERKS_+0x4c>
    20f0:	81 e0       	ldi	r24, 0x01	; 1
    20f2:	8d 83       	std	Y+5, r24	; 0x05
    20f4:	01 c0       	rjmp	.+2      	; 0x20f8 <_ZNK6String6equalsERKS_+0x4e>
    20f6:	1d 82       	std	Y+5, r1	; 0x05
    20f8:	8d 81       	ldd	r24, Y+5	; 0x05
    20fa:	0f 90       	pop	r0
    20fc:	0f 90       	pop	r0
    20fe:	0f 90       	pop	r0
    2100:	0f 90       	pop	r0
    2102:	0f 90       	pop	r0
    2104:	cf 91       	pop	r28
    2106:	df 91       	pop	r29
    2108:	08 95       	ret

0000210a <_ZNK6String8endsWithERKS_>:
    210a:	df 93       	push	r29
    210c:	cf 93       	push	r28
    210e:	00 d0       	rcall	.+0      	; 0x2110 <_ZNK6String8endsWithERKS_+0x6>
    2110:	00 d0       	rcall	.+0      	; 0x2112 <_ZNK6String8endsWithERKS_+0x8>
    2112:	0f 92       	push	r0
    2114:	cd b7       	in	r28, 0x3d	; 61
    2116:	de b7       	in	r29, 0x3e	; 62
    2118:	9a 83       	std	Y+2, r25	; 0x02
    211a:	89 83       	std	Y+1, r24	; 0x01
    211c:	7c 83       	std	Y+4, r23	; 0x04
    211e:	6b 83       	std	Y+3, r22	; 0x03
    2120:	e9 81       	ldd	r30, Y+1	; 0x01
    2122:	fa 81       	ldd	r31, Y+2	; 0x02
    2124:	24 81       	ldd	r18, Z+4	; 0x04
    2126:	35 81       	ldd	r19, Z+5	; 0x05
    2128:	eb 81       	ldd	r30, Y+3	; 0x03
    212a:	fc 81       	ldd	r31, Y+4	; 0x04
    212c:	84 81       	ldd	r24, Z+4	; 0x04
    212e:	95 81       	ldd	r25, Z+5	; 0x05
    2130:	28 17       	cp	r18, r24
    2132:	39 07       	cpc	r19, r25
    2134:	10 f4       	brcc	.+4      	; 0x213a <_ZNK6String8endsWithERKS_+0x30>
    2136:	1d 82       	std	Y+5, r1	; 0x05
    2138:	1e c0       	rjmp	.+60     	; 0x2176 <_ZNK6String8endsWithERKS_+0x6c>
    213a:	e9 81       	ldd	r30, Y+1	; 0x01
    213c:	fa 81       	ldd	r31, Y+2	; 0x02
    213e:	40 81       	ld	r20, Z
    2140:	51 81       	ldd	r21, Z+1	; 0x01
    2142:	e9 81       	ldd	r30, Y+1	; 0x01
    2144:	fa 81       	ldd	r31, Y+2	; 0x02
    2146:	24 81       	ldd	r18, Z+4	; 0x04
    2148:	35 81       	ldd	r19, Z+5	; 0x05
    214a:	eb 81       	ldd	r30, Y+3	; 0x03
    214c:	fc 81       	ldd	r31, Y+4	; 0x04
    214e:	84 81       	ldd	r24, Z+4	; 0x04
    2150:	95 81       	ldd	r25, Z+5	; 0x05
    2152:	b9 01       	movw	r22, r18
    2154:	68 1b       	sub	r22, r24
    2156:	79 0b       	sbc	r23, r25
    2158:	cb 01       	movw	r24, r22
    215a:	84 0f       	add	r24, r20
    215c:	95 1f       	adc	r25, r21
    215e:	eb 81       	ldd	r30, Y+3	; 0x03
    2160:	fc 81       	ldd	r31, Y+4	; 0x04
    2162:	20 81       	ld	r18, Z
    2164:	31 81       	ldd	r19, Z+1	; 0x01
    2166:	b9 01       	movw	r22, r18
    2168:	0e 94 e1 26 	call	0x4dc2	; 0x4dc2 <strcmp>
    216c:	1d 82       	std	Y+5, r1	; 0x05
    216e:	00 97       	sbiw	r24, 0x00	; 0
    2170:	11 f4       	brne	.+4      	; 0x2176 <_ZNK6String8endsWithERKS_+0x6c>
    2172:	71 e0       	ldi	r23, 0x01	; 1
    2174:	7d 83       	std	Y+5, r23	; 0x05
    2176:	8d 81       	ldd	r24, Y+5	; 0x05
    2178:	0f 90       	pop	r0
    217a:	0f 90       	pop	r0
    217c:	0f 90       	pop	r0
    217e:	0f 90       	pop	r0
    2180:	0f 90       	pop	r0
    2182:	cf 91       	pop	r28
    2184:	df 91       	pop	r29
    2186:	08 95       	ret

00002188 <_ZNK6StringgeERKS_>:
    2188:	df 93       	push	r29
    218a:	cf 93       	push	r28
    218c:	00 d0       	rcall	.+0      	; 0x218e <_ZNK6StringgeERKS_+0x6>
    218e:	00 d0       	rcall	.+0      	; 0x2190 <_ZNK6StringgeERKS_+0x8>
    2190:	00 d0       	rcall	.+0      	; 0x2192 <_ZNK6StringgeERKS_+0xa>
    2192:	cd b7       	in	r28, 0x3d	; 61
    2194:	de b7       	in	r29, 0x3e	; 62
    2196:	9a 83       	std	Y+2, r25	; 0x02
    2198:	89 83       	std	Y+1, r24	; 0x01
    219a:	7c 83       	std	Y+4, r23	; 0x04
    219c:	6b 83       	std	Y+3, r22	; 0x03
    219e:	e9 81       	ldd	r30, Y+1	; 0x01
    21a0:	fa 81       	ldd	r31, Y+2	; 0x02
    21a2:	80 81       	ld	r24, Z
    21a4:	91 81       	ldd	r25, Z+1	; 0x01
    21a6:	eb 81       	ldd	r30, Y+3	; 0x03
    21a8:	fc 81       	ldd	r31, Y+4	; 0x04
    21aa:	20 81       	ld	r18, Z
    21ac:	31 81       	ldd	r19, Z+1	; 0x01
    21ae:	b9 01       	movw	r22, r18
    21b0:	0e 94 e1 26 	call	0x4dc2	; 0x4dc2 <strcmp>
    21b4:	1e 82       	std	Y+6, r1	; 0x06
    21b6:	1d 82       	std	Y+5, r1	; 0x05
    21b8:	99 23       	and	r25, r25
    21ba:	24 f0       	brlt	.+8      	; 0x21c4 <_ZNK6StringgeERKS_+0x3c>
    21bc:	81 e0       	ldi	r24, 0x01	; 1
    21be:	90 e0       	ldi	r25, 0x00	; 0
    21c0:	9e 83       	std	Y+6, r25	; 0x06
    21c2:	8d 83       	std	Y+5, r24	; 0x05
    21c4:	8d 81       	ldd	r24, Y+5	; 0x05
    21c6:	9e 81       	ldd	r25, Y+6	; 0x06
    21c8:	26 96       	adiw	r28, 0x06	; 6
    21ca:	0f b6       	in	r0, 0x3f	; 63
    21cc:	f8 94       	cli
    21ce:	de bf       	out	0x3e, r29	; 62
    21d0:	0f be       	out	0x3f, r0	; 63
    21d2:	cd bf       	out	0x3d, r28	; 61
    21d4:	cf 91       	pop	r28
    21d6:	df 91       	pop	r29
    21d8:	08 95       	ret

000021da <_ZNK6StringleERKS_>:
    21da:	df 93       	push	r29
    21dc:	cf 93       	push	r28
    21de:	00 d0       	rcall	.+0      	; 0x21e0 <_ZNK6StringleERKS_+0x6>
    21e0:	00 d0       	rcall	.+0      	; 0x21e2 <_ZNK6StringleERKS_+0x8>
    21e2:	00 d0       	rcall	.+0      	; 0x21e4 <_ZNK6StringleERKS_+0xa>
    21e4:	cd b7       	in	r28, 0x3d	; 61
    21e6:	de b7       	in	r29, 0x3e	; 62
    21e8:	9a 83       	std	Y+2, r25	; 0x02
    21ea:	89 83       	std	Y+1, r24	; 0x01
    21ec:	7c 83       	std	Y+4, r23	; 0x04
    21ee:	6b 83       	std	Y+3, r22	; 0x03
    21f0:	e9 81       	ldd	r30, Y+1	; 0x01
    21f2:	fa 81       	ldd	r31, Y+2	; 0x02
    21f4:	80 81       	ld	r24, Z
    21f6:	91 81       	ldd	r25, Z+1	; 0x01
    21f8:	eb 81       	ldd	r30, Y+3	; 0x03
    21fa:	fc 81       	ldd	r31, Y+4	; 0x04
    21fc:	20 81       	ld	r18, Z
    21fe:	31 81       	ldd	r19, Z+1	; 0x01
    2200:	b9 01       	movw	r22, r18
    2202:	0e 94 e1 26 	call	0x4dc2	; 0x4dc2 <strcmp>
    2206:	1e 82       	std	Y+6, r1	; 0x06
    2208:	1d 82       	std	Y+5, r1	; 0x05
    220a:	18 16       	cp	r1, r24
    220c:	19 06       	cpc	r1, r25
    220e:	24 f0       	brlt	.+8      	; 0x2218 <_ZNK6StringleERKS_+0x3e>
    2210:	81 e0       	ldi	r24, 0x01	; 1
    2212:	90 e0       	ldi	r25, 0x00	; 0
    2214:	9e 83       	std	Y+6, r25	; 0x06
    2216:	8d 83       	std	Y+5, r24	; 0x05
    2218:	8d 81       	ldd	r24, Y+5	; 0x05
    221a:	9e 81       	ldd	r25, Y+6	; 0x06
    221c:	26 96       	adiw	r28, 0x06	; 6
    221e:	0f b6       	in	r0, 0x3f	; 63
    2220:	f8 94       	cli
    2222:	de bf       	out	0x3e, r29	; 62
    2224:	0f be       	out	0x3f, r0	; 63
    2226:	cd bf       	out	0x3d, r28	; 61
    2228:	cf 91       	pop	r28
    222a:	df 91       	pop	r29
    222c:	08 95       	ret

0000222e <_ZNK6StringgtERKS_>:
    222e:	df 93       	push	r29
    2230:	cf 93       	push	r28
    2232:	00 d0       	rcall	.+0      	; 0x2234 <_ZNK6StringgtERKS_+0x6>
    2234:	00 d0       	rcall	.+0      	; 0x2236 <_ZNK6StringgtERKS_+0x8>
    2236:	00 d0       	rcall	.+0      	; 0x2238 <_ZNK6StringgtERKS_+0xa>
    2238:	cd b7       	in	r28, 0x3d	; 61
    223a:	de b7       	in	r29, 0x3e	; 62
    223c:	9a 83       	std	Y+2, r25	; 0x02
    223e:	89 83       	std	Y+1, r24	; 0x01
    2240:	7c 83       	std	Y+4, r23	; 0x04
    2242:	6b 83       	std	Y+3, r22	; 0x03
    2244:	e9 81       	ldd	r30, Y+1	; 0x01
    2246:	fa 81       	ldd	r31, Y+2	; 0x02
    2248:	80 81       	ld	r24, Z
    224a:	91 81       	ldd	r25, Z+1	; 0x01
    224c:	eb 81       	ldd	r30, Y+3	; 0x03
    224e:	fc 81       	ldd	r31, Y+4	; 0x04
    2250:	20 81       	ld	r18, Z
    2252:	31 81       	ldd	r19, Z+1	; 0x01
    2254:	b9 01       	movw	r22, r18
    2256:	0e 94 e1 26 	call	0x4dc2	; 0x4dc2 <strcmp>
    225a:	1e 82       	std	Y+6, r1	; 0x06
    225c:	1d 82       	std	Y+5, r1	; 0x05
    225e:	18 16       	cp	r1, r24
    2260:	19 06       	cpc	r1, r25
    2262:	24 f4       	brge	.+8      	; 0x226c <_ZNK6StringgtERKS_+0x3e>
    2264:	81 e0       	ldi	r24, 0x01	; 1
    2266:	90 e0       	ldi	r25, 0x00	; 0
    2268:	9e 83       	std	Y+6, r25	; 0x06
    226a:	8d 83       	std	Y+5, r24	; 0x05
    226c:	8d 81       	ldd	r24, Y+5	; 0x05
    226e:	9e 81       	ldd	r25, Y+6	; 0x06
    2270:	26 96       	adiw	r28, 0x06	; 6
    2272:	0f b6       	in	r0, 0x3f	; 63
    2274:	f8 94       	cli
    2276:	de bf       	out	0x3e, r29	; 62
    2278:	0f be       	out	0x3f, r0	; 63
    227a:	cd bf       	out	0x3d, r28	; 61
    227c:	cf 91       	pop	r28
    227e:	df 91       	pop	r29
    2280:	08 95       	ret

00002282 <_ZNK6StringltERKS_>:
    2282:	df 93       	push	r29
    2284:	cf 93       	push	r28
    2286:	00 d0       	rcall	.+0      	; 0x2288 <_ZNK6StringltERKS_+0x6>
    2288:	00 d0       	rcall	.+0      	; 0x228a <_ZNK6StringltERKS_+0x8>
    228a:	00 d0       	rcall	.+0      	; 0x228c <_ZNK6StringltERKS_+0xa>
    228c:	cd b7       	in	r28, 0x3d	; 61
    228e:	de b7       	in	r29, 0x3e	; 62
    2290:	9a 83       	std	Y+2, r25	; 0x02
    2292:	89 83       	std	Y+1, r24	; 0x01
    2294:	7c 83       	std	Y+4, r23	; 0x04
    2296:	6b 83       	std	Y+3, r22	; 0x03
    2298:	e9 81       	ldd	r30, Y+1	; 0x01
    229a:	fa 81       	ldd	r31, Y+2	; 0x02
    229c:	80 81       	ld	r24, Z
    229e:	91 81       	ldd	r25, Z+1	; 0x01
    22a0:	eb 81       	ldd	r30, Y+3	; 0x03
    22a2:	fc 81       	ldd	r31, Y+4	; 0x04
    22a4:	20 81       	ld	r18, Z
    22a6:	31 81       	ldd	r19, Z+1	; 0x01
    22a8:	b9 01       	movw	r22, r18
    22aa:	0e 94 e1 26 	call	0x4dc2	; 0x4dc2 <strcmp>
    22ae:	1e 82       	std	Y+6, r1	; 0x06
    22b0:	1d 82       	std	Y+5, r1	; 0x05
    22b2:	99 23       	and	r25, r25
    22b4:	24 f4       	brge	.+8      	; 0x22be <_ZNK6StringltERKS_+0x3c>
    22b6:	81 e0       	ldi	r24, 0x01	; 1
    22b8:	90 e0       	ldi	r25, 0x00	; 0
    22ba:	9e 83       	std	Y+6, r25	; 0x06
    22bc:	8d 83       	std	Y+5, r24	; 0x05
    22be:	8d 81       	ldd	r24, Y+5	; 0x05
    22c0:	9e 81       	ldd	r25, Y+6	; 0x06
    22c2:	26 96       	adiw	r28, 0x06	; 6
    22c4:	0f b6       	in	r0, 0x3f	; 63
    22c6:	f8 94       	cli
    22c8:	de bf       	out	0x3e, r29	; 62
    22ca:	0f be       	out	0x3f, r0	; 63
    22cc:	cd bf       	out	0x3d, r28	; 61
    22ce:	cf 91       	pop	r28
    22d0:	df 91       	pop	r29
    22d2:	08 95       	ret

000022d4 <_ZNK6StringneERKS_>:
    22d4:	0f 93       	push	r16
    22d6:	1f 93       	push	r17
    22d8:	df 93       	push	r29
    22da:	cf 93       	push	r28
    22dc:	00 d0       	rcall	.+0      	; 0x22de <_ZNK6StringneERKS_+0xa>
    22de:	00 d0       	rcall	.+0      	; 0x22e0 <_ZNK6StringneERKS_+0xc>
    22e0:	0f 92       	push	r0
    22e2:	cd b7       	in	r28, 0x3d	; 61
    22e4:	de b7       	in	r29, 0x3e	; 62
    22e6:	9a 83       	std	Y+2, r25	; 0x02
    22e8:	89 83       	std	Y+1, r24	; 0x01
    22ea:	7c 83       	std	Y+4, r23	; 0x04
    22ec:	6b 83       	std	Y+3, r22	; 0x03
    22ee:	e9 81       	ldd	r30, Y+1	; 0x01
    22f0:	fa 81       	ldd	r31, Y+2	; 0x02
    22f2:	04 81       	ldd	r16, Z+4	; 0x04
    22f4:	15 81       	ldd	r17, Z+5	; 0x05
    22f6:	8b 81       	ldd	r24, Y+3	; 0x03
    22f8:	9c 81       	ldd	r25, Y+4	; 0x04
    22fa:	0e 94 fd 07 	call	0xffa	; 0xffa <_ZNK6String6lengthEv>
    22fe:	08 17       	cp	r16, r24
    2300:	19 07       	cpc	r17, r25
    2302:	69 f4       	brne	.+26     	; 0x231e <_ZNK6StringneERKS_+0x4a>
    2304:	e9 81       	ldd	r30, Y+1	; 0x01
    2306:	fa 81       	ldd	r31, Y+2	; 0x02
    2308:	80 81       	ld	r24, Z
    230a:	91 81       	ldd	r25, Z+1	; 0x01
    230c:	eb 81       	ldd	r30, Y+3	; 0x03
    230e:	fc 81       	ldd	r31, Y+4	; 0x04
    2310:	20 81       	ld	r18, Z
    2312:	31 81       	ldd	r19, Z+1	; 0x01
    2314:	b9 01       	movw	r22, r18
    2316:	0e 94 e1 26 	call	0x4dc2	; 0x4dc2 <strcmp>
    231a:	00 97       	sbiw	r24, 0x00	; 0
    231c:	19 f0       	breq	.+6      	; 0x2324 <_ZNK6StringneERKS_+0x50>
    231e:	21 e0       	ldi	r18, 0x01	; 1
    2320:	2d 83       	std	Y+5, r18	; 0x05
    2322:	01 c0       	rjmp	.+2      	; 0x2326 <_ZNK6StringneERKS_+0x52>
    2324:	1d 82       	std	Y+5, r1	; 0x05
    2326:	2d 81       	ldd	r18, Y+5	; 0x05
    2328:	82 2f       	mov	r24, r18
    232a:	90 e0       	ldi	r25, 0x00	; 0
    232c:	0f 90       	pop	r0
    232e:	0f 90       	pop	r0
    2330:	0f 90       	pop	r0
    2332:	0f 90       	pop	r0
    2334:	0f 90       	pop	r0
    2336:	cf 91       	pop	r28
    2338:	df 91       	pop	r29
    233a:	1f 91       	pop	r17
    233c:	0f 91       	pop	r16
    233e:	08 95       	ret

00002340 <_ZNK6StringeqERKS_>:
    2340:	df 93       	push	r29
    2342:	cf 93       	push	r28
    2344:	00 d0       	rcall	.+0      	; 0x2346 <_ZNK6StringeqERKS_+0x6>
    2346:	00 d0       	rcall	.+0      	; 0x2348 <_ZNK6StringeqERKS_+0x8>
    2348:	0f 92       	push	r0
    234a:	cd b7       	in	r28, 0x3d	; 61
    234c:	de b7       	in	r29, 0x3e	; 62
    234e:	9a 83       	std	Y+2, r25	; 0x02
    2350:	89 83       	std	Y+1, r24	; 0x01
    2352:	7c 83       	std	Y+4, r23	; 0x04
    2354:	6b 83       	std	Y+3, r22	; 0x03
    2356:	e9 81       	ldd	r30, Y+1	; 0x01
    2358:	fa 81       	ldd	r31, Y+2	; 0x02
    235a:	24 81       	ldd	r18, Z+4	; 0x04
    235c:	35 81       	ldd	r19, Z+5	; 0x05
    235e:	eb 81       	ldd	r30, Y+3	; 0x03
    2360:	fc 81       	ldd	r31, Y+4	; 0x04
    2362:	84 81       	ldd	r24, Z+4	; 0x04
    2364:	95 81       	ldd	r25, Z+5	; 0x05
    2366:	28 17       	cp	r18, r24
    2368:	39 07       	cpc	r19, r25
    236a:	81 f4       	brne	.+32     	; 0x238c <_ZNK6StringeqERKS_+0x4c>
    236c:	e9 81       	ldd	r30, Y+1	; 0x01
    236e:	fa 81       	ldd	r31, Y+2	; 0x02
    2370:	80 81       	ld	r24, Z
    2372:	91 81       	ldd	r25, Z+1	; 0x01
    2374:	eb 81       	ldd	r30, Y+3	; 0x03
    2376:	fc 81       	ldd	r31, Y+4	; 0x04
    2378:	20 81       	ld	r18, Z
    237a:	31 81       	ldd	r19, Z+1	; 0x01
    237c:	b9 01       	movw	r22, r18
    237e:	0e 94 e1 26 	call	0x4dc2	; 0x4dc2 <strcmp>
    2382:	00 97       	sbiw	r24, 0x00	; 0
    2384:	19 f4       	brne	.+6      	; 0x238c <_ZNK6StringeqERKS_+0x4c>
    2386:	21 e0       	ldi	r18, 0x01	; 1
    2388:	2d 83       	std	Y+5, r18	; 0x05
    238a:	01 c0       	rjmp	.+2      	; 0x238e <_ZNK6StringeqERKS_+0x4e>
    238c:	1d 82       	std	Y+5, r1	; 0x05
    238e:	2d 81       	ldd	r18, Y+5	; 0x05
    2390:	82 2f       	mov	r24, r18
    2392:	90 e0       	ldi	r25, 0x00	; 0
    2394:	0f 90       	pop	r0
    2396:	0f 90       	pop	r0
    2398:	0f 90       	pop	r0
    239a:	0f 90       	pop	r0
    239c:	0f 90       	pop	r0
    239e:	cf 91       	pop	r28
    23a0:	df 91       	pop	r29
    23a2:	08 95       	ret

000023a4 <_ZNK6String9compareToERKS_>:
    23a4:	df 93       	push	r29
    23a6:	cf 93       	push	r28
    23a8:	00 d0       	rcall	.+0      	; 0x23aa <_ZNK6String9compareToERKS_+0x6>
    23aa:	00 d0       	rcall	.+0      	; 0x23ac <_ZNK6String9compareToERKS_+0x8>
    23ac:	cd b7       	in	r28, 0x3d	; 61
    23ae:	de b7       	in	r29, 0x3e	; 62
    23b0:	9a 83       	std	Y+2, r25	; 0x02
    23b2:	89 83       	std	Y+1, r24	; 0x01
    23b4:	7c 83       	std	Y+4, r23	; 0x04
    23b6:	6b 83       	std	Y+3, r22	; 0x03
    23b8:	e9 81       	ldd	r30, Y+1	; 0x01
    23ba:	fa 81       	ldd	r31, Y+2	; 0x02
    23bc:	80 81       	ld	r24, Z
    23be:	91 81       	ldd	r25, Z+1	; 0x01
    23c0:	eb 81       	ldd	r30, Y+3	; 0x03
    23c2:	fc 81       	ldd	r31, Y+4	; 0x04
    23c4:	20 81       	ld	r18, Z
    23c6:	31 81       	ldd	r19, Z+1	; 0x01
    23c8:	b9 01       	movw	r22, r18
    23ca:	0e 94 e1 26 	call	0x4dc2	; 0x4dc2 <strcmp>
    23ce:	0f 90       	pop	r0
    23d0:	0f 90       	pop	r0
    23d2:	0f 90       	pop	r0
    23d4:	0f 90       	pop	r0
    23d6:	cf 91       	pop	r28
    23d8:	df 91       	pop	r29
    23da:	08 95       	ret

000023dc <_ZN6String9getBufferEj>:
    23dc:	df 93       	push	r29
    23de:	cf 93       	push	r28
    23e0:	00 d0       	rcall	.+0      	; 0x23e2 <_ZN6String9getBufferEj+0x6>
    23e2:	00 d0       	rcall	.+0      	; 0x23e4 <_ZN6String9getBufferEj+0x8>
    23e4:	cd b7       	in	r28, 0x3d	; 61
    23e6:	de b7       	in	r29, 0x3e	; 62
    23e8:	9a 83       	std	Y+2, r25	; 0x02
    23ea:	89 83       	std	Y+1, r24	; 0x01
    23ec:	7c 83       	std	Y+4, r23	; 0x04
    23ee:	6b 83       	std	Y+3, r22	; 0x03
    23f0:	e9 81       	ldd	r30, Y+1	; 0x01
    23f2:	fa 81       	ldd	r31, Y+2	; 0x02
    23f4:	8b 81       	ldd	r24, Y+3	; 0x03
    23f6:	9c 81       	ldd	r25, Y+4	; 0x04
    23f8:	93 83       	std	Z+3, r25	; 0x03
    23fa:	82 83       	std	Z+2, r24	; 0x02
    23fc:	e9 81       	ldd	r30, Y+1	; 0x01
    23fe:	fa 81       	ldd	r31, Y+2	; 0x02
    2400:	82 81       	ldd	r24, Z+2	; 0x02
    2402:	93 81       	ldd	r25, Z+3	; 0x03
    2404:	01 96       	adiw	r24, 0x01	; 1
    2406:	0e 94 ae 25 	call	0x4b5c	; 0x4b5c <malloc>
    240a:	e9 81       	ldd	r30, Y+1	; 0x01
    240c:	fa 81       	ldd	r31, Y+2	; 0x02
    240e:	91 83       	std	Z+1, r25	; 0x01
    2410:	80 83       	st	Z, r24
    2412:	e9 81       	ldd	r30, Y+1	; 0x01
    2414:	fa 81       	ldd	r31, Y+2	; 0x02
    2416:	80 81       	ld	r24, Z
    2418:	91 81       	ldd	r25, Z+1	; 0x01
    241a:	00 97       	sbiw	r24, 0x00	; 0
    241c:	61 f4       	brne	.+24     	; 0x2436 <_ZN6String9getBufferEj+0x5a>
    241e:	e9 81       	ldd	r30, Y+1	; 0x01
    2420:	fa 81       	ldd	r31, Y+2	; 0x02
    2422:	13 82       	std	Z+3, r1	; 0x03
    2424:	12 82       	std	Z+2, r1	; 0x02
    2426:	e9 81       	ldd	r30, Y+1	; 0x01
    2428:	fa 81       	ldd	r31, Y+2	; 0x02
    242a:	82 81       	ldd	r24, Z+2	; 0x02
    242c:	93 81       	ldd	r25, Z+3	; 0x03
    242e:	e9 81       	ldd	r30, Y+1	; 0x01
    2430:	fa 81       	ldd	r31, Y+2	; 0x02
    2432:	95 83       	std	Z+5, r25	; 0x05
    2434:	84 83       	std	Z+4, r24	; 0x04
    2436:	0f 90       	pop	r0
    2438:	0f 90       	pop	r0
    243a:	0f 90       	pop	r0
    243c:	0f 90       	pop	r0
    243e:	cf 91       	pop	r28
    2440:	df 91       	pop	r29
    2442:	08 95       	ret

00002444 <_ZN6StringpLERKS_>:
    2444:	df 93       	push	r29
    2446:	cf 93       	push	r28
    2448:	00 d0       	rcall	.+0      	; 0x244a <_ZN6StringpLERKS_+0x6>
    244a:	00 d0       	rcall	.+0      	; 0x244c <_ZN6StringpLERKS_+0x8>
    244c:	00 d0       	rcall	.+0      	; 0x244e <_ZN6StringpLERKS_+0xa>
    244e:	cd b7       	in	r28, 0x3d	; 61
    2450:	de b7       	in	r29, 0x3e	; 62
    2452:	9c 83       	std	Y+4, r25	; 0x04
    2454:	8b 83       	std	Y+3, r24	; 0x03
    2456:	7e 83       	std	Y+6, r23	; 0x06
    2458:	6d 83       	std	Y+5, r22	; 0x05
    245a:	eb 81       	ldd	r30, Y+3	; 0x03
    245c:	fc 81       	ldd	r31, Y+4	; 0x04
    245e:	24 81       	ldd	r18, Z+4	; 0x04
    2460:	35 81       	ldd	r19, Z+5	; 0x05
    2462:	ed 81       	ldd	r30, Y+5	; 0x05
    2464:	fe 81       	ldd	r31, Y+6	; 0x06
    2466:	84 81       	ldd	r24, Z+4	; 0x04
    2468:	95 81       	ldd	r25, Z+5	; 0x05
    246a:	82 0f       	add	r24, r18
    246c:	93 1f       	adc	r25, r19
    246e:	eb 81       	ldd	r30, Y+3	; 0x03
    2470:	fc 81       	ldd	r31, Y+4	; 0x04
    2472:	95 83       	std	Z+5, r25	; 0x05
    2474:	84 83       	std	Z+4, r24	; 0x04
    2476:	eb 81       	ldd	r30, Y+3	; 0x03
    2478:	fc 81       	ldd	r31, Y+4	; 0x04
    247a:	24 81       	ldd	r18, Z+4	; 0x04
    247c:	35 81       	ldd	r19, Z+5	; 0x05
    247e:	eb 81       	ldd	r30, Y+3	; 0x03
    2480:	fc 81       	ldd	r31, Y+4	; 0x04
    2482:	82 81       	ldd	r24, Z+2	; 0x02
    2484:	93 81       	ldd	r25, Z+3	; 0x03
    2486:	82 17       	cp	r24, r18
    2488:	93 07       	cpc	r25, r19
    248a:	10 f5       	brcc	.+68     	; 0x24d0 <_ZN6StringpLERKS_+0x8c>
    248c:	eb 81       	ldd	r30, Y+3	; 0x03
    248e:	fc 81       	ldd	r31, Y+4	; 0x04
    2490:	80 81       	ld	r24, Z
    2492:	91 81       	ldd	r25, Z+1	; 0x01
    2494:	9a 83       	std	Y+2, r25	; 0x02
    2496:	89 83       	std	Y+1, r24	; 0x01
    2498:	eb 81       	ldd	r30, Y+3	; 0x03
    249a:	fc 81       	ldd	r31, Y+4	; 0x04
    249c:	24 81       	ldd	r18, Z+4	; 0x04
    249e:	35 81       	ldd	r19, Z+5	; 0x05
    24a0:	8b 81       	ldd	r24, Y+3	; 0x03
    24a2:	9c 81       	ldd	r25, Y+4	; 0x04
    24a4:	b9 01       	movw	r22, r18
    24a6:	0e 94 ee 11 	call	0x23dc	; 0x23dc <_ZN6String9getBufferEj>
    24aa:	eb 81       	ldd	r30, Y+3	; 0x03
    24ac:	fc 81       	ldd	r31, Y+4	; 0x04
    24ae:	80 81       	ld	r24, Z
    24b0:	91 81       	ldd	r25, Z+1	; 0x01
    24b2:	00 97       	sbiw	r24, 0x00	; 0
    24b4:	49 f0       	breq	.+18     	; 0x24c8 <_ZN6StringpLERKS_+0x84>
    24b6:	eb 81       	ldd	r30, Y+3	; 0x03
    24b8:	fc 81       	ldd	r31, Y+4	; 0x04
    24ba:	80 81       	ld	r24, Z
    24bc:	91 81       	ldd	r25, Z+1	; 0x01
    24be:	29 81       	ldd	r18, Y+1	; 0x01
    24c0:	3a 81       	ldd	r19, Y+2	; 0x02
    24c2:	b9 01       	movw	r22, r18
    24c4:	0e 94 ea 26 	call	0x4dd4	; 0x4dd4 <strcpy>
    24c8:	89 81       	ldd	r24, Y+1	; 0x01
    24ca:	9a 81       	ldd	r25, Y+2	; 0x02
    24cc:	0e 94 5b 26 	call	0x4cb6	; 0x4cb6 <free>
    24d0:	eb 81       	ldd	r30, Y+3	; 0x03
    24d2:	fc 81       	ldd	r31, Y+4	; 0x04
    24d4:	80 81       	ld	r24, Z
    24d6:	91 81       	ldd	r25, Z+1	; 0x01
    24d8:	00 97       	sbiw	r24, 0x00	; 0
    24da:	59 f0       	breq	.+22     	; 0x24f2 <_ZN6StringpLERKS_+0xae>
    24dc:	eb 81       	ldd	r30, Y+3	; 0x03
    24de:	fc 81       	ldd	r31, Y+4	; 0x04
    24e0:	80 81       	ld	r24, Z
    24e2:	91 81       	ldd	r25, Z+1	; 0x01
    24e4:	ed 81       	ldd	r30, Y+5	; 0x05
    24e6:	fe 81       	ldd	r31, Y+6	; 0x06
    24e8:	20 81       	ld	r18, Z
    24ea:	31 81       	ldd	r19, Z+1	; 0x01
    24ec:	b9 01       	movw	r22, r18
    24ee:	0e 94 cb 26 	call	0x4d96	; 0x4d96 <strcat>
    24f2:	8b 81       	ldd	r24, Y+3	; 0x03
    24f4:	9c 81       	ldd	r25, Y+4	; 0x04
    24f6:	26 96       	adiw	r28, 0x06	; 6
    24f8:	0f b6       	in	r0, 0x3f	; 63
    24fa:	f8 94       	cli
    24fc:	de bf       	out	0x3e, r29	; 62
    24fe:	0f be       	out	0x3f, r0	; 63
    2500:	cd bf       	out	0x3d, r28	; 61
    2502:	cf 91       	pop	r28
    2504:	df 91       	pop	r29
    2506:	08 95       	ret

00002508 <_ZN6String6concatERKS_>:
    2508:	df 93       	push	r29
    250a:	cf 93       	push	r28
    250c:	00 d0       	rcall	.+0      	; 0x250e <_ZN6String6concatERKS_+0x6>
    250e:	00 d0       	rcall	.+0      	; 0x2510 <_ZN6String6concatERKS_+0x8>
    2510:	cd b7       	in	r28, 0x3d	; 61
    2512:	de b7       	in	r29, 0x3e	; 62
    2514:	9a 83       	std	Y+2, r25	; 0x02
    2516:	89 83       	std	Y+1, r24	; 0x01
    2518:	7c 83       	std	Y+4, r23	; 0x04
    251a:	6b 83       	std	Y+3, r22	; 0x03
    251c:	89 81       	ldd	r24, Y+1	; 0x01
    251e:	9a 81       	ldd	r25, Y+2	; 0x02
    2520:	2b 81       	ldd	r18, Y+3	; 0x03
    2522:	3c 81       	ldd	r19, Y+4	; 0x04
    2524:	b9 01       	movw	r22, r18
    2526:	0e 94 22 12 	call	0x2444	; 0x2444 <_ZN6StringpLERKS_>
    252a:	0f 90       	pop	r0
    252c:	0f 90       	pop	r0
    252e:	0f 90       	pop	r0
    2530:	0f 90       	pop	r0
    2532:	cf 91       	pop	r28
    2534:	df 91       	pop	r29
    2536:	08 95       	ret

00002538 <_ZN6StringaSERKS_>:
    2538:	df 93       	push	r29
    253a:	cf 93       	push	r28
    253c:	00 d0       	rcall	.+0      	; 0x253e <_ZN6StringaSERKS_+0x6>
    253e:	00 d0       	rcall	.+0      	; 0x2540 <_ZN6StringaSERKS_+0x8>
    2540:	00 d0       	rcall	.+0      	; 0x2542 <_ZN6StringaSERKS_+0xa>
    2542:	cd b7       	in	r28, 0x3d	; 61
    2544:	de b7       	in	r29, 0x3e	; 62
    2546:	9a 83       	std	Y+2, r25	; 0x02
    2548:	89 83       	std	Y+1, r24	; 0x01
    254a:	7c 83       	std	Y+4, r23	; 0x04
    254c:	6b 83       	std	Y+3, r22	; 0x03
    254e:	29 81       	ldd	r18, Y+1	; 0x01
    2550:	3a 81       	ldd	r19, Y+2	; 0x02
    2552:	8b 81       	ldd	r24, Y+3	; 0x03
    2554:	9c 81       	ldd	r25, Y+4	; 0x04
    2556:	28 17       	cp	r18, r24
    2558:	39 07       	cpc	r19, r25
    255a:	29 f4       	brne	.+10     	; 0x2566 <_ZN6StringaSERKS_+0x2e>
    255c:	89 81       	ldd	r24, Y+1	; 0x01
    255e:	9a 81       	ldd	r25, Y+2	; 0x02
    2560:	9e 83       	std	Y+6, r25	; 0x06
    2562:	8d 83       	std	Y+5, r24	; 0x05
    2564:	37 c0       	rjmp	.+110    	; 0x25d4 <_ZN6StringaSERKS_+0x9c>
    2566:	eb 81       	ldd	r30, Y+3	; 0x03
    2568:	fc 81       	ldd	r31, Y+4	; 0x04
    256a:	24 81       	ldd	r18, Z+4	; 0x04
    256c:	35 81       	ldd	r19, Z+5	; 0x05
    256e:	e9 81       	ldd	r30, Y+1	; 0x01
    2570:	fa 81       	ldd	r31, Y+2	; 0x02
    2572:	84 81       	ldd	r24, Z+4	; 0x04
    2574:	95 81       	ldd	r25, Z+5	; 0x05
    2576:	82 17       	cp	r24, r18
    2578:	93 07       	cpc	r25, r19
    257a:	78 f4       	brcc	.+30     	; 0x259a <_ZN6StringaSERKS_+0x62>
    257c:	e9 81       	ldd	r30, Y+1	; 0x01
    257e:	fa 81       	ldd	r31, Y+2	; 0x02
    2580:	80 81       	ld	r24, Z
    2582:	91 81       	ldd	r25, Z+1	; 0x01
    2584:	0e 94 5b 26 	call	0x4cb6	; 0x4cb6 <free>
    2588:	eb 81       	ldd	r30, Y+3	; 0x03
    258a:	fc 81       	ldd	r31, Y+4	; 0x04
    258c:	24 81       	ldd	r18, Z+4	; 0x04
    258e:	35 81       	ldd	r19, Z+5	; 0x05
    2590:	89 81       	ldd	r24, Y+1	; 0x01
    2592:	9a 81       	ldd	r25, Y+2	; 0x02
    2594:	b9 01       	movw	r22, r18
    2596:	0e 94 ee 11 	call	0x23dc	; 0x23dc <_ZN6String9getBufferEj>
    259a:	e9 81       	ldd	r30, Y+1	; 0x01
    259c:	fa 81       	ldd	r31, Y+2	; 0x02
    259e:	80 81       	ld	r24, Z
    25a0:	91 81       	ldd	r25, Z+1	; 0x01
    25a2:	00 97       	sbiw	r24, 0x00	; 0
    25a4:	99 f0       	breq	.+38     	; 0x25cc <_ZN6StringaSERKS_+0x94>
    25a6:	eb 81       	ldd	r30, Y+3	; 0x03
    25a8:	fc 81       	ldd	r31, Y+4	; 0x04
    25aa:	84 81       	ldd	r24, Z+4	; 0x04
    25ac:	95 81       	ldd	r25, Z+5	; 0x05
    25ae:	e9 81       	ldd	r30, Y+1	; 0x01
    25b0:	fa 81       	ldd	r31, Y+2	; 0x02
    25b2:	95 83       	std	Z+5, r25	; 0x05
    25b4:	84 83       	std	Z+4, r24	; 0x04
    25b6:	e9 81       	ldd	r30, Y+1	; 0x01
    25b8:	fa 81       	ldd	r31, Y+2	; 0x02
    25ba:	80 81       	ld	r24, Z
    25bc:	91 81       	ldd	r25, Z+1	; 0x01
    25be:	eb 81       	ldd	r30, Y+3	; 0x03
    25c0:	fc 81       	ldd	r31, Y+4	; 0x04
    25c2:	20 81       	ld	r18, Z
    25c4:	31 81       	ldd	r19, Z+1	; 0x01
    25c6:	b9 01       	movw	r22, r18
    25c8:	0e 94 ea 26 	call	0x4dd4	; 0x4dd4 <strcpy>
    25cc:	89 81       	ldd	r24, Y+1	; 0x01
    25ce:	9a 81       	ldd	r25, Y+2	; 0x02
    25d0:	9e 83       	std	Y+6, r25	; 0x06
    25d2:	8d 83       	std	Y+5, r24	; 0x05
    25d4:	8d 81       	ldd	r24, Y+5	; 0x05
    25d6:	9e 81       	ldd	r25, Y+6	; 0x06
    25d8:	26 96       	adiw	r28, 0x06	; 6
    25da:	0f b6       	in	r0, 0x3f	; 63
    25dc:	f8 94       	cli
    25de:	de bf       	out	0x3e, r29	; 62
    25e0:	0f be       	out	0x3f, r0	; 63
    25e2:	cd bf       	out	0x3d, r28	; 61
    25e4:	cf 91       	pop	r28
    25e6:	df 91       	pop	r29
    25e8:	08 95       	ret

000025ea <_ZN6StringC1Eh>:
    25ea:	df 93       	push	r29
    25ec:	cf 93       	push	r28
    25ee:	00 d0       	rcall	.+0      	; 0x25f0 <_ZN6StringC1Eh+0x6>
    25f0:	0f 92       	push	r0
    25f2:	cd b7       	in	r28, 0x3d	; 61
    25f4:	de b7       	in	r29, 0x3e	; 62
    25f6:	9a 83       	std	Y+2, r25	; 0x02
    25f8:	89 83       	std	Y+1, r24	; 0x01
    25fa:	6b 83       	std	Y+3, r22	; 0x03
    25fc:	e9 81       	ldd	r30, Y+1	; 0x01
    25fe:	fa 81       	ldd	r31, Y+2	; 0x02
    2600:	81 e0       	ldi	r24, 0x01	; 1
    2602:	90 e0       	ldi	r25, 0x00	; 0
    2604:	95 83       	std	Z+5, r25	; 0x05
    2606:	84 83       	std	Z+4, r24	; 0x04
    2608:	89 81       	ldd	r24, Y+1	; 0x01
    260a:	9a 81       	ldd	r25, Y+2	; 0x02
    260c:	61 e0       	ldi	r22, 0x01	; 1
    260e:	70 e0       	ldi	r23, 0x00	; 0
    2610:	0e 94 ee 11 	call	0x23dc	; 0x23dc <_ZN6String9getBufferEj>
    2614:	e9 81       	ldd	r30, Y+1	; 0x01
    2616:	fa 81       	ldd	r31, Y+2	; 0x02
    2618:	80 81       	ld	r24, Z
    261a:	91 81       	ldd	r25, Z+1	; 0x01
    261c:	00 97       	sbiw	r24, 0x00	; 0
    261e:	71 f0       	breq	.+28     	; 0x263c <_ZN6StringC1Eh+0x52>
    2620:	e9 81       	ldd	r30, Y+1	; 0x01
    2622:	fa 81       	ldd	r31, Y+2	; 0x02
    2624:	01 90       	ld	r0, Z+
    2626:	f0 81       	ld	r31, Z
    2628:	e0 2d       	mov	r30, r0
    262a:	8b 81       	ldd	r24, Y+3	; 0x03
    262c:	80 83       	st	Z, r24
    262e:	e9 81       	ldd	r30, Y+1	; 0x01
    2630:	fa 81       	ldd	r31, Y+2	; 0x02
    2632:	80 81       	ld	r24, Z
    2634:	91 81       	ldd	r25, Z+1	; 0x01
    2636:	fc 01       	movw	r30, r24
    2638:	31 96       	adiw	r30, 0x01	; 1
    263a:	10 82       	st	Z, r1
    263c:	0f 90       	pop	r0
    263e:	0f 90       	pop	r0
    2640:	0f 90       	pop	r0
    2642:	cf 91       	pop	r28
    2644:	df 91       	pop	r29
    2646:	08 95       	ret

00002648 <_ZN6StringC2Eh>:
    2648:	df 93       	push	r29
    264a:	cf 93       	push	r28
    264c:	00 d0       	rcall	.+0      	; 0x264e <_ZN6StringC2Eh+0x6>
    264e:	0f 92       	push	r0
    2650:	cd b7       	in	r28, 0x3d	; 61
    2652:	de b7       	in	r29, 0x3e	; 62
    2654:	9a 83       	std	Y+2, r25	; 0x02
    2656:	89 83       	std	Y+1, r24	; 0x01
    2658:	6b 83       	std	Y+3, r22	; 0x03
    265a:	e9 81       	ldd	r30, Y+1	; 0x01
    265c:	fa 81       	ldd	r31, Y+2	; 0x02
    265e:	81 e0       	ldi	r24, 0x01	; 1
    2660:	90 e0       	ldi	r25, 0x00	; 0
    2662:	95 83       	std	Z+5, r25	; 0x05
    2664:	84 83       	std	Z+4, r24	; 0x04
    2666:	89 81       	ldd	r24, Y+1	; 0x01
    2668:	9a 81       	ldd	r25, Y+2	; 0x02
    266a:	61 e0       	ldi	r22, 0x01	; 1
    266c:	70 e0       	ldi	r23, 0x00	; 0
    266e:	0e 94 ee 11 	call	0x23dc	; 0x23dc <_ZN6String9getBufferEj>
    2672:	e9 81       	ldd	r30, Y+1	; 0x01
    2674:	fa 81       	ldd	r31, Y+2	; 0x02
    2676:	80 81       	ld	r24, Z
    2678:	91 81       	ldd	r25, Z+1	; 0x01
    267a:	00 97       	sbiw	r24, 0x00	; 0
    267c:	71 f0       	breq	.+28     	; 0x269a <_ZN6StringC2Eh+0x52>
    267e:	e9 81       	ldd	r30, Y+1	; 0x01
    2680:	fa 81       	ldd	r31, Y+2	; 0x02
    2682:	01 90       	ld	r0, Z+
    2684:	f0 81       	ld	r31, Z
    2686:	e0 2d       	mov	r30, r0
    2688:	8b 81       	ldd	r24, Y+3	; 0x03
    268a:	80 83       	st	Z, r24
    268c:	e9 81       	ldd	r30, Y+1	; 0x01
    268e:	fa 81       	ldd	r31, Y+2	; 0x02
    2690:	80 81       	ld	r24, Z
    2692:	91 81       	ldd	r25, Z+1	; 0x01
    2694:	fc 01       	movw	r30, r24
    2696:	31 96       	adiw	r30, 0x01	; 1
    2698:	10 82       	st	Z, r1
    269a:	0f 90       	pop	r0
    269c:	0f 90       	pop	r0
    269e:	0f 90       	pop	r0
    26a0:	cf 91       	pop	r28
    26a2:	df 91       	pop	r29
    26a4:	08 95       	ret

000026a6 <_ZN6StringC1Ec>:
    26a6:	df 93       	push	r29
    26a8:	cf 93       	push	r28
    26aa:	00 d0       	rcall	.+0      	; 0x26ac <_ZN6StringC1Ec+0x6>
    26ac:	0f 92       	push	r0
    26ae:	cd b7       	in	r28, 0x3d	; 61
    26b0:	de b7       	in	r29, 0x3e	; 62
    26b2:	9a 83       	std	Y+2, r25	; 0x02
    26b4:	89 83       	std	Y+1, r24	; 0x01
    26b6:	6b 83       	std	Y+3, r22	; 0x03
    26b8:	e9 81       	ldd	r30, Y+1	; 0x01
    26ba:	fa 81       	ldd	r31, Y+2	; 0x02
    26bc:	81 e0       	ldi	r24, 0x01	; 1
    26be:	90 e0       	ldi	r25, 0x00	; 0
    26c0:	95 83       	std	Z+5, r25	; 0x05
    26c2:	84 83       	std	Z+4, r24	; 0x04
    26c4:	89 81       	ldd	r24, Y+1	; 0x01
    26c6:	9a 81       	ldd	r25, Y+2	; 0x02
    26c8:	61 e0       	ldi	r22, 0x01	; 1
    26ca:	70 e0       	ldi	r23, 0x00	; 0
    26cc:	0e 94 ee 11 	call	0x23dc	; 0x23dc <_ZN6String9getBufferEj>
    26d0:	e9 81       	ldd	r30, Y+1	; 0x01
    26d2:	fa 81       	ldd	r31, Y+2	; 0x02
    26d4:	80 81       	ld	r24, Z
    26d6:	91 81       	ldd	r25, Z+1	; 0x01
    26d8:	00 97       	sbiw	r24, 0x00	; 0
    26da:	71 f0       	breq	.+28     	; 0x26f8 <_ZN6StringC1Ec+0x52>
    26dc:	e9 81       	ldd	r30, Y+1	; 0x01
    26de:	fa 81       	ldd	r31, Y+2	; 0x02
    26e0:	01 90       	ld	r0, Z+
    26e2:	f0 81       	ld	r31, Z
    26e4:	e0 2d       	mov	r30, r0
    26e6:	8b 81       	ldd	r24, Y+3	; 0x03
    26e8:	80 83       	st	Z, r24
    26ea:	e9 81       	ldd	r30, Y+1	; 0x01
    26ec:	fa 81       	ldd	r31, Y+2	; 0x02
    26ee:	80 81       	ld	r24, Z
    26f0:	91 81       	ldd	r25, Z+1	; 0x01
    26f2:	fc 01       	movw	r30, r24
    26f4:	31 96       	adiw	r30, 0x01	; 1
    26f6:	10 82       	st	Z, r1
    26f8:	0f 90       	pop	r0
    26fa:	0f 90       	pop	r0
    26fc:	0f 90       	pop	r0
    26fe:	cf 91       	pop	r28
    2700:	df 91       	pop	r29
    2702:	08 95       	ret

00002704 <_ZN6StringC2Ec>:
    2704:	df 93       	push	r29
    2706:	cf 93       	push	r28
    2708:	00 d0       	rcall	.+0      	; 0x270a <_ZN6StringC2Ec+0x6>
    270a:	0f 92       	push	r0
    270c:	cd b7       	in	r28, 0x3d	; 61
    270e:	de b7       	in	r29, 0x3e	; 62
    2710:	9a 83       	std	Y+2, r25	; 0x02
    2712:	89 83       	std	Y+1, r24	; 0x01
    2714:	6b 83       	std	Y+3, r22	; 0x03
    2716:	e9 81       	ldd	r30, Y+1	; 0x01
    2718:	fa 81       	ldd	r31, Y+2	; 0x02
    271a:	81 e0       	ldi	r24, 0x01	; 1
    271c:	90 e0       	ldi	r25, 0x00	; 0
    271e:	95 83       	std	Z+5, r25	; 0x05
    2720:	84 83       	std	Z+4, r24	; 0x04
    2722:	89 81       	ldd	r24, Y+1	; 0x01
    2724:	9a 81       	ldd	r25, Y+2	; 0x02
    2726:	61 e0       	ldi	r22, 0x01	; 1
    2728:	70 e0       	ldi	r23, 0x00	; 0
    272a:	0e 94 ee 11 	call	0x23dc	; 0x23dc <_ZN6String9getBufferEj>
    272e:	e9 81       	ldd	r30, Y+1	; 0x01
    2730:	fa 81       	ldd	r31, Y+2	; 0x02
    2732:	80 81       	ld	r24, Z
    2734:	91 81       	ldd	r25, Z+1	; 0x01
    2736:	00 97       	sbiw	r24, 0x00	; 0
    2738:	71 f0       	breq	.+28     	; 0x2756 <_ZN6StringC2Ec+0x52>
    273a:	e9 81       	ldd	r30, Y+1	; 0x01
    273c:	fa 81       	ldd	r31, Y+2	; 0x02
    273e:	01 90       	ld	r0, Z+
    2740:	f0 81       	ld	r31, Z
    2742:	e0 2d       	mov	r30, r0
    2744:	8b 81       	ldd	r24, Y+3	; 0x03
    2746:	80 83       	st	Z, r24
    2748:	e9 81       	ldd	r30, Y+1	; 0x01
    274a:	fa 81       	ldd	r31, Y+2	; 0x02
    274c:	80 81       	ld	r24, Z
    274e:	91 81       	ldd	r25, Z+1	; 0x01
    2750:	fc 01       	movw	r30, r24
    2752:	31 96       	adiw	r30, 0x01	; 1
    2754:	10 82       	st	Z, r1
    2756:	0f 90       	pop	r0
    2758:	0f 90       	pop	r0
    275a:	0f 90       	pop	r0
    275c:	cf 91       	pop	r28
    275e:	df 91       	pop	r29
    2760:	08 95       	ret

00002762 <_ZN6StringC1ERKS_>:
    2762:	df 93       	push	r29
    2764:	cf 93       	push	r28
    2766:	00 d0       	rcall	.+0      	; 0x2768 <_ZN6StringC1ERKS_+0x6>
    2768:	00 d0       	rcall	.+0      	; 0x276a <_ZN6StringC1ERKS_+0x8>
    276a:	cd b7       	in	r28, 0x3d	; 61
    276c:	de b7       	in	r29, 0x3e	; 62
    276e:	9a 83       	std	Y+2, r25	; 0x02
    2770:	89 83       	std	Y+1, r24	; 0x01
    2772:	7c 83       	std	Y+4, r23	; 0x04
    2774:	6b 83       	std	Y+3, r22	; 0x03
    2776:	eb 81       	ldd	r30, Y+3	; 0x03
    2778:	fc 81       	ldd	r31, Y+4	; 0x04
    277a:	84 81       	ldd	r24, Z+4	; 0x04
    277c:	95 81       	ldd	r25, Z+5	; 0x05
    277e:	e9 81       	ldd	r30, Y+1	; 0x01
    2780:	fa 81       	ldd	r31, Y+2	; 0x02
    2782:	95 83       	std	Z+5, r25	; 0x05
    2784:	84 83       	std	Z+4, r24	; 0x04
    2786:	e9 81       	ldd	r30, Y+1	; 0x01
    2788:	fa 81       	ldd	r31, Y+2	; 0x02
    278a:	24 81       	ldd	r18, Z+4	; 0x04
    278c:	35 81       	ldd	r19, Z+5	; 0x05
    278e:	89 81       	ldd	r24, Y+1	; 0x01
    2790:	9a 81       	ldd	r25, Y+2	; 0x02
    2792:	b9 01       	movw	r22, r18
    2794:	0e 94 ee 11 	call	0x23dc	; 0x23dc <_ZN6String9getBufferEj>
    2798:	e9 81       	ldd	r30, Y+1	; 0x01
    279a:	fa 81       	ldd	r31, Y+2	; 0x02
    279c:	80 81       	ld	r24, Z
    279e:	91 81       	ldd	r25, Z+1	; 0x01
    27a0:	00 97       	sbiw	r24, 0x00	; 0
    27a2:	59 f0       	breq	.+22     	; 0x27ba <_ZN6StringC1ERKS_+0x58>
    27a4:	e9 81       	ldd	r30, Y+1	; 0x01
    27a6:	fa 81       	ldd	r31, Y+2	; 0x02
    27a8:	80 81       	ld	r24, Z
    27aa:	91 81       	ldd	r25, Z+1	; 0x01
    27ac:	eb 81       	ldd	r30, Y+3	; 0x03
    27ae:	fc 81       	ldd	r31, Y+4	; 0x04
    27b0:	20 81       	ld	r18, Z
    27b2:	31 81       	ldd	r19, Z+1	; 0x01
    27b4:	b9 01       	movw	r22, r18
    27b6:	0e 94 ea 26 	call	0x4dd4	; 0x4dd4 <strcpy>
    27ba:	0f 90       	pop	r0
    27bc:	0f 90       	pop	r0
    27be:	0f 90       	pop	r0
    27c0:	0f 90       	pop	r0
    27c2:	cf 91       	pop	r28
    27c4:	df 91       	pop	r29
    27c6:	08 95       	ret

000027c8 <_ZN6StringC2ERKS_>:
    27c8:	df 93       	push	r29
    27ca:	cf 93       	push	r28
    27cc:	00 d0       	rcall	.+0      	; 0x27ce <_ZN6StringC2ERKS_+0x6>
    27ce:	00 d0       	rcall	.+0      	; 0x27d0 <_ZN6StringC2ERKS_+0x8>
    27d0:	cd b7       	in	r28, 0x3d	; 61
    27d2:	de b7       	in	r29, 0x3e	; 62
    27d4:	9a 83       	std	Y+2, r25	; 0x02
    27d6:	89 83       	std	Y+1, r24	; 0x01
    27d8:	7c 83       	std	Y+4, r23	; 0x04
    27da:	6b 83       	std	Y+3, r22	; 0x03
    27dc:	eb 81       	ldd	r30, Y+3	; 0x03
    27de:	fc 81       	ldd	r31, Y+4	; 0x04
    27e0:	84 81       	ldd	r24, Z+4	; 0x04
    27e2:	95 81       	ldd	r25, Z+5	; 0x05
    27e4:	e9 81       	ldd	r30, Y+1	; 0x01
    27e6:	fa 81       	ldd	r31, Y+2	; 0x02
    27e8:	95 83       	std	Z+5, r25	; 0x05
    27ea:	84 83       	std	Z+4, r24	; 0x04
    27ec:	e9 81       	ldd	r30, Y+1	; 0x01
    27ee:	fa 81       	ldd	r31, Y+2	; 0x02
    27f0:	24 81       	ldd	r18, Z+4	; 0x04
    27f2:	35 81       	ldd	r19, Z+5	; 0x05
    27f4:	89 81       	ldd	r24, Y+1	; 0x01
    27f6:	9a 81       	ldd	r25, Y+2	; 0x02
    27f8:	b9 01       	movw	r22, r18
    27fa:	0e 94 ee 11 	call	0x23dc	; 0x23dc <_ZN6String9getBufferEj>
    27fe:	e9 81       	ldd	r30, Y+1	; 0x01
    2800:	fa 81       	ldd	r31, Y+2	; 0x02
    2802:	80 81       	ld	r24, Z
    2804:	91 81       	ldd	r25, Z+1	; 0x01
    2806:	00 97       	sbiw	r24, 0x00	; 0
    2808:	59 f0       	breq	.+22     	; 0x2820 <_ZN6StringC2ERKS_+0x58>
    280a:	e9 81       	ldd	r30, Y+1	; 0x01
    280c:	fa 81       	ldd	r31, Y+2	; 0x02
    280e:	80 81       	ld	r24, Z
    2810:	91 81       	ldd	r25, Z+1	; 0x01
    2812:	eb 81       	ldd	r30, Y+3	; 0x03
    2814:	fc 81       	ldd	r31, Y+4	; 0x04
    2816:	20 81       	ld	r18, Z
    2818:	31 81       	ldd	r19, Z+1	; 0x01
    281a:	b9 01       	movw	r22, r18
    281c:	0e 94 ea 26 	call	0x4dd4	; 0x4dd4 <strcpy>
    2820:	0f 90       	pop	r0
    2822:	0f 90       	pop	r0
    2824:	0f 90       	pop	r0
    2826:	0f 90       	pop	r0
    2828:	cf 91       	pop	r28
    282a:	df 91       	pop	r29
    282c:	08 95       	ret

0000282e <_ZN6StringC1Emi>:
    282e:	df 93       	push	r29
    2830:	cf 93       	push	r28
    2832:	cd b7       	in	r28, 0x3d	; 61
    2834:	de b7       	in	r29, 0x3e	; 62
    2836:	a9 97       	sbiw	r28, 0x29	; 41
    2838:	0f b6       	in	r0, 0x3f	; 63
    283a:	f8 94       	cli
    283c:	de bf       	out	0x3e, r29	; 62
    283e:	0f be       	out	0x3f, r0	; 63
    2840:	cd bf       	out	0x3d, r28	; 61
    2842:	9b a3       	std	Y+35, r25	; 0x23
    2844:	8a a3       	std	Y+34, r24	; 0x22
    2846:	4c a3       	std	Y+36, r20	; 0x24
    2848:	5d a3       	std	Y+37, r21	; 0x25
    284a:	6e a3       	std	Y+38, r22	; 0x26
    284c:	7f a3       	std	Y+39, r23	; 0x27
    284e:	39 a7       	std	Y+41, r19	; 0x29
    2850:	28 a7       	std	Y+40, r18	; 0x28
    2852:	8c a1       	ldd	r24, Y+36	; 0x24
    2854:	9d a1       	ldd	r25, Y+37	; 0x25
    2856:	ae a1       	ldd	r26, Y+38	; 0x26
    2858:	bf a1       	ldd	r27, Y+39	; 0x27
    285a:	bc 01       	movw	r22, r24
    285c:	cd 01       	movw	r24, r26
    285e:	9e 01       	movw	r18, r28
    2860:	2f 5f       	subi	r18, 0xFF	; 255
    2862:	3f 4f       	sbci	r19, 0xFF	; 255
    2864:	a9 01       	movw	r20, r18
    2866:	2a e0       	ldi	r18, 0x0A	; 10
    2868:	30 e0       	ldi	r19, 0x00	; 0
    286a:	0e 94 91 27 	call	0x4f22	; 0x4f22 <ultoa>
    286e:	ce 01       	movw	r24, r28
    2870:	01 96       	adiw	r24, 0x01	; 1
    2872:	0e 94 f1 26 	call	0x4de2	; 0x4de2 <strlen>
    2876:	ea a1       	ldd	r30, Y+34	; 0x22
    2878:	fb a1       	ldd	r31, Y+35	; 0x23
    287a:	95 83       	std	Z+5, r25	; 0x05
    287c:	84 83       	std	Z+4, r24	; 0x04
    287e:	ea a1       	ldd	r30, Y+34	; 0x22
    2880:	fb a1       	ldd	r31, Y+35	; 0x23
    2882:	24 81       	ldd	r18, Z+4	; 0x04
    2884:	35 81       	ldd	r19, Z+5	; 0x05
    2886:	8a a1       	ldd	r24, Y+34	; 0x22
    2888:	9b a1       	ldd	r25, Y+35	; 0x23
    288a:	b9 01       	movw	r22, r18
    288c:	0e 94 ee 11 	call	0x23dc	; 0x23dc <_ZN6String9getBufferEj>
    2890:	ea a1       	ldd	r30, Y+34	; 0x22
    2892:	fb a1       	ldd	r31, Y+35	; 0x23
    2894:	80 81       	ld	r24, Z
    2896:	91 81       	ldd	r25, Z+1	; 0x01
    2898:	00 97       	sbiw	r24, 0x00	; 0
    289a:	51 f0       	breq	.+20     	; 0x28b0 <_ZN6StringC1Emi+0x82>
    289c:	ea a1       	ldd	r30, Y+34	; 0x22
    289e:	fb a1       	ldd	r31, Y+35	; 0x23
    28a0:	80 81       	ld	r24, Z
    28a2:	91 81       	ldd	r25, Z+1	; 0x01
    28a4:	9e 01       	movw	r18, r28
    28a6:	2f 5f       	subi	r18, 0xFF	; 255
    28a8:	3f 4f       	sbci	r19, 0xFF	; 255
    28aa:	b9 01       	movw	r22, r18
    28ac:	0e 94 ea 26 	call	0x4dd4	; 0x4dd4 <strcpy>
    28b0:	a9 96       	adiw	r28, 0x29	; 41
    28b2:	0f b6       	in	r0, 0x3f	; 63
    28b4:	f8 94       	cli
    28b6:	de bf       	out	0x3e, r29	; 62
    28b8:	0f be       	out	0x3f, r0	; 63
    28ba:	cd bf       	out	0x3d, r28	; 61
    28bc:	cf 91       	pop	r28
    28be:	df 91       	pop	r29
    28c0:	08 95       	ret

000028c2 <_ZN6StringC2Emi>:
    28c2:	df 93       	push	r29
    28c4:	cf 93       	push	r28
    28c6:	cd b7       	in	r28, 0x3d	; 61
    28c8:	de b7       	in	r29, 0x3e	; 62
    28ca:	a9 97       	sbiw	r28, 0x29	; 41
    28cc:	0f b6       	in	r0, 0x3f	; 63
    28ce:	f8 94       	cli
    28d0:	de bf       	out	0x3e, r29	; 62
    28d2:	0f be       	out	0x3f, r0	; 63
    28d4:	cd bf       	out	0x3d, r28	; 61
    28d6:	9b a3       	std	Y+35, r25	; 0x23
    28d8:	8a a3       	std	Y+34, r24	; 0x22
    28da:	4c a3       	std	Y+36, r20	; 0x24
    28dc:	5d a3       	std	Y+37, r21	; 0x25
    28de:	6e a3       	std	Y+38, r22	; 0x26
    28e0:	7f a3       	std	Y+39, r23	; 0x27
    28e2:	39 a7       	std	Y+41, r19	; 0x29
    28e4:	28 a7       	std	Y+40, r18	; 0x28
    28e6:	8c a1       	ldd	r24, Y+36	; 0x24
    28e8:	9d a1       	ldd	r25, Y+37	; 0x25
    28ea:	ae a1       	ldd	r26, Y+38	; 0x26
    28ec:	bf a1       	ldd	r27, Y+39	; 0x27
    28ee:	bc 01       	movw	r22, r24
    28f0:	cd 01       	movw	r24, r26
    28f2:	9e 01       	movw	r18, r28
    28f4:	2f 5f       	subi	r18, 0xFF	; 255
    28f6:	3f 4f       	sbci	r19, 0xFF	; 255
    28f8:	a9 01       	movw	r20, r18
    28fa:	2a e0       	ldi	r18, 0x0A	; 10
    28fc:	30 e0       	ldi	r19, 0x00	; 0
    28fe:	0e 94 91 27 	call	0x4f22	; 0x4f22 <ultoa>
    2902:	ce 01       	movw	r24, r28
    2904:	01 96       	adiw	r24, 0x01	; 1
    2906:	0e 94 f1 26 	call	0x4de2	; 0x4de2 <strlen>
    290a:	ea a1       	ldd	r30, Y+34	; 0x22
    290c:	fb a1       	ldd	r31, Y+35	; 0x23
    290e:	95 83       	std	Z+5, r25	; 0x05
    2910:	84 83       	std	Z+4, r24	; 0x04
    2912:	ea a1       	ldd	r30, Y+34	; 0x22
    2914:	fb a1       	ldd	r31, Y+35	; 0x23
    2916:	24 81       	ldd	r18, Z+4	; 0x04
    2918:	35 81       	ldd	r19, Z+5	; 0x05
    291a:	8a a1       	ldd	r24, Y+34	; 0x22
    291c:	9b a1       	ldd	r25, Y+35	; 0x23
    291e:	b9 01       	movw	r22, r18
    2920:	0e 94 ee 11 	call	0x23dc	; 0x23dc <_ZN6String9getBufferEj>
    2924:	ea a1       	ldd	r30, Y+34	; 0x22
    2926:	fb a1       	ldd	r31, Y+35	; 0x23
    2928:	80 81       	ld	r24, Z
    292a:	91 81       	ldd	r25, Z+1	; 0x01
    292c:	00 97       	sbiw	r24, 0x00	; 0
    292e:	51 f0       	breq	.+20     	; 0x2944 <_ZN6StringC2Emi+0x82>
    2930:	ea a1       	ldd	r30, Y+34	; 0x22
    2932:	fb a1       	ldd	r31, Y+35	; 0x23
    2934:	80 81       	ld	r24, Z
    2936:	91 81       	ldd	r25, Z+1	; 0x01
    2938:	9e 01       	movw	r18, r28
    293a:	2f 5f       	subi	r18, 0xFF	; 255
    293c:	3f 4f       	sbci	r19, 0xFF	; 255
    293e:	b9 01       	movw	r22, r18
    2940:	0e 94 ea 26 	call	0x4dd4	; 0x4dd4 <strcpy>
    2944:	a9 96       	adiw	r28, 0x29	; 41
    2946:	0f b6       	in	r0, 0x3f	; 63
    2948:	f8 94       	cli
    294a:	de bf       	out	0x3e, r29	; 62
    294c:	0f be       	out	0x3f, r0	; 63
    294e:	cd bf       	out	0x3d, r28	; 61
    2950:	cf 91       	pop	r28
    2952:	df 91       	pop	r29
    2954:	08 95       	ret

00002956 <_ZN6StringC1Eji>:
    2956:	df 93       	push	r29
    2958:	cf 93       	push	r28
    295a:	cd b7       	in	r28, 0x3d	; 61
    295c:	de b7       	in	r29, 0x3e	; 62
    295e:	a7 97       	sbiw	r28, 0x27	; 39
    2960:	0f b6       	in	r0, 0x3f	; 63
    2962:	f8 94       	cli
    2964:	de bf       	out	0x3e, r29	; 62
    2966:	0f be       	out	0x3f, r0	; 63
    2968:	cd bf       	out	0x3d, r28	; 61
    296a:	9b a3       	std	Y+35, r25	; 0x23
    296c:	8a a3       	std	Y+34, r24	; 0x22
    296e:	7d a3       	std	Y+37, r23	; 0x25
    2970:	6c a3       	std	Y+36, r22	; 0x24
    2972:	5f a3       	std	Y+39, r21	; 0x27
    2974:	4e a3       	std	Y+38, r20	; 0x26
    2976:	8c a1       	ldd	r24, Y+36	; 0x24
    2978:	9d a1       	ldd	r25, Y+37	; 0x25
    297a:	cc 01       	movw	r24, r24
    297c:	a0 e0       	ldi	r26, 0x00	; 0
    297e:	b0 e0       	ldi	r27, 0x00	; 0
    2980:	ee a1       	ldd	r30, Y+38	; 0x26
    2982:	ff a1       	ldd	r31, Y+39	; 0x27
    2984:	bc 01       	movw	r22, r24
    2986:	cd 01       	movw	r24, r26
    2988:	9e 01       	movw	r18, r28
    298a:	2f 5f       	subi	r18, 0xFF	; 255
    298c:	3f 4f       	sbci	r19, 0xFF	; 255
    298e:	a9 01       	movw	r20, r18
    2990:	9f 01       	movw	r18, r30
    2992:	0e 94 91 27 	call	0x4f22	; 0x4f22 <ultoa>
    2996:	ce 01       	movw	r24, r28
    2998:	01 96       	adiw	r24, 0x01	; 1
    299a:	0e 94 f1 26 	call	0x4de2	; 0x4de2 <strlen>
    299e:	ea a1       	ldd	r30, Y+34	; 0x22
    29a0:	fb a1       	ldd	r31, Y+35	; 0x23
    29a2:	95 83       	std	Z+5, r25	; 0x05
    29a4:	84 83       	std	Z+4, r24	; 0x04
    29a6:	ea a1       	ldd	r30, Y+34	; 0x22
    29a8:	fb a1       	ldd	r31, Y+35	; 0x23
    29aa:	24 81       	ldd	r18, Z+4	; 0x04
    29ac:	35 81       	ldd	r19, Z+5	; 0x05
    29ae:	8a a1       	ldd	r24, Y+34	; 0x22
    29b0:	9b a1       	ldd	r25, Y+35	; 0x23
    29b2:	b9 01       	movw	r22, r18
    29b4:	0e 94 ee 11 	call	0x23dc	; 0x23dc <_ZN6String9getBufferEj>
    29b8:	ea a1       	ldd	r30, Y+34	; 0x22
    29ba:	fb a1       	ldd	r31, Y+35	; 0x23
    29bc:	80 81       	ld	r24, Z
    29be:	91 81       	ldd	r25, Z+1	; 0x01
    29c0:	00 97       	sbiw	r24, 0x00	; 0
    29c2:	51 f0       	breq	.+20     	; 0x29d8 <_ZN6StringC1Eji+0x82>
    29c4:	ea a1       	ldd	r30, Y+34	; 0x22
    29c6:	fb a1       	ldd	r31, Y+35	; 0x23
    29c8:	80 81       	ld	r24, Z
    29ca:	91 81       	ldd	r25, Z+1	; 0x01
    29cc:	9e 01       	movw	r18, r28
    29ce:	2f 5f       	subi	r18, 0xFF	; 255
    29d0:	3f 4f       	sbci	r19, 0xFF	; 255
    29d2:	b9 01       	movw	r22, r18
    29d4:	0e 94 ea 26 	call	0x4dd4	; 0x4dd4 <strcpy>
    29d8:	a7 96       	adiw	r28, 0x27	; 39
    29da:	0f b6       	in	r0, 0x3f	; 63
    29dc:	f8 94       	cli
    29de:	de bf       	out	0x3e, r29	; 62
    29e0:	0f be       	out	0x3f, r0	; 63
    29e2:	cd bf       	out	0x3d, r28	; 61
    29e4:	cf 91       	pop	r28
    29e6:	df 91       	pop	r29
    29e8:	08 95       	ret

000029ea <_ZN6StringC2Eji>:
    29ea:	df 93       	push	r29
    29ec:	cf 93       	push	r28
    29ee:	cd b7       	in	r28, 0x3d	; 61
    29f0:	de b7       	in	r29, 0x3e	; 62
    29f2:	a7 97       	sbiw	r28, 0x27	; 39
    29f4:	0f b6       	in	r0, 0x3f	; 63
    29f6:	f8 94       	cli
    29f8:	de bf       	out	0x3e, r29	; 62
    29fa:	0f be       	out	0x3f, r0	; 63
    29fc:	cd bf       	out	0x3d, r28	; 61
    29fe:	9b a3       	std	Y+35, r25	; 0x23
    2a00:	8a a3       	std	Y+34, r24	; 0x22
    2a02:	7d a3       	std	Y+37, r23	; 0x25
    2a04:	6c a3       	std	Y+36, r22	; 0x24
    2a06:	5f a3       	std	Y+39, r21	; 0x27
    2a08:	4e a3       	std	Y+38, r20	; 0x26
    2a0a:	8c a1       	ldd	r24, Y+36	; 0x24
    2a0c:	9d a1       	ldd	r25, Y+37	; 0x25
    2a0e:	cc 01       	movw	r24, r24
    2a10:	a0 e0       	ldi	r26, 0x00	; 0
    2a12:	b0 e0       	ldi	r27, 0x00	; 0
    2a14:	ee a1       	ldd	r30, Y+38	; 0x26
    2a16:	ff a1       	ldd	r31, Y+39	; 0x27
    2a18:	bc 01       	movw	r22, r24
    2a1a:	cd 01       	movw	r24, r26
    2a1c:	9e 01       	movw	r18, r28
    2a1e:	2f 5f       	subi	r18, 0xFF	; 255
    2a20:	3f 4f       	sbci	r19, 0xFF	; 255
    2a22:	a9 01       	movw	r20, r18
    2a24:	9f 01       	movw	r18, r30
    2a26:	0e 94 91 27 	call	0x4f22	; 0x4f22 <ultoa>
    2a2a:	ce 01       	movw	r24, r28
    2a2c:	01 96       	adiw	r24, 0x01	; 1
    2a2e:	0e 94 f1 26 	call	0x4de2	; 0x4de2 <strlen>
    2a32:	ea a1       	ldd	r30, Y+34	; 0x22
    2a34:	fb a1       	ldd	r31, Y+35	; 0x23
    2a36:	95 83       	std	Z+5, r25	; 0x05
    2a38:	84 83       	std	Z+4, r24	; 0x04
    2a3a:	ea a1       	ldd	r30, Y+34	; 0x22
    2a3c:	fb a1       	ldd	r31, Y+35	; 0x23
    2a3e:	24 81       	ldd	r18, Z+4	; 0x04
    2a40:	35 81       	ldd	r19, Z+5	; 0x05
    2a42:	8a a1       	ldd	r24, Y+34	; 0x22
    2a44:	9b a1       	ldd	r25, Y+35	; 0x23
    2a46:	b9 01       	movw	r22, r18
    2a48:	0e 94 ee 11 	call	0x23dc	; 0x23dc <_ZN6String9getBufferEj>
    2a4c:	ea a1       	ldd	r30, Y+34	; 0x22
    2a4e:	fb a1       	ldd	r31, Y+35	; 0x23
    2a50:	80 81       	ld	r24, Z
    2a52:	91 81       	ldd	r25, Z+1	; 0x01
    2a54:	00 97       	sbiw	r24, 0x00	; 0
    2a56:	51 f0       	breq	.+20     	; 0x2a6c <_ZN6StringC2Eji+0x82>
    2a58:	ea a1       	ldd	r30, Y+34	; 0x22
    2a5a:	fb a1       	ldd	r31, Y+35	; 0x23
    2a5c:	80 81       	ld	r24, Z
    2a5e:	91 81       	ldd	r25, Z+1	; 0x01
    2a60:	9e 01       	movw	r18, r28
    2a62:	2f 5f       	subi	r18, 0xFF	; 255
    2a64:	3f 4f       	sbci	r19, 0xFF	; 255
    2a66:	b9 01       	movw	r22, r18
    2a68:	0e 94 ea 26 	call	0x4dd4	; 0x4dd4 <strcpy>
    2a6c:	a7 96       	adiw	r28, 0x27	; 39
    2a6e:	0f b6       	in	r0, 0x3f	; 63
    2a70:	f8 94       	cli
    2a72:	de bf       	out	0x3e, r29	; 62
    2a74:	0f be       	out	0x3f, r0	; 63
    2a76:	cd bf       	out	0x3d, r28	; 61
    2a78:	cf 91       	pop	r28
    2a7a:	df 91       	pop	r29
    2a7c:	08 95       	ret

00002a7e <_ZN6StringC1EPKc>:
    2a7e:	df 93       	push	r29
    2a80:	cf 93       	push	r28
    2a82:	00 d0       	rcall	.+0      	; 0x2a84 <_ZN6StringC1EPKc+0x6>
    2a84:	00 d0       	rcall	.+0      	; 0x2a86 <_ZN6StringC1EPKc+0x8>
    2a86:	cd b7       	in	r28, 0x3d	; 61
    2a88:	de b7       	in	r29, 0x3e	; 62
    2a8a:	9a 83       	std	Y+2, r25	; 0x02
    2a8c:	89 83       	std	Y+1, r24	; 0x01
    2a8e:	7c 83       	std	Y+4, r23	; 0x04
    2a90:	6b 83       	std	Y+3, r22	; 0x03
    2a92:	8b 81       	ldd	r24, Y+3	; 0x03
    2a94:	9c 81       	ldd	r25, Y+4	; 0x04
    2a96:	00 97       	sbiw	r24, 0x00	; 0
    2a98:	21 f4       	brne	.+8      	; 0x2aa2 <_ZN6StringC1EPKc+0x24>
    2a9a:	82 e2       	ldi	r24, 0x22	; 34
    2a9c:	91 e0       	ldi	r25, 0x01	; 1
    2a9e:	9c 83       	std	Y+4, r25	; 0x04
    2aa0:	8b 83       	std	Y+3, r24	; 0x03
    2aa2:	8b 81       	ldd	r24, Y+3	; 0x03
    2aa4:	9c 81       	ldd	r25, Y+4	; 0x04
    2aa6:	0e 94 f1 26 	call	0x4de2	; 0x4de2 <strlen>
    2aaa:	e9 81       	ldd	r30, Y+1	; 0x01
    2aac:	fa 81       	ldd	r31, Y+2	; 0x02
    2aae:	95 83       	std	Z+5, r25	; 0x05
    2ab0:	84 83       	std	Z+4, r24	; 0x04
    2ab2:	e9 81       	ldd	r30, Y+1	; 0x01
    2ab4:	fa 81       	ldd	r31, Y+2	; 0x02
    2ab6:	24 81       	ldd	r18, Z+4	; 0x04
    2ab8:	35 81       	ldd	r19, Z+5	; 0x05
    2aba:	89 81       	ldd	r24, Y+1	; 0x01
    2abc:	9a 81       	ldd	r25, Y+2	; 0x02
    2abe:	b9 01       	movw	r22, r18
    2ac0:	0e 94 ee 11 	call	0x23dc	; 0x23dc <_ZN6String9getBufferEj>
    2ac4:	e9 81       	ldd	r30, Y+1	; 0x01
    2ac6:	fa 81       	ldd	r31, Y+2	; 0x02
    2ac8:	80 81       	ld	r24, Z
    2aca:	91 81       	ldd	r25, Z+1	; 0x01
    2acc:	00 97       	sbiw	r24, 0x00	; 0
    2ace:	49 f0       	breq	.+18     	; 0x2ae2 <_ZN6StringC1EPKc+0x64>
    2ad0:	e9 81       	ldd	r30, Y+1	; 0x01
    2ad2:	fa 81       	ldd	r31, Y+2	; 0x02
    2ad4:	80 81       	ld	r24, Z
    2ad6:	91 81       	ldd	r25, Z+1	; 0x01
    2ad8:	2b 81       	ldd	r18, Y+3	; 0x03
    2ada:	3c 81       	ldd	r19, Y+4	; 0x04
    2adc:	b9 01       	movw	r22, r18
    2ade:	0e 94 ea 26 	call	0x4dd4	; 0x4dd4 <strcpy>
    2ae2:	0f 90       	pop	r0
    2ae4:	0f 90       	pop	r0
    2ae6:	0f 90       	pop	r0
    2ae8:	0f 90       	pop	r0
    2aea:	cf 91       	pop	r28
    2aec:	df 91       	pop	r29
    2aee:	08 95       	ret

00002af0 <_ZNK6String11toUpperCaseEv>:
    2af0:	0f 93       	push	r16
    2af2:	1f 93       	push	r17
    2af4:	df 93       	push	r29
    2af6:	cf 93       	push	r28
    2af8:	cd b7       	in	r28, 0x3d	; 61
    2afa:	de b7       	in	r29, 0x3e	; 62
    2afc:	2c 97       	sbiw	r28, 0x0c	; 12
    2afe:	0f b6       	in	r0, 0x3f	; 63
    2b00:	f8 94       	cli
    2b02:	de bf       	out	0x3e, r29	; 62
    2b04:	0f be       	out	0x3f, r0	; 63
    2b06:	cd bf       	out	0x3d, r28	; 61
    2b08:	9c 87       	std	Y+12, r25	; 0x0c
    2b0a:	8b 87       	std	Y+11, r24	; 0x0b
    2b0c:	7a 87       	std	Y+10, r23	; 0x0a
    2b0e:	69 87       	std	Y+9, r22	; 0x09
    2b10:	8b 85       	ldd	r24, Y+11	; 0x0b
    2b12:	9c 85       	ldd	r25, Y+12	; 0x0c
    2b14:	e9 85       	ldd	r30, Y+9	; 0x09
    2b16:	fa 85       	ldd	r31, Y+10	; 0x0a
    2b18:	20 81       	ld	r18, Z
    2b1a:	31 81       	ldd	r19, Z+1	; 0x01
    2b1c:	b9 01       	movw	r22, r18
    2b1e:	0e 94 3f 15 	call	0x2a7e	; 0x2a7e <_ZN6StringC1EPKc>
    2b22:	1a 82       	std	Y+2, r1	; 0x02
    2b24:	19 82       	std	Y+1, r1	; 0x01
    2b26:	1e c0       	rjmp	.+60     	; 0x2b64 <_ZNK6String11toUpperCaseEv+0x74>
    2b28:	eb 85       	ldd	r30, Y+11	; 0x0b
    2b2a:	fc 85       	ldd	r31, Y+12	; 0x0c
    2b2c:	20 81       	ld	r18, Z
    2b2e:	31 81       	ldd	r19, Z+1	; 0x01
    2b30:	89 81       	ldd	r24, Y+1	; 0x01
    2b32:	9a 81       	ldd	r25, Y+2	; 0x02
    2b34:	89 01       	movw	r16, r18
    2b36:	08 0f       	add	r16, r24
    2b38:	19 1f       	adc	r17, r25
    2b3a:	eb 85       	ldd	r30, Y+11	; 0x0b
    2b3c:	fc 85       	ldd	r31, Y+12	; 0x0c
    2b3e:	20 81       	ld	r18, Z
    2b40:	31 81       	ldd	r19, Z+1	; 0x01
    2b42:	89 81       	ldd	r24, Y+1	; 0x01
    2b44:	9a 81       	ldd	r25, Y+2	; 0x02
    2b46:	f9 01       	movw	r30, r18
    2b48:	e8 0f       	add	r30, r24
    2b4a:	f9 1f       	adc	r31, r25
    2b4c:	80 81       	ld	r24, Z
    2b4e:	88 2f       	mov	r24, r24
    2b50:	90 e0       	ldi	r25, 0x00	; 0
    2b52:	0e 94 c3 26 	call	0x4d86	; 0x4d86 <toupper>
    2b56:	f8 01       	movw	r30, r16
    2b58:	80 83       	st	Z, r24
    2b5a:	89 81       	ldd	r24, Y+1	; 0x01
    2b5c:	9a 81       	ldd	r25, Y+2	; 0x02
    2b5e:	01 96       	adiw	r24, 0x01	; 1
    2b60:	9a 83       	std	Y+2, r25	; 0x02
    2b62:	89 83       	std	Y+1, r24	; 0x01
    2b64:	e9 85       	ldd	r30, Y+9	; 0x09
    2b66:	fa 85       	ldd	r31, Y+10	; 0x0a
    2b68:	24 81       	ldd	r18, Z+4	; 0x04
    2b6a:	35 81       	ldd	r19, Z+5	; 0x05
    2b6c:	89 81       	ldd	r24, Y+1	; 0x01
    2b6e:	9a 81       	ldd	r25, Y+2	; 0x02
    2b70:	82 17       	cp	r24, r18
    2b72:	93 07       	cpc	r25, r19
    2b74:	c8 f2       	brcs	.-78     	; 0x2b28 <_ZNK6String11toUpperCaseEv+0x38>
    2b76:	8b 85       	ldd	r24, Y+11	; 0x0b
    2b78:	9c 85       	ldd	r25, Y+12	; 0x0c
    2b7a:	8b 85       	ldd	r24, Y+11	; 0x0b
    2b7c:	9c 85       	ldd	r25, Y+12	; 0x0c
    2b7e:	2c 96       	adiw	r28, 0x0c	; 12
    2b80:	0f b6       	in	r0, 0x3f	; 63
    2b82:	f8 94       	cli
    2b84:	de bf       	out	0x3e, r29	; 62
    2b86:	0f be       	out	0x3f, r0	; 63
    2b88:	cd bf       	out	0x3d, r28	; 61
    2b8a:	cf 91       	pop	r28
    2b8c:	df 91       	pop	r29
    2b8e:	1f 91       	pop	r17
    2b90:	0f 91       	pop	r16
    2b92:	08 95       	ret

00002b94 <_ZNK6String11toLowerCaseEv>:
    2b94:	0f 93       	push	r16
    2b96:	1f 93       	push	r17
    2b98:	df 93       	push	r29
    2b9a:	cf 93       	push	r28
    2b9c:	cd b7       	in	r28, 0x3d	; 61
    2b9e:	de b7       	in	r29, 0x3e	; 62
    2ba0:	2c 97       	sbiw	r28, 0x0c	; 12
    2ba2:	0f b6       	in	r0, 0x3f	; 63
    2ba4:	f8 94       	cli
    2ba6:	de bf       	out	0x3e, r29	; 62
    2ba8:	0f be       	out	0x3f, r0	; 63
    2baa:	cd bf       	out	0x3d, r28	; 61
    2bac:	9c 87       	std	Y+12, r25	; 0x0c
    2bae:	8b 87       	std	Y+11, r24	; 0x0b
    2bb0:	7a 87       	std	Y+10, r23	; 0x0a
    2bb2:	69 87       	std	Y+9, r22	; 0x09
    2bb4:	8b 85       	ldd	r24, Y+11	; 0x0b
    2bb6:	9c 85       	ldd	r25, Y+12	; 0x0c
    2bb8:	e9 85       	ldd	r30, Y+9	; 0x09
    2bba:	fa 85       	ldd	r31, Y+10	; 0x0a
    2bbc:	20 81       	ld	r18, Z
    2bbe:	31 81       	ldd	r19, Z+1	; 0x01
    2bc0:	b9 01       	movw	r22, r18
    2bc2:	0e 94 3f 15 	call	0x2a7e	; 0x2a7e <_ZN6StringC1EPKc>
    2bc6:	1a 82       	std	Y+2, r1	; 0x02
    2bc8:	19 82       	std	Y+1, r1	; 0x01
    2bca:	1e c0       	rjmp	.+60     	; 0x2c08 <_ZNK6String11toLowerCaseEv+0x74>
    2bcc:	eb 85       	ldd	r30, Y+11	; 0x0b
    2bce:	fc 85       	ldd	r31, Y+12	; 0x0c
    2bd0:	20 81       	ld	r18, Z
    2bd2:	31 81       	ldd	r19, Z+1	; 0x01
    2bd4:	89 81       	ldd	r24, Y+1	; 0x01
    2bd6:	9a 81       	ldd	r25, Y+2	; 0x02
    2bd8:	89 01       	movw	r16, r18
    2bda:	08 0f       	add	r16, r24
    2bdc:	19 1f       	adc	r17, r25
    2bde:	eb 85       	ldd	r30, Y+11	; 0x0b
    2be0:	fc 85       	ldd	r31, Y+12	; 0x0c
    2be2:	20 81       	ld	r18, Z
    2be4:	31 81       	ldd	r19, Z+1	; 0x01
    2be6:	89 81       	ldd	r24, Y+1	; 0x01
    2be8:	9a 81       	ldd	r25, Y+2	; 0x02
    2bea:	f9 01       	movw	r30, r18
    2bec:	e8 0f       	add	r30, r24
    2bee:	f9 1f       	adc	r31, r25
    2bf0:	80 81       	ld	r24, Z
    2bf2:	88 2f       	mov	r24, r24
    2bf4:	90 e0       	ldi	r25, 0x00	; 0
    2bf6:	0e 94 bb 26 	call	0x4d76	; 0x4d76 <tolower>
    2bfa:	f8 01       	movw	r30, r16
    2bfc:	80 83       	st	Z, r24
    2bfe:	89 81       	ldd	r24, Y+1	; 0x01
    2c00:	9a 81       	ldd	r25, Y+2	; 0x02
    2c02:	01 96       	adiw	r24, 0x01	; 1
    2c04:	9a 83       	std	Y+2, r25	; 0x02
    2c06:	89 83       	std	Y+1, r24	; 0x01
    2c08:	e9 85       	ldd	r30, Y+9	; 0x09
    2c0a:	fa 85       	ldd	r31, Y+10	; 0x0a
    2c0c:	24 81       	ldd	r18, Z+4	; 0x04
    2c0e:	35 81       	ldd	r19, Z+5	; 0x05
    2c10:	89 81       	ldd	r24, Y+1	; 0x01
    2c12:	9a 81       	ldd	r25, Y+2	; 0x02
    2c14:	82 17       	cp	r24, r18
    2c16:	93 07       	cpc	r25, r19
    2c18:	c8 f2       	brcs	.-78     	; 0x2bcc <_ZNK6String11toLowerCaseEv+0x38>
    2c1a:	8b 85       	ldd	r24, Y+11	; 0x0b
    2c1c:	9c 85       	ldd	r25, Y+12	; 0x0c
    2c1e:	8b 85       	ldd	r24, Y+11	; 0x0b
    2c20:	9c 85       	ldd	r25, Y+12	; 0x0c
    2c22:	2c 96       	adiw	r28, 0x0c	; 12
    2c24:	0f b6       	in	r0, 0x3f	; 63
    2c26:	f8 94       	cli
    2c28:	de bf       	out	0x3e, r29	; 62
    2c2a:	0f be       	out	0x3f, r0	; 63
    2c2c:	cd bf       	out	0x3d, r28	; 61
    2c2e:	cf 91       	pop	r28
    2c30:	df 91       	pop	r29
    2c32:	1f 91       	pop	r17
    2c34:	0f 91       	pop	r16
    2c36:	08 95       	ret

00002c38 <_ZNK6String16equalsIgnoreCaseERKS_>:
    2c38:	0f 93       	push	r16
    2c3a:	1f 93       	push	r17
    2c3c:	df 93       	push	r29
    2c3e:	cf 93       	push	r28
    2c40:	cd b7       	in	r28, 0x3d	; 61
    2c42:	de b7       	in	r29, 0x3e	; 62
    2c44:	61 97       	sbiw	r28, 0x11	; 17
    2c46:	0f b6       	in	r0, 0x3f	; 63
    2c48:	f8 94       	cli
    2c4a:	de bf       	out	0x3e, r29	; 62
    2c4c:	0f be       	out	0x3f, r0	; 63
    2c4e:	cd bf       	out	0x3d, r28	; 61
    2c50:	9e 87       	std	Y+14, r25	; 0x0e
    2c52:	8d 87       	std	Y+13, r24	; 0x0d
    2c54:	78 8b       	std	Y+16, r23	; 0x10
    2c56:	6f 87       	std	Y+15, r22	; 0x0f
    2c58:	2d 85       	ldd	r18, Y+13	; 0x0d
    2c5a:	3e 85       	ldd	r19, Y+14	; 0x0e
    2c5c:	8f 85       	ldd	r24, Y+15	; 0x0f
    2c5e:	98 89       	ldd	r25, Y+16	; 0x10
    2c60:	28 17       	cp	r18, r24
    2c62:	39 07       	cpc	r19, r25
    2c64:	19 f4       	brne	.+6      	; 0x2c6c <_ZNK6String16equalsIgnoreCaseERKS_+0x34>
    2c66:	81 e0       	ldi	r24, 0x01	; 1
    2c68:	89 8b       	std	Y+17, r24	; 0x11
    2c6a:	30 c0       	rjmp	.+96     	; 0x2ccc <_ZNK6String16equalsIgnoreCaseERKS_+0x94>
    2c6c:	ed 85       	ldd	r30, Y+13	; 0x0d
    2c6e:	fe 85       	ldd	r31, Y+14	; 0x0e
    2c70:	24 81       	ldd	r18, Z+4	; 0x04
    2c72:	35 81       	ldd	r19, Z+5	; 0x05
    2c74:	ef 85       	ldd	r30, Y+15	; 0x0f
    2c76:	f8 89       	ldd	r31, Y+16	; 0x10
    2c78:	84 81       	ldd	r24, Z+4	; 0x04
    2c7a:	95 81       	ldd	r25, Z+5	; 0x05
    2c7c:	28 17       	cp	r18, r24
    2c7e:	39 07       	cpc	r19, r25
    2c80:	11 f0       	breq	.+4      	; 0x2c86 <_ZNK6String16equalsIgnoreCaseERKS_+0x4e>
    2c82:	19 8a       	std	Y+17, r1	; 0x11
    2c84:	23 c0       	rjmp	.+70     	; 0x2ccc <_ZNK6String16equalsIgnoreCaseERKS_+0x94>
    2c86:	ce 01       	movw	r24, r28
    2c88:	07 96       	adiw	r24, 0x07	; 7
    2c8a:	2d 85       	ldd	r18, Y+13	; 0x0d
    2c8c:	3e 85       	ldd	r19, Y+14	; 0x0e
    2c8e:	b9 01       	movw	r22, r18
    2c90:	0e 94 ca 15 	call	0x2b94	; 0x2b94 <_ZNK6String11toLowerCaseEv>
    2c94:	0f 81       	ldd	r16, Y+7	; 0x07
    2c96:	18 85       	ldd	r17, Y+8	; 0x08
    2c98:	2f 85       	ldd	r18, Y+15	; 0x0f
    2c9a:	38 89       	ldd	r19, Y+16	; 0x10
    2c9c:	ce 01       	movw	r24, r28
    2c9e:	01 96       	adiw	r24, 0x01	; 1
    2ca0:	b9 01       	movw	r22, r18
    2ca2:	0e 94 ca 15 	call	0x2b94	; 0x2b94 <_ZNK6String11toLowerCaseEv>
    2ca6:	29 81       	ldd	r18, Y+1	; 0x01
    2ca8:	3a 81       	ldd	r19, Y+2	; 0x02
    2caa:	c8 01       	movw	r24, r16
    2cac:	b9 01       	movw	r22, r18
    2cae:	0e 94 e1 26 	call	0x4dc2	; 0x4dc2 <strcmp>
    2cb2:	19 8a       	std	Y+17, r1	; 0x11
    2cb4:	00 97       	sbiw	r24, 0x00	; 0
    2cb6:	11 f4       	brne	.+4      	; 0x2cbc <_ZNK6String16equalsIgnoreCaseERKS_+0x84>
    2cb8:	81 e0       	ldi	r24, 0x01	; 1
    2cba:	89 8b       	std	Y+17, r24	; 0x11
    2cbc:	ce 01       	movw	r24, r28
    2cbe:	01 96       	adiw	r24, 0x01	; 1
    2cc0:	0e 94 74 0e 	call	0x1ce8	; 0x1ce8 <_ZN6StringD1Ev>
    2cc4:	ce 01       	movw	r24, r28
    2cc6:	07 96       	adiw	r24, 0x07	; 7
    2cc8:	0e 94 74 0e 	call	0x1ce8	; 0x1ce8 <_ZN6StringD1Ev>
    2ccc:	89 89       	ldd	r24, Y+17	; 0x11
    2cce:	61 96       	adiw	r28, 0x11	; 17
    2cd0:	0f b6       	in	r0, 0x3f	; 63
    2cd2:	f8 94       	cli
    2cd4:	de bf       	out	0x3e, r29	; 62
    2cd6:	0f be       	out	0x3f, r0	; 63
    2cd8:	cd bf       	out	0x3d, r28	; 61
    2cda:	cf 91       	pop	r28
    2cdc:	df 91       	pop	r29
    2cde:	1f 91       	pop	r17
    2ce0:	0f 91       	pop	r16
    2ce2:	08 95       	ret

00002ce4 <_ZNK6String9substringEjj>:
    2ce4:	df 93       	push	r29
    2ce6:	cf 93       	push	r28
    2ce8:	cd b7       	in	r28, 0x3d	; 61
    2cea:	de b7       	in	r29, 0x3e	; 62
    2cec:	61 97       	sbiw	r28, 0x11	; 17
    2cee:	0f b6       	in	r0, 0x3f	; 63
    2cf0:	f8 94       	cli
    2cf2:	de bf       	out	0x3e, r29	; 62
    2cf4:	0f be       	out	0x3f, r0	; 63
    2cf6:	cd bf       	out	0x3d, r28	; 61
    2cf8:	99 8b       	std	Y+17, r25	; 0x11
    2cfa:	88 8b       	std	Y+16, r24	; 0x10
    2cfc:	7b 87       	std	Y+11, r23	; 0x0b
    2cfe:	6a 87       	std	Y+10, r22	; 0x0a
    2d00:	5d 87       	std	Y+13, r21	; 0x0d
    2d02:	4c 87       	std	Y+12, r20	; 0x0c
    2d04:	3f 87       	std	Y+15, r19	; 0x0f
    2d06:	2e 87       	std	Y+14, r18	; 0x0e
    2d08:	2c 85       	ldd	r18, Y+12	; 0x0c
    2d0a:	3d 85       	ldd	r19, Y+13	; 0x0d
    2d0c:	8e 85       	ldd	r24, Y+14	; 0x0e
    2d0e:	9f 85       	ldd	r25, Y+15	; 0x0f
    2d10:	82 17       	cp	r24, r18
    2d12:	93 07       	cpc	r25, r19
    2d14:	60 f4       	brcc	.+24     	; 0x2d2e <_ZNK6String9substringEjj+0x4a>
    2d16:	8e 85       	ldd	r24, Y+14	; 0x0e
    2d18:	9f 85       	ldd	r25, Y+15	; 0x0f
    2d1a:	9a 83       	std	Y+2, r25	; 0x02
    2d1c:	89 83       	std	Y+1, r24	; 0x01
    2d1e:	8c 85       	ldd	r24, Y+12	; 0x0c
    2d20:	9d 85       	ldd	r25, Y+13	; 0x0d
    2d22:	9f 87       	std	Y+15, r25	; 0x0f
    2d24:	8e 87       	std	Y+14, r24	; 0x0e
    2d26:	89 81       	ldd	r24, Y+1	; 0x01
    2d28:	9a 81       	ldd	r25, Y+2	; 0x02
    2d2a:	9d 87       	std	Y+13, r25	; 0x0d
    2d2c:	8c 87       	std	Y+12, r24	; 0x0c
    2d2e:	ea 85       	ldd	r30, Y+10	; 0x0a
    2d30:	fb 85       	ldd	r31, Y+11	; 0x0b
    2d32:	24 81       	ldd	r18, Z+4	; 0x04
    2d34:	35 81       	ldd	r19, Z+5	; 0x05
    2d36:	8e 85       	ldd	r24, Y+14	; 0x0e
    2d38:	9f 85       	ldd	r25, Y+15	; 0x0f
    2d3a:	28 17       	cp	r18, r24
    2d3c:	39 07       	cpc	r19, r25
    2d3e:	30 f4       	brcc	.+12     	; 0x2d4c <_ZNK6String9substringEjj+0x68>
    2d40:	ea 85       	ldd	r30, Y+10	; 0x0a
    2d42:	fb 85       	ldd	r31, Y+11	; 0x0b
    2d44:	84 81       	ldd	r24, Z+4	; 0x04
    2d46:	95 81       	ldd	r25, Z+5	; 0x05
    2d48:	9f 87       	std	Y+15, r25	; 0x0f
    2d4a:	8e 87       	std	Y+14, r24	; 0x0e
    2d4c:	ea 85       	ldd	r30, Y+10	; 0x0a
    2d4e:	fb 85       	ldd	r31, Y+11	; 0x0b
    2d50:	20 81       	ld	r18, Z
    2d52:	31 81       	ldd	r19, Z+1	; 0x01
    2d54:	8e 85       	ldd	r24, Y+14	; 0x0e
    2d56:	9f 85       	ldd	r25, Y+15	; 0x0f
    2d58:	f9 01       	movw	r30, r18
    2d5a:	e8 0f       	add	r30, r24
    2d5c:	f9 1f       	adc	r31, r25
    2d5e:	80 81       	ld	r24, Z
    2d60:	8b 83       	std	Y+3, r24	; 0x03
    2d62:	ea 85       	ldd	r30, Y+10	; 0x0a
    2d64:	fb 85       	ldd	r31, Y+11	; 0x0b
    2d66:	20 81       	ld	r18, Z
    2d68:	31 81       	ldd	r19, Z+1	; 0x01
    2d6a:	8e 85       	ldd	r24, Y+14	; 0x0e
    2d6c:	9f 85       	ldd	r25, Y+15	; 0x0f
    2d6e:	f9 01       	movw	r30, r18
    2d70:	e8 0f       	add	r30, r24
    2d72:	f9 1f       	adc	r31, r25
    2d74:	10 82       	st	Z, r1
    2d76:	48 89       	ldd	r20, Y+16	; 0x10
    2d78:	59 89       	ldd	r21, Y+17	; 0x11
    2d7a:	ea 85       	ldd	r30, Y+10	; 0x0a
    2d7c:	fb 85       	ldd	r31, Y+11	; 0x0b
    2d7e:	20 81       	ld	r18, Z
    2d80:	31 81       	ldd	r19, Z+1	; 0x01
    2d82:	8c 85       	ldd	r24, Y+12	; 0x0c
    2d84:	9d 85       	ldd	r25, Y+13	; 0x0d
    2d86:	28 0f       	add	r18, r24
    2d88:	39 1f       	adc	r19, r25
    2d8a:	ca 01       	movw	r24, r20
    2d8c:	b9 01       	movw	r22, r18
    2d8e:	0e 94 3f 15 	call	0x2a7e	; 0x2a7e <_ZN6StringC1EPKc>
    2d92:	ea 85       	ldd	r30, Y+10	; 0x0a
    2d94:	fb 85       	ldd	r31, Y+11	; 0x0b
    2d96:	20 81       	ld	r18, Z
    2d98:	31 81       	ldd	r19, Z+1	; 0x01
    2d9a:	8e 85       	ldd	r24, Y+14	; 0x0e
    2d9c:	9f 85       	ldd	r25, Y+15	; 0x0f
    2d9e:	f9 01       	movw	r30, r18
    2da0:	e8 0f       	add	r30, r24
    2da2:	f9 1f       	adc	r31, r25
    2da4:	8b 81       	ldd	r24, Y+3	; 0x03
    2da6:	80 83       	st	Z, r24
    2da8:	88 89       	ldd	r24, Y+16	; 0x10
    2daa:	99 89       	ldd	r25, Y+17	; 0x11
    2dac:	88 89       	ldd	r24, Y+16	; 0x10
    2dae:	99 89       	ldd	r25, Y+17	; 0x11
    2db0:	61 96       	adiw	r28, 0x11	; 17
    2db2:	0f b6       	in	r0, 0x3f	; 63
    2db4:	f8 94       	cli
    2db6:	de bf       	out	0x3e, r29	; 62
    2db8:	0f be       	out	0x3f, r0	; 63
    2dba:	cd bf       	out	0x3d, r28	; 61
    2dbc:	cf 91       	pop	r28
    2dbe:	df 91       	pop	r29
    2dc0:	08 95       	ret

00002dc2 <_ZNK6String9substringEj>:
    2dc2:	0f 93       	push	r16
    2dc4:	1f 93       	push	r17
    2dc6:	df 93       	push	r29
    2dc8:	cf 93       	push	r28
    2dca:	00 d0       	rcall	.+0      	; 0x2dcc <_ZNK6String9substringEj+0xa>
    2dcc:	00 d0       	rcall	.+0      	; 0x2dce <_ZNK6String9substringEj+0xc>
    2dce:	cd b7       	in	r28, 0x3d	; 61
    2dd0:	de b7       	in	r29, 0x3e	; 62
    2dd2:	8c 01       	movw	r16, r24
    2dd4:	7a 83       	std	Y+2, r23	; 0x02
    2dd6:	69 83       	std	Y+1, r22	; 0x01
    2dd8:	5c 83       	std	Y+4, r21	; 0x04
    2dda:	4b 83       	std	Y+3, r20	; 0x03
    2ddc:	c8 01       	movw	r24, r16
    2dde:	e9 81       	ldd	r30, Y+1	; 0x01
    2de0:	fa 81       	ldd	r31, Y+2	; 0x02
    2de2:	04 80       	ldd	r0, Z+4	; 0x04
    2de4:	f5 81       	ldd	r31, Z+5	; 0x05
    2de6:	e0 2d       	mov	r30, r0
    2de8:	29 81       	ldd	r18, Y+1	; 0x01
    2dea:	3a 81       	ldd	r19, Y+2	; 0x02
    2dec:	4b 81       	ldd	r20, Y+3	; 0x03
    2dee:	5c 81       	ldd	r21, Y+4	; 0x04
    2df0:	b9 01       	movw	r22, r18
    2df2:	9f 01       	movw	r18, r30
    2df4:	0e 94 72 16 	call	0x2ce4	; 0x2ce4 <_ZNK6String9substringEjj>
    2df8:	c8 01       	movw	r24, r16
    2dfa:	c8 01       	movw	r24, r16
    2dfc:	0f 90       	pop	r0
    2dfe:	0f 90       	pop	r0
    2e00:	0f 90       	pop	r0
    2e02:	0f 90       	pop	r0
    2e04:	cf 91       	pop	r28
    2e06:	df 91       	pop	r29
    2e08:	1f 91       	pop	r17
    2e0a:	0f 91       	pop	r16
    2e0c:	08 95       	ret

00002e0e <_ZNK6String11lastIndexOfERKS_j>:
    2e0e:	df 93       	push	r29
    2e10:	cf 93       	push	r28
    2e12:	cd b7       	in	r28, 0x3d	; 61
    2e14:	de b7       	in	r29, 0x3e	; 62
    2e16:	64 97       	sbiw	r28, 0x14	; 20
    2e18:	0f b6       	in	r0, 0x3f	; 63
    2e1a:	f8 94       	cli
    2e1c:	de bf       	out	0x3e, r29	; 62
    2e1e:	0f be       	out	0x3f, r0	; 63
    2e20:	cd bf       	out	0x3d, r28	; 61
    2e22:	9b 87       	std	Y+11, r25	; 0x0b
    2e24:	8a 87       	std	Y+10, r24	; 0x0a
    2e26:	7d 87       	std	Y+13, r23	; 0x0d
    2e28:	6c 87       	std	Y+12, r22	; 0x0c
    2e2a:	5f 87       	std	Y+15, r21	; 0x0f
    2e2c:	4e 87       	std	Y+14, r20	; 0x0e
    2e2e:	ec 85       	ldd	r30, Y+12	; 0x0c
    2e30:	fd 85       	ldd	r31, Y+13	; 0x0d
    2e32:	84 81       	ldd	r24, Z+4	; 0x04
    2e34:	95 81       	ldd	r25, Z+5	; 0x05
    2e36:	00 97       	sbiw	r24, 0x00	; 0
    2e38:	a9 f0       	breq	.+42     	; 0x2e64 <_ZNK6String11lastIndexOfERKS_j+0x56>
    2e3a:	ec 85       	ldd	r30, Y+12	; 0x0c
    2e3c:	fd 85       	ldd	r31, Y+13	; 0x0d
    2e3e:	84 81       	ldd	r24, Z+4	; 0x04
    2e40:	95 81       	ldd	r25, Z+5	; 0x05
    2e42:	9c 01       	movw	r18, r24
    2e44:	21 50       	subi	r18, 0x01	; 1
    2e46:	30 40       	sbci	r19, 0x00	; 0
    2e48:	8e 85       	ldd	r24, Y+14	; 0x0e
    2e4a:	9f 85       	ldd	r25, Y+15	; 0x0f
    2e4c:	82 17       	cp	r24, r18
    2e4e:	93 07       	cpc	r25, r19
    2e50:	48 f0       	brcs	.+18     	; 0x2e64 <_ZNK6String11lastIndexOfERKS_j+0x56>
    2e52:	ea 85       	ldd	r30, Y+10	; 0x0a
    2e54:	fb 85       	ldd	r31, Y+11	; 0x0b
    2e56:	24 81       	ldd	r18, Z+4	; 0x04
    2e58:	35 81       	ldd	r19, Z+5	; 0x05
    2e5a:	8e 85       	ldd	r24, Y+14	; 0x0e
    2e5c:	9f 85       	ldd	r25, Y+15	; 0x0f
    2e5e:	82 17       	cp	r24, r18
    2e60:	93 07       	cpc	r25, r19
    2e62:	28 f0       	brcs	.+10     	; 0x2e6e <_ZNK6String11lastIndexOfERKS_j+0x60>
    2e64:	8f ef       	ldi	r24, 0xFF	; 255
    2e66:	9f ef       	ldi	r25, 0xFF	; 255
    2e68:	9c 8b       	std	Y+20, r25	; 0x14
    2e6a:	8b 8b       	std	Y+19, r24	; 0x13
    2e6c:	5b c0       	rjmp	.+182    	; 0x2f24 <_ZNK6String11lastIndexOfERKS_j+0x116>
    2e6e:	8c 85       	ldd	r24, Y+12	; 0x0c
    2e70:	9d 85       	ldd	r25, Y+13	; 0x0d
    2e72:	60 e0       	ldi	r22, 0x00	; 0
    2e74:	70 e0       	ldi	r23, 0x00	; 0
    2e76:	0e 94 af 0d 	call	0x1b5e	; 0x1b5e <_ZNK6StringixEj>
    2e7a:	8b 83       	std	Y+3, r24	; 0x03
    2e7c:	8e 85       	ldd	r24, Y+14	; 0x0e
    2e7e:	9f 85       	ldd	r25, Y+15	; 0x0f
    2e80:	9a 83       	std	Y+2, r25	; 0x02
    2e82:	89 83       	std	Y+1, r24	; 0x01
    2e84:	46 c0       	rjmp	.+140    	; 0x2f12 <_ZNK6String11lastIndexOfERKS_j+0x104>
    2e86:	18 8a       	std	Y+16, r1	; 0x10
    2e88:	ea 85       	ldd	r30, Y+10	; 0x0a
    2e8a:	fb 85       	ldd	r31, Y+11	; 0x0b
    2e8c:	20 81       	ld	r18, Z
    2e8e:	31 81       	ldd	r19, Z+1	; 0x01
    2e90:	89 81       	ldd	r24, Y+1	; 0x01
    2e92:	9a 81       	ldd	r25, Y+2	; 0x02
    2e94:	f9 01       	movw	r30, r18
    2e96:	e8 0f       	add	r30, r24
    2e98:	f9 1f       	adc	r31, r25
    2e9a:	90 81       	ld	r25, Z
    2e9c:	8b 81       	ldd	r24, Y+3	; 0x03
    2e9e:	98 17       	cp	r25, r24
    2ea0:	09 f5       	brne	.+66     	; 0x2ee4 <_ZNK6String11lastIndexOfERKS_j+0xd6>
    2ea2:	49 81       	ldd	r20, Y+1	; 0x01
    2ea4:	5a 81       	ldd	r21, Y+2	; 0x02
    2ea6:	ec 85       	ldd	r30, Y+12	; 0x0c
    2ea8:	fd 85       	ldd	r31, Y+13	; 0x0d
    2eaa:	24 81       	ldd	r18, Z+4	; 0x04
    2eac:	35 81       	ldd	r19, Z+5	; 0x05
    2eae:	89 81       	ldd	r24, Y+1	; 0x01
    2eb0:	9a 81       	ldd	r25, Y+2	; 0x02
    2eb2:	f9 01       	movw	r30, r18
    2eb4:	e8 0f       	add	r30, r24
    2eb6:	f9 1f       	adc	r31, r25
    2eb8:	ce 01       	movw	r24, r28
    2eba:	04 96       	adiw	r24, 0x04	; 4
    2ebc:	2a 85       	ldd	r18, Y+10	; 0x0a
    2ebe:	3b 85       	ldd	r19, Y+11	; 0x0b
    2ec0:	b9 01       	movw	r22, r18
    2ec2:	9f 01       	movw	r18, r30
    2ec4:	0e 94 72 16 	call	0x2ce4	; 0x2ce4 <_ZNK6String9substringEjj>
    2ec8:	91 e0       	ldi	r25, 0x01	; 1
    2eca:	98 8b       	std	Y+16, r25	; 0x10
    2ecc:	ce 01       	movw	r24, r28
    2ece:	04 96       	adiw	r24, 0x04	; 4
    2ed0:	2c 85       	ldd	r18, Y+12	; 0x0c
    2ed2:	3d 85       	ldd	r19, Y+13	; 0x0d
    2ed4:	b9 01       	movw	r22, r18
    2ed6:	0e 94 55 10 	call	0x20aa	; 0x20aa <_ZNK6String6equalsERKS_>
    2eda:	88 23       	and	r24, r24
    2edc:	19 f0       	breq	.+6      	; 0x2ee4 <_ZNK6String11lastIndexOfERKS_j+0xd6>
    2ede:	81 e0       	ldi	r24, 0x01	; 1
    2ee0:	89 8b       	std	Y+17, r24	; 0x11
    2ee2:	01 c0       	rjmp	.+2      	; 0x2ee6 <_ZNK6String11lastIndexOfERKS_j+0xd8>
    2ee4:	19 8a       	std	Y+17, r1	; 0x11
    2ee6:	99 89       	ldd	r25, Y+17	; 0x11
    2ee8:	9a 8b       	std	Y+18, r25	; 0x12
    2eea:	88 89       	ldd	r24, Y+16	; 0x10
    2eec:	88 23       	and	r24, r24
    2eee:	21 f0       	breq	.+8      	; 0x2ef8 <_ZNK6String11lastIndexOfERKS_j+0xea>
    2ef0:	ce 01       	movw	r24, r28
    2ef2:	04 96       	adiw	r24, 0x04	; 4
    2ef4:	0e 94 74 0e 	call	0x1ce8	; 0x1ce8 <_ZN6StringD1Ev>
    2ef8:	9a 89       	ldd	r25, Y+18	; 0x12
    2efa:	99 23       	and	r25, r25
    2efc:	29 f0       	breq	.+10     	; 0x2f08 <_ZNK6String11lastIndexOfERKS_j+0xfa>
    2efe:	89 81       	ldd	r24, Y+1	; 0x01
    2f00:	9a 81       	ldd	r25, Y+2	; 0x02
    2f02:	9c 8b       	std	Y+20, r25	; 0x14
    2f04:	8b 8b       	std	Y+19, r24	; 0x13
    2f06:	0e c0       	rjmp	.+28     	; 0x2f24 <_ZNK6String11lastIndexOfERKS_j+0x116>
    2f08:	89 81       	ldd	r24, Y+1	; 0x01
    2f0a:	9a 81       	ldd	r25, Y+2	; 0x02
    2f0c:	01 97       	sbiw	r24, 0x01	; 1
    2f0e:	9a 83       	std	Y+2, r25	; 0x02
    2f10:	89 83       	std	Y+1, r24	; 0x01
    2f12:	89 81       	ldd	r24, Y+1	; 0x01
    2f14:	9a 81       	ldd	r25, Y+2	; 0x02
    2f16:	99 23       	and	r25, r25
    2f18:	0c f0       	brlt	.+2      	; 0x2f1c <_ZNK6String11lastIndexOfERKS_j+0x10e>
    2f1a:	b5 cf       	rjmp	.-150    	; 0x2e86 <_ZNK6String11lastIndexOfERKS_j+0x78>
    2f1c:	8f ef       	ldi	r24, 0xFF	; 255
    2f1e:	9f ef       	ldi	r25, 0xFF	; 255
    2f20:	9c 8b       	std	Y+20, r25	; 0x14
    2f22:	8b 8b       	std	Y+19, r24	; 0x13
    2f24:	8b 89       	ldd	r24, Y+19	; 0x13
    2f26:	9c 89       	ldd	r25, Y+20	; 0x14
    2f28:	64 96       	adiw	r28, 0x14	; 20
    2f2a:	0f b6       	in	r0, 0x3f	; 63
    2f2c:	f8 94       	cli
    2f2e:	de bf       	out	0x3e, r29	; 62
    2f30:	0f be       	out	0x3f, r0	; 63
    2f32:	cd bf       	out	0x3d, r28	; 61
    2f34:	cf 91       	pop	r28
    2f36:	df 91       	pop	r29
    2f38:	08 95       	ret

00002f3a <_ZNK6String11lastIndexOfERKS_>:
    2f3a:	df 93       	push	r29
    2f3c:	cf 93       	push	r28
    2f3e:	00 d0       	rcall	.+0      	; 0x2f40 <_ZNK6String11lastIndexOfERKS_+0x6>
    2f40:	00 d0       	rcall	.+0      	; 0x2f42 <_ZNK6String11lastIndexOfERKS_+0x8>
    2f42:	cd b7       	in	r28, 0x3d	; 61
    2f44:	de b7       	in	r29, 0x3e	; 62
    2f46:	9a 83       	std	Y+2, r25	; 0x02
    2f48:	89 83       	std	Y+1, r24	; 0x01
    2f4a:	7c 83       	std	Y+4, r23	; 0x04
    2f4c:	6b 83       	std	Y+3, r22	; 0x03
    2f4e:	e9 81       	ldd	r30, Y+1	; 0x01
    2f50:	fa 81       	ldd	r31, Y+2	; 0x02
    2f52:	24 81       	ldd	r18, Z+4	; 0x04
    2f54:	35 81       	ldd	r19, Z+5	; 0x05
    2f56:	eb 81       	ldd	r30, Y+3	; 0x03
    2f58:	fc 81       	ldd	r31, Y+4	; 0x04
    2f5a:	84 81       	ldd	r24, Z+4	; 0x04
    2f5c:	95 81       	ldd	r25, Z+5	; 0x05
    2f5e:	a9 01       	movw	r20, r18
    2f60:	48 1b       	sub	r20, r24
    2f62:	59 0b       	sbc	r21, r25
    2f64:	89 81       	ldd	r24, Y+1	; 0x01
    2f66:	9a 81       	ldd	r25, Y+2	; 0x02
    2f68:	2b 81       	ldd	r18, Y+3	; 0x03
    2f6a:	3c 81       	ldd	r19, Y+4	; 0x04
    2f6c:	b9 01       	movw	r22, r18
    2f6e:	0e 94 07 17 	call	0x2e0e	; 0x2e0e <_ZNK6String11lastIndexOfERKS_j>
    2f72:	0f 90       	pop	r0
    2f74:	0f 90       	pop	r0
    2f76:	0f 90       	pop	r0
    2f78:	0f 90       	pop	r0
    2f7a:	cf 91       	pop	r28
    2f7c:	df 91       	pop	r29
    2f7e:	08 95       	ret

00002f80 <_ZNK6String4trimEv>:
    2f80:	df 93       	push	r29
    2f82:	cf 93       	push	r28
    2f84:	cd b7       	in	r28, 0x3d	; 61
    2f86:	de b7       	in	r29, 0x3e	; 62
    2f88:	2e 97       	sbiw	r28, 0x0e	; 14
    2f8a:	0f b6       	in	r0, 0x3f	; 63
    2f8c:	f8 94       	cli
    2f8e:	de bf       	out	0x3e, r29	; 62
    2f90:	0f be       	out	0x3f, r0	; 63
    2f92:	cd bf       	out	0x3d, r28	; 61
    2f94:	9e 87       	std	Y+14, r25	; 0x0e
    2f96:	8d 87       	std	Y+13, r24	; 0x0d
    2f98:	7c 87       	std	Y+12, r23	; 0x0c
    2f9a:	6b 87       	std	Y+11, r22	; 0x0b
    2f9c:	eb 85       	ldd	r30, Y+11	; 0x0b
    2f9e:	fc 85       	ldd	r31, Y+12	; 0x0c
    2fa0:	80 81       	ld	r24, Z
    2fa2:	91 81       	ldd	r25, Z+1	; 0x01
    2fa4:	00 97       	sbiw	r24, 0x00	; 0
    2fa6:	41 f4       	brne	.+16     	; 0x2fb8 <_ZNK6String4trimEv+0x38>
    2fa8:	8d 85       	ldd	r24, Y+13	; 0x0d
    2faa:	9e 85       	ldd	r25, Y+14	; 0x0e
    2fac:	2b 85       	ldd	r18, Y+11	; 0x0b
    2fae:	3c 85       	ldd	r19, Y+12	; 0x0c
    2fb0:	b9 01       	movw	r22, r18
    2fb2:	0e 94 b1 13 	call	0x2762	; 0x2762 <_ZN6StringC1ERKS_>
    2fb6:	60 c0       	rjmp	.+192    	; 0x3078 <_ZNK6String4trimEv+0xf8>
    2fb8:	eb 85       	ldd	r30, Y+11	; 0x0b
    2fba:	fc 85       	ldd	r31, Y+12	; 0x0c
    2fbc:	20 81       	ld	r18, Z
    2fbe:	31 81       	ldd	r19, Z+1	; 0x01
    2fc0:	ce 01       	movw	r24, r28
    2fc2:	05 96       	adiw	r24, 0x05	; 5
    2fc4:	b9 01       	movw	r22, r18
    2fc6:	0e 94 3f 15 	call	0x2a7e	; 0x2a7e <_ZN6StringC1EPKc>
    2fca:	1c 82       	std	Y+4, r1	; 0x04
    2fcc:	1b 82       	std	Y+3, r1	; 0x03
    2fce:	15 c0       	rjmp	.+42     	; 0x2ffa <_ZNK6String4trimEv+0x7a>
    2fd0:	eb 85       	ldd	r30, Y+11	; 0x0b
    2fd2:	fc 85       	ldd	r31, Y+12	; 0x0c
    2fd4:	20 81       	ld	r18, Z
    2fd6:	31 81       	ldd	r19, Z+1	; 0x01
    2fd8:	8b 81       	ldd	r24, Y+3	; 0x03
    2fda:	9c 81       	ldd	r25, Y+4	; 0x04
    2fdc:	f9 01       	movw	r30, r18
    2fde:	e8 0f       	add	r30, r24
    2fe0:	f9 1f       	adc	r31, r25
    2fe2:	80 81       	ld	r24, Z
    2fe4:	88 2f       	mov	r24, r24
    2fe6:	90 e0       	ldi	r25, 0x00	; 0
    2fe8:	0e 94 b3 26 	call	0x4d66	; 0x4d66 <isspace>
    2fec:	00 97       	sbiw	r24, 0x00	; 0
    2fee:	71 f0       	breq	.+28     	; 0x300c <_ZNK6String4trimEv+0x8c>
    2ff0:	8b 81       	ldd	r24, Y+3	; 0x03
    2ff2:	9c 81       	ldd	r25, Y+4	; 0x04
    2ff4:	01 96       	adiw	r24, 0x01	; 1
    2ff6:	9c 83       	std	Y+4, r25	; 0x04
    2ff8:	8b 83       	std	Y+3, r24	; 0x03
    2ffa:	eb 85       	ldd	r30, Y+11	; 0x0b
    2ffc:	fc 85       	ldd	r31, Y+12	; 0x0c
    2ffe:	24 81       	ldd	r18, Z+4	; 0x04
    3000:	35 81       	ldd	r19, Z+5	; 0x05
    3002:	8b 81       	ldd	r24, Y+3	; 0x03
    3004:	9c 81       	ldd	r25, Y+4	; 0x04
    3006:	82 17       	cp	r24, r18
    3008:	93 07       	cpc	r25, r19
    300a:	10 f3       	brcs	.-60     	; 0x2fd0 <_ZNK6String4trimEv+0x50>
    300c:	89 85       	ldd	r24, Y+9	; 0x09
    300e:	9a 85       	ldd	r25, Y+10	; 0x0a
    3010:	01 97       	sbiw	r24, 0x01	; 1
    3012:	9a 83       	std	Y+2, r25	; 0x02
    3014:	89 83       	std	Y+1, r24	; 0x01
    3016:	15 c0       	rjmp	.+42     	; 0x3042 <_ZNK6String4trimEv+0xc2>
    3018:	eb 85       	ldd	r30, Y+11	; 0x0b
    301a:	fc 85       	ldd	r31, Y+12	; 0x0c
    301c:	20 81       	ld	r18, Z
    301e:	31 81       	ldd	r19, Z+1	; 0x01
    3020:	89 81       	ldd	r24, Y+1	; 0x01
    3022:	9a 81       	ldd	r25, Y+2	; 0x02
    3024:	f9 01       	movw	r30, r18
    3026:	e8 0f       	add	r30, r24
    3028:	f9 1f       	adc	r31, r25
    302a:	80 81       	ld	r24, Z
    302c:	88 2f       	mov	r24, r24
    302e:	90 e0       	ldi	r25, 0x00	; 0
    3030:	0e 94 b3 26 	call	0x4d66	; 0x4d66 <isspace>
    3034:	00 97       	sbiw	r24, 0x00	; 0
    3036:	61 f0       	breq	.+24     	; 0x3050 <_ZNK6String4trimEv+0xd0>
    3038:	89 81       	ldd	r24, Y+1	; 0x01
    303a:	9a 81       	ldd	r25, Y+2	; 0x02
    303c:	01 97       	sbiw	r24, 0x01	; 1
    303e:	9a 83       	std	Y+2, r25	; 0x02
    3040:	89 83       	std	Y+1, r24	; 0x01
    3042:	29 81       	ldd	r18, Y+1	; 0x01
    3044:	3a 81       	ldd	r19, Y+2	; 0x02
    3046:	8b 81       	ldd	r24, Y+3	; 0x03
    3048:	9c 81       	ldd	r25, Y+4	; 0x04
    304a:	82 17       	cp	r24, r18
    304c:	93 07       	cpc	r25, r19
    304e:	20 f3       	brcs	.-56     	; 0x3018 <_ZNK6String4trimEv+0x98>
    3050:	6d 85       	ldd	r22, Y+13	; 0x0d
    3052:	7e 85       	ldd	r23, Y+14	; 0x0e
    3054:	89 81       	ldd	r24, Y+1	; 0x01
    3056:	9a 81       	ldd	r25, Y+2	; 0x02
    3058:	fc 01       	movw	r30, r24
    305a:	31 96       	adiw	r30, 0x01	; 1
    305c:	9e 01       	movw	r18, r28
    305e:	2b 5f       	subi	r18, 0xFB	; 251
    3060:	3f 4f       	sbci	r19, 0xFF	; 255
    3062:	4b 81       	ldd	r20, Y+3	; 0x03
    3064:	5c 81       	ldd	r21, Y+4	; 0x04
    3066:	cb 01       	movw	r24, r22
    3068:	b9 01       	movw	r22, r18
    306a:	9f 01       	movw	r18, r30
    306c:	0e 94 72 16 	call	0x2ce4	; 0x2ce4 <_ZNK6String9substringEjj>
    3070:	ce 01       	movw	r24, r28
    3072:	05 96       	adiw	r24, 0x05	; 5
    3074:	0e 94 74 0e 	call	0x1ce8	; 0x1ce8 <_ZN6StringD1Ev>
    3078:	8d 85       	ldd	r24, Y+13	; 0x0d
    307a:	9e 85       	ldd	r25, Y+14	; 0x0e
    307c:	8d 85       	ldd	r24, Y+13	; 0x0d
    307e:	9e 85       	ldd	r25, Y+14	; 0x0e
    3080:	2e 96       	adiw	r28, 0x0e	; 14
    3082:	0f b6       	in	r0, 0x3f	; 63
    3084:	f8 94       	cli
    3086:	de bf       	out	0x3e, r29	; 62
    3088:	0f be       	out	0x3f, r0	; 63
    308a:	cd bf       	out	0x3d, r28	; 61
    308c:	cf 91       	pop	r28
    308e:	df 91       	pop	r29
    3090:	08 95       	ret

00003092 <_ZN6String7replaceERKS_S1_>:
    3092:	df 93       	push	r29
    3094:	cf 93       	push	r28
    3096:	cd b7       	in	r28, 0x3d	; 61
    3098:	de b7       	in	r29, 0x3e	; 62
    309a:	a3 97       	sbiw	r28, 0x23	; 35
    309c:	0f b6       	in	r0, 0x3f	; 63
    309e:	f8 94       	cli
    30a0:	de bf       	out	0x3e, r29	; 62
    30a2:	0f be       	out	0x3f, r0	; 63
    30a4:	cd bf       	out	0x3d, r28	; 61
    30a6:	9b a3       	std	Y+35, r25	; 0x23
    30a8:	8a a3       	std	Y+34, r24	; 0x22
    30aa:	7c 8f       	std	Y+28, r23	; 0x1c
    30ac:	6b 8f       	std	Y+27, r22	; 0x1b
    30ae:	5e 8f       	std	Y+30, r21	; 0x1e
    30b0:	4d 8f       	std	Y+29, r20	; 0x1d
    30b2:	38 a3       	std	Y+32, r19	; 0x20
    30b4:	2f 8f       	std	Y+31, r18	; 0x1f
    30b6:	eb 8d       	ldd	r30, Y+27	; 0x1b
    30b8:	fc 8d       	ldd	r31, Y+28	; 0x1c
    30ba:	80 81       	ld	r24, Z
    30bc:	91 81       	ldd	r25, Z+1	; 0x01
    30be:	00 97       	sbiw	r24, 0x00	; 0
    30c0:	41 f4       	brne	.+16     	; 0x30d2 <_ZN6String7replaceERKS_S1_+0x40>
    30c2:	8a a1       	ldd	r24, Y+34	; 0x22
    30c4:	9b a1       	ldd	r25, Y+35	; 0x23
    30c6:	2b 8d       	ldd	r18, Y+27	; 0x1b
    30c8:	3c 8d       	ldd	r19, Y+28	; 0x1c
    30ca:	b9 01       	movw	r22, r18
    30cc:	0e 94 b1 13 	call	0x2762	; 0x2762 <_ZN6StringC1ERKS_>
    30d0:	7c c0       	rjmp	.+248    	; 0x31ca <_ZN6String7replaceERKS_S1_+0x138>
    30d2:	eb 8d       	ldd	r30, Y+27	; 0x1b
    30d4:	fc 8d       	ldd	r31, Y+28	; 0x1c
    30d6:	20 81       	ld	r18, Z
    30d8:	31 81       	ldd	r19, Z+1	; 0x01
    30da:	ce 01       	movw	r24, r28
    30dc:	0f 96       	adiw	r24, 0x0f	; 15
    30de:	b9 01       	movw	r22, r18
    30e0:	0e 94 3f 15 	call	0x2a7e	; 0x2a7e <_ZN6StringC1EPKc>
    30e4:	ce 01       	movw	r24, r28
    30e6:	45 96       	adiw	r24, 0x15	; 21
    30e8:	22 e2       	ldi	r18, 0x22	; 34
    30ea:	31 e0       	ldi	r19, 0x01	; 1
    30ec:	b9 01       	movw	r22, r18
    30ee:	0e 94 3f 15 	call	0x2a7e	; 0x2a7e <_ZN6StringC1EPKc>
    30f2:	3d c0       	rjmp	.+122    	; 0x316e <_ZN6String7replaceERKS_S1_+0xdc>
    30f4:	e9 81       	ldd	r30, Y+1	; 0x01
    30f6:	fa 81       	ldd	r31, Y+2	; 0x02
    30f8:	ce 01       	movw	r24, r28
    30fa:	09 96       	adiw	r24, 0x09	; 9
    30fc:	9e 01       	movw	r18, r28
    30fe:	21 5f       	subi	r18, 0xF1	; 241
    3100:	3f 4f       	sbci	r19, 0xFF	; 255
    3102:	b9 01       	movw	r22, r18
    3104:	40 e0       	ldi	r20, 0x00	; 0
    3106:	50 e0       	ldi	r21, 0x00	; 0
    3108:	9f 01       	movw	r18, r30
    310a:	0e 94 72 16 	call	0x2ce4	; 0x2ce4 <_ZNK6String9substringEjj>
    310e:	ce 01       	movw	r24, r28
    3110:	45 96       	adiw	r24, 0x15	; 21
    3112:	9e 01       	movw	r18, r28
    3114:	27 5f       	subi	r18, 0xF7	; 247
    3116:	3f 4f       	sbci	r19, 0xFF	; 255
    3118:	b9 01       	movw	r22, r18
    311a:	0e 94 22 12 	call	0x2444	; 0x2444 <_ZN6StringpLERKS_>
    311e:	ce 01       	movw	r24, r28
    3120:	09 96       	adiw	r24, 0x09	; 9
    3122:	0e 94 74 0e 	call	0x1ce8	; 0x1ce8 <_ZN6StringD1Ev>
    3126:	ce 01       	movw	r24, r28
    3128:	45 96       	adiw	r24, 0x15	; 21
    312a:	2f 8d       	ldd	r18, Y+31	; 0x1f
    312c:	38 a1       	ldd	r19, Y+32	; 0x20
    312e:	b9 01       	movw	r22, r18
    3130:	0e 94 22 12 	call	0x2444	; 0x2444 <_ZN6StringpLERKS_>
    3134:	ed 8d       	ldd	r30, Y+29	; 0x1d
    3136:	fe 8d       	ldd	r31, Y+30	; 0x1e
    3138:	24 81       	ldd	r18, Z+4	; 0x04
    313a:	35 81       	ldd	r19, Z+5	; 0x05
    313c:	89 81       	ldd	r24, Y+1	; 0x01
    313e:	9a 81       	ldd	r25, Y+2	; 0x02
    3140:	a9 01       	movw	r20, r18
    3142:	48 0f       	add	r20, r24
    3144:	59 1f       	adc	r21, r25
    3146:	ce 01       	movw	r24, r28
    3148:	03 96       	adiw	r24, 0x03	; 3
    314a:	9e 01       	movw	r18, r28
    314c:	21 5f       	subi	r18, 0xF1	; 241
    314e:	3f 4f       	sbci	r19, 0xFF	; 255
    3150:	b9 01       	movw	r22, r18
    3152:	0e 94 e1 16 	call	0x2dc2	; 0x2dc2 <_ZNK6String9substringEj>
    3156:	ce 01       	movw	r24, r28
    3158:	0f 96       	adiw	r24, 0x0f	; 15
    315a:	9e 01       	movw	r18, r28
    315c:	2d 5f       	subi	r18, 0xFD	; 253
    315e:	3f 4f       	sbci	r19, 0xFF	; 255
    3160:	b9 01       	movw	r22, r18
    3162:	0e 94 9c 12 	call	0x2538	; 0x2538 <_ZN6StringaSERKS_>
    3166:	ce 01       	movw	r24, r28
    3168:	03 96       	adiw	r24, 0x03	; 3
    316a:	0e 94 74 0e 	call	0x1ce8	; 0x1ce8 <_ZN6StringD1Ev>
    316e:	ce 01       	movw	r24, r28
    3170:	0f 96       	adiw	r24, 0x0f	; 15
    3172:	2d 8d       	ldd	r18, Y+29	; 0x1d
    3174:	3e 8d       	ldd	r19, Y+30	; 0x1e
    3176:	b9 01       	movw	r22, r18
    3178:	0e 94 d7 0f 	call	0x1fae	; 0x1fae <_ZNK6String7indexOfERKS_>
    317c:	9a 83       	std	Y+2, r25	; 0x02
    317e:	89 83       	std	Y+1, r24	; 0x01
    3180:	19 a2       	std	Y+33, r1	; 0x21
    3182:	89 81       	ldd	r24, Y+1	; 0x01
    3184:	9a 81       	ldd	r25, Y+2	; 0x02
    3186:	2f ef       	ldi	r18, 0xFF	; 255
    3188:	8f 3f       	cpi	r24, 0xFF	; 255
    318a:	92 07       	cpc	r25, r18
    318c:	11 f0       	breq	.+4      	; 0x3192 <_ZN6String7replaceERKS_S1_+0x100>
    318e:	81 e0       	ldi	r24, 0x01	; 1
    3190:	89 a3       	std	Y+33, r24	; 0x21
    3192:	29 a1       	ldd	r18, Y+33	; 0x21
    3194:	22 23       	and	r18, r18
    3196:	09 f0       	breq	.+2      	; 0x319a <_ZN6String7replaceERKS_S1_+0x108>
    3198:	ad cf       	rjmp	.-166    	; 0x30f4 <_ZN6String7replaceERKS_S1_+0x62>
    319a:	ce 01       	movw	r24, r28
    319c:	45 96       	adiw	r24, 0x15	; 21
    319e:	9e 01       	movw	r18, r28
    31a0:	21 5f       	subi	r18, 0xF1	; 241
    31a2:	3f 4f       	sbci	r19, 0xFF	; 255
    31a4:	b9 01       	movw	r22, r18
    31a6:	0e 94 22 12 	call	0x2444	; 0x2444 <_ZN6StringpLERKS_>
    31aa:	8a a1       	ldd	r24, Y+34	; 0x22
    31ac:	9b a1       	ldd	r25, Y+35	; 0x23
    31ae:	9e 01       	movw	r18, r28
    31b0:	2b 5e       	subi	r18, 0xEB	; 235
    31b2:	3f 4f       	sbci	r19, 0xFF	; 255
    31b4:	b9 01       	movw	r22, r18
    31b6:	0e 94 b1 13 	call	0x2762	; 0x2762 <_ZN6StringC1ERKS_>
    31ba:	ce 01       	movw	r24, r28
    31bc:	45 96       	adiw	r24, 0x15	; 21
    31be:	0e 94 74 0e 	call	0x1ce8	; 0x1ce8 <_ZN6StringD1Ev>
    31c2:	ce 01       	movw	r24, r28
    31c4:	0f 96       	adiw	r24, 0x0f	; 15
    31c6:	0e 94 74 0e 	call	0x1ce8	; 0x1ce8 <_ZN6StringD1Ev>
    31ca:	8a a1       	ldd	r24, Y+34	; 0x22
    31cc:	9b a1       	ldd	r25, Y+35	; 0x23
    31ce:	8a a1       	ldd	r24, Y+34	; 0x22
    31d0:	9b a1       	ldd	r25, Y+35	; 0x23
    31d2:	a3 96       	adiw	r28, 0x23	; 35
    31d4:	0f b6       	in	r0, 0x3f	; 63
    31d6:	f8 94       	cli
    31d8:	de bf       	out	0x3e, r29	; 62
    31da:	0f be       	out	0x3f, r0	; 63
    31dc:	cd bf       	out	0x3d, r28	; 61
    31de:	cf 91       	pop	r28
    31e0:	df 91       	pop	r29
    31e2:	08 95       	ret

000031e4 <_ZN6String7replaceEcc>:
    31e4:	df 93       	push	r29
    31e6:	cf 93       	push	r28
    31e8:	cd b7       	in	r28, 0x3d	; 61
    31ea:	de b7       	in	r29, 0x3e	; 62
    31ec:	2f 97       	sbiw	r28, 0x0f	; 15
    31ee:	0f b6       	in	r0, 0x3f	; 63
    31f0:	f8 94       	cli
    31f2:	de bf       	out	0x3e, r29	; 62
    31f4:	0f be       	out	0x3f, r0	; 63
    31f6:	cd bf       	out	0x3d, r28	; 61
    31f8:	9f 87       	std	Y+15, r25	; 0x0f
    31fa:	8e 87       	std	Y+14, r24	; 0x0e
    31fc:	7a 87       	std	Y+10, r23	; 0x0a
    31fe:	69 87       	std	Y+9, r22	; 0x09
    3200:	4b 87       	std	Y+11, r20	; 0x0b
    3202:	2c 87       	std	Y+12, r18	; 0x0c
    3204:	e9 85       	ldd	r30, Y+9	; 0x09
    3206:	fa 85       	ldd	r31, Y+10	; 0x0a
    3208:	80 81       	ld	r24, Z
    320a:	91 81       	ldd	r25, Z+1	; 0x01
    320c:	00 97       	sbiw	r24, 0x00	; 0
    320e:	41 f4       	brne	.+16     	; 0x3220 <_ZN6String7replaceEcc+0x3c>
    3210:	8e 85       	ldd	r24, Y+14	; 0x0e
    3212:	9f 85       	ldd	r25, Y+15	; 0x0f
    3214:	29 85       	ldd	r18, Y+9	; 0x09
    3216:	3a 85       	ldd	r19, Y+10	; 0x0a
    3218:	b9 01       	movw	r22, r18
    321a:	0e 94 b1 13 	call	0x2762	; 0x2762 <_ZN6StringC1ERKS_>
    321e:	32 c0       	rjmp	.+100    	; 0x3284 <_ZN6String7replaceEcc+0xa0>
    3220:	e9 85       	ldd	r30, Y+9	; 0x09
    3222:	fa 85       	ldd	r31, Y+10	; 0x0a
    3224:	20 81       	ld	r18, Z
    3226:	31 81       	ldd	r19, Z+1	; 0x01
    3228:	ce 01       	movw	r24, r28
    322a:	03 96       	adiw	r24, 0x03	; 3
    322c:	b9 01       	movw	r22, r18
    322e:	0e 94 3f 15 	call	0x2a7e	; 0x2a7e <_ZN6StringC1EPKc>
    3232:	8b 81       	ldd	r24, Y+3	; 0x03
    3234:	9c 81       	ldd	r25, Y+4	; 0x04
    3236:	9a 83       	std	Y+2, r25	; 0x02
    3238:	89 83       	std	Y+1, r24	; 0x01
    323a:	04 c0       	rjmp	.+8      	; 0x3244 <_ZN6String7replaceEcc+0x60>
    323c:	e9 81       	ldd	r30, Y+1	; 0x01
    323e:	fa 81       	ldd	r31, Y+2	; 0x02
    3240:	8c 85       	ldd	r24, Y+12	; 0x0c
    3242:	80 83       	st	Z, r24
    3244:	8b 85       	ldd	r24, Y+11	; 0x0b
    3246:	28 2f       	mov	r18, r24
    3248:	30 e0       	ldi	r19, 0x00	; 0
    324a:	89 81       	ldd	r24, Y+1	; 0x01
    324c:	9a 81       	ldd	r25, Y+2	; 0x02
    324e:	b9 01       	movw	r22, r18
    3250:	0e 94 d6 26 	call	0x4dac	; 0x4dac <strchr>
    3254:	9a 83       	std	Y+2, r25	; 0x02
    3256:	89 83       	std	Y+1, r24	; 0x01
    3258:	1d 86       	std	Y+13, r1	; 0x0d
    325a:	89 81       	ldd	r24, Y+1	; 0x01
    325c:	9a 81       	ldd	r25, Y+2	; 0x02
    325e:	00 97       	sbiw	r24, 0x00	; 0
    3260:	11 f0       	breq	.+4      	; 0x3266 <_ZN6String7replaceEcc+0x82>
    3262:	81 e0       	ldi	r24, 0x01	; 1
    3264:	8d 87       	std	Y+13, r24	; 0x0d
    3266:	8d 85       	ldd	r24, Y+13	; 0x0d
    3268:	88 23       	and	r24, r24
    326a:	41 f7       	brne	.-48     	; 0x323c <_ZN6String7replaceEcc+0x58>
    326c:	8e 85       	ldd	r24, Y+14	; 0x0e
    326e:	9f 85       	ldd	r25, Y+15	; 0x0f
    3270:	9e 01       	movw	r18, r28
    3272:	2d 5f       	subi	r18, 0xFD	; 253
    3274:	3f 4f       	sbci	r19, 0xFF	; 255
    3276:	b9 01       	movw	r22, r18
    3278:	0e 94 b1 13 	call	0x2762	; 0x2762 <_ZN6StringC1ERKS_>
    327c:	ce 01       	movw	r24, r28
    327e:	03 96       	adiw	r24, 0x03	; 3
    3280:	0e 94 74 0e 	call	0x1ce8	; 0x1ce8 <_ZN6StringD1Ev>
    3284:	8e 85       	ldd	r24, Y+14	; 0x0e
    3286:	9f 85       	ldd	r25, Y+15	; 0x0f
    3288:	8e 85       	ldd	r24, Y+14	; 0x0e
    328a:	9f 85       	ldd	r25, Y+15	; 0x0f
    328c:	2f 96       	adiw	r28, 0x0f	; 15
    328e:	0f b6       	in	r0, 0x3f	; 63
    3290:	f8 94       	cli
    3292:	de bf       	out	0x3e, r29	; 62
    3294:	0f be       	out	0x3f, r0	; 63
    3296:	cd bf       	out	0x3d, r28	; 61
    3298:	cf 91       	pop	r28
    329a:	df 91       	pop	r29
    329c:	08 95       	ret

0000329e <_ZN6StringC2EPKc>:
    329e:	df 93       	push	r29
    32a0:	cf 93       	push	r28
    32a2:	00 d0       	rcall	.+0      	; 0x32a4 <_ZN6StringC2EPKc+0x6>
    32a4:	00 d0       	rcall	.+0      	; 0x32a6 <_ZN6StringC2EPKc+0x8>
    32a6:	cd b7       	in	r28, 0x3d	; 61
    32a8:	de b7       	in	r29, 0x3e	; 62
    32aa:	9a 83       	std	Y+2, r25	; 0x02
    32ac:	89 83       	std	Y+1, r24	; 0x01
    32ae:	7c 83       	std	Y+4, r23	; 0x04
    32b0:	6b 83       	std	Y+3, r22	; 0x03
    32b2:	8b 81       	ldd	r24, Y+3	; 0x03
    32b4:	9c 81       	ldd	r25, Y+4	; 0x04
    32b6:	00 97       	sbiw	r24, 0x00	; 0
    32b8:	21 f4       	brne	.+8      	; 0x32c2 <_ZN6StringC2EPKc+0x24>
    32ba:	82 e2       	ldi	r24, 0x22	; 34
    32bc:	91 e0       	ldi	r25, 0x01	; 1
    32be:	9c 83       	std	Y+4, r25	; 0x04
    32c0:	8b 83       	std	Y+3, r24	; 0x03
    32c2:	8b 81       	ldd	r24, Y+3	; 0x03
    32c4:	9c 81       	ldd	r25, Y+4	; 0x04
    32c6:	0e 94 f1 26 	call	0x4de2	; 0x4de2 <strlen>
    32ca:	e9 81       	ldd	r30, Y+1	; 0x01
    32cc:	fa 81       	ldd	r31, Y+2	; 0x02
    32ce:	95 83       	std	Z+5, r25	; 0x05
    32d0:	84 83       	std	Z+4, r24	; 0x04
    32d2:	e9 81       	ldd	r30, Y+1	; 0x01
    32d4:	fa 81       	ldd	r31, Y+2	; 0x02
    32d6:	24 81       	ldd	r18, Z+4	; 0x04
    32d8:	35 81       	ldd	r19, Z+5	; 0x05
    32da:	89 81       	ldd	r24, Y+1	; 0x01
    32dc:	9a 81       	ldd	r25, Y+2	; 0x02
    32de:	b9 01       	movw	r22, r18
    32e0:	0e 94 ee 11 	call	0x23dc	; 0x23dc <_ZN6String9getBufferEj>
    32e4:	e9 81       	ldd	r30, Y+1	; 0x01
    32e6:	fa 81       	ldd	r31, Y+2	; 0x02
    32e8:	80 81       	ld	r24, Z
    32ea:	91 81       	ldd	r25, Z+1	; 0x01
    32ec:	00 97       	sbiw	r24, 0x00	; 0
    32ee:	49 f0       	breq	.+18     	; 0x3302 <_ZN6StringC2EPKc+0x64>
    32f0:	e9 81       	ldd	r30, Y+1	; 0x01
    32f2:	fa 81       	ldd	r31, Y+2	; 0x02
    32f4:	80 81       	ld	r24, Z
    32f6:	91 81       	ldd	r25, Z+1	; 0x01
    32f8:	2b 81       	ldd	r18, Y+3	; 0x03
    32fa:	3c 81       	ldd	r19, Y+4	; 0x04
    32fc:	b9 01       	movw	r22, r18
    32fe:	0e 94 ea 26 	call	0x4dd4	; 0x4dd4 <strcpy>
    3302:	0f 90       	pop	r0
    3304:	0f 90       	pop	r0
    3306:	0f 90       	pop	r0
    3308:	0f 90       	pop	r0
    330a:	cf 91       	pop	r28
    330c:	df 91       	pop	r29
    330e:	08 95       	ret

00003310 <_ZN6StringC1Eli>:
    3310:	df 93       	push	r29
    3312:	cf 93       	push	r28
    3314:	cd b7       	in	r28, 0x3d	; 61
    3316:	de b7       	in	r29, 0x3e	; 62
    3318:	a9 97       	sbiw	r28, 0x29	; 41
    331a:	0f b6       	in	r0, 0x3f	; 63
    331c:	f8 94       	cli
    331e:	de bf       	out	0x3e, r29	; 62
    3320:	0f be       	out	0x3f, r0	; 63
    3322:	cd bf       	out	0x3d, r28	; 61
    3324:	9b a3       	std	Y+35, r25	; 0x23
    3326:	8a a3       	std	Y+34, r24	; 0x22
    3328:	4c a3       	std	Y+36, r20	; 0x24
    332a:	5d a3       	std	Y+37, r21	; 0x25
    332c:	6e a3       	std	Y+38, r22	; 0x26
    332e:	7f a3       	std	Y+39, r23	; 0x27
    3330:	39 a7       	std	Y+41, r19	; 0x29
    3332:	28 a7       	std	Y+40, r18	; 0x28
    3334:	8c a1       	ldd	r24, Y+36	; 0x24
    3336:	9d a1       	ldd	r25, Y+37	; 0x25
    3338:	ae a1       	ldd	r26, Y+38	; 0x26
    333a:	bf a1       	ldd	r27, Y+39	; 0x27
    333c:	e8 a5       	ldd	r30, Y+40	; 0x28
    333e:	f9 a5       	ldd	r31, Y+41	; 0x29
    3340:	bc 01       	movw	r22, r24
    3342:	cd 01       	movw	r24, r26
    3344:	9e 01       	movw	r18, r28
    3346:	2f 5f       	subi	r18, 0xFF	; 255
    3348:	3f 4f       	sbci	r19, 0xFF	; 255
    334a:	a9 01       	movw	r20, r18
    334c:	9f 01       	movw	r18, r30
    334e:	0e 94 5d 27 	call	0x4eba	; 0x4eba <ltoa>
    3352:	ce 01       	movw	r24, r28
    3354:	01 96       	adiw	r24, 0x01	; 1
    3356:	0e 94 f1 26 	call	0x4de2	; 0x4de2 <strlen>
    335a:	ea a1       	ldd	r30, Y+34	; 0x22
    335c:	fb a1       	ldd	r31, Y+35	; 0x23
    335e:	95 83       	std	Z+5, r25	; 0x05
    3360:	84 83       	std	Z+4, r24	; 0x04
    3362:	ea a1       	ldd	r30, Y+34	; 0x22
    3364:	fb a1       	ldd	r31, Y+35	; 0x23
    3366:	24 81       	ldd	r18, Z+4	; 0x04
    3368:	35 81       	ldd	r19, Z+5	; 0x05
    336a:	8a a1       	ldd	r24, Y+34	; 0x22
    336c:	9b a1       	ldd	r25, Y+35	; 0x23
    336e:	b9 01       	movw	r22, r18
    3370:	0e 94 ee 11 	call	0x23dc	; 0x23dc <_ZN6String9getBufferEj>
    3374:	ea a1       	ldd	r30, Y+34	; 0x22
    3376:	fb a1       	ldd	r31, Y+35	; 0x23
    3378:	80 81       	ld	r24, Z
    337a:	91 81       	ldd	r25, Z+1	; 0x01
    337c:	00 97       	sbiw	r24, 0x00	; 0
    337e:	51 f0       	breq	.+20     	; 0x3394 <_ZN6StringC1Eli+0x84>
    3380:	ea a1       	ldd	r30, Y+34	; 0x22
    3382:	fb a1       	ldd	r31, Y+35	; 0x23
    3384:	80 81       	ld	r24, Z
    3386:	91 81       	ldd	r25, Z+1	; 0x01
    3388:	9e 01       	movw	r18, r28
    338a:	2f 5f       	subi	r18, 0xFF	; 255
    338c:	3f 4f       	sbci	r19, 0xFF	; 255
    338e:	b9 01       	movw	r22, r18
    3390:	0e 94 ea 26 	call	0x4dd4	; 0x4dd4 <strcpy>
    3394:	a9 96       	adiw	r28, 0x29	; 41
    3396:	0f b6       	in	r0, 0x3f	; 63
    3398:	f8 94       	cli
    339a:	de bf       	out	0x3e, r29	; 62
    339c:	0f be       	out	0x3f, r0	; 63
    339e:	cd bf       	out	0x3d, r28	; 61
    33a0:	cf 91       	pop	r28
    33a2:	df 91       	pop	r29
    33a4:	08 95       	ret

000033a6 <_ZN6StringC2Eli>:
    33a6:	df 93       	push	r29
    33a8:	cf 93       	push	r28
    33aa:	cd b7       	in	r28, 0x3d	; 61
    33ac:	de b7       	in	r29, 0x3e	; 62
    33ae:	a9 97       	sbiw	r28, 0x29	; 41
    33b0:	0f b6       	in	r0, 0x3f	; 63
    33b2:	f8 94       	cli
    33b4:	de bf       	out	0x3e, r29	; 62
    33b6:	0f be       	out	0x3f, r0	; 63
    33b8:	cd bf       	out	0x3d, r28	; 61
    33ba:	9b a3       	std	Y+35, r25	; 0x23
    33bc:	8a a3       	std	Y+34, r24	; 0x22
    33be:	4c a3       	std	Y+36, r20	; 0x24
    33c0:	5d a3       	std	Y+37, r21	; 0x25
    33c2:	6e a3       	std	Y+38, r22	; 0x26
    33c4:	7f a3       	std	Y+39, r23	; 0x27
    33c6:	39 a7       	std	Y+41, r19	; 0x29
    33c8:	28 a7       	std	Y+40, r18	; 0x28
    33ca:	8c a1       	ldd	r24, Y+36	; 0x24
    33cc:	9d a1       	ldd	r25, Y+37	; 0x25
    33ce:	ae a1       	ldd	r26, Y+38	; 0x26
    33d0:	bf a1       	ldd	r27, Y+39	; 0x27
    33d2:	e8 a5       	ldd	r30, Y+40	; 0x28
    33d4:	f9 a5       	ldd	r31, Y+41	; 0x29
    33d6:	bc 01       	movw	r22, r24
    33d8:	cd 01       	movw	r24, r26
    33da:	9e 01       	movw	r18, r28
    33dc:	2f 5f       	subi	r18, 0xFF	; 255
    33de:	3f 4f       	sbci	r19, 0xFF	; 255
    33e0:	a9 01       	movw	r20, r18
    33e2:	9f 01       	movw	r18, r30
    33e4:	0e 94 5d 27 	call	0x4eba	; 0x4eba <ltoa>
    33e8:	ce 01       	movw	r24, r28
    33ea:	01 96       	adiw	r24, 0x01	; 1
    33ec:	0e 94 f1 26 	call	0x4de2	; 0x4de2 <strlen>
    33f0:	ea a1       	ldd	r30, Y+34	; 0x22
    33f2:	fb a1       	ldd	r31, Y+35	; 0x23
    33f4:	95 83       	std	Z+5, r25	; 0x05
    33f6:	84 83       	std	Z+4, r24	; 0x04
    33f8:	ea a1       	ldd	r30, Y+34	; 0x22
    33fa:	fb a1       	ldd	r31, Y+35	; 0x23
    33fc:	24 81       	ldd	r18, Z+4	; 0x04
    33fe:	35 81       	ldd	r19, Z+5	; 0x05
    3400:	8a a1       	ldd	r24, Y+34	; 0x22
    3402:	9b a1       	ldd	r25, Y+35	; 0x23
    3404:	b9 01       	movw	r22, r18
    3406:	0e 94 ee 11 	call	0x23dc	; 0x23dc <_ZN6String9getBufferEj>
    340a:	ea a1       	ldd	r30, Y+34	; 0x22
    340c:	fb a1       	ldd	r31, Y+35	; 0x23
    340e:	80 81       	ld	r24, Z
    3410:	91 81       	ldd	r25, Z+1	; 0x01
    3412:	00 97       	sbiw	r24, 0x00	; 0
    3414:	51 f0       	breq	.+20     	; 0x342a <_ZN6StringC2Eli+0x84>
    3416:	ea a1       	ldd	r30, Y+34	; 0x22
    3418:	fb a1       	ldd	r31, Y+35	; 0x23
    341a:	80 81       	ld	r24, Z
    341c:	91 81       	ldd	r25, Z+1	; 0x01
    341e:	9e 01       	movw	r18, r28
    3420:	2f 5f       	subi	r18, 0xFF	; 255
    3422:	3f 4f       	sbci	r19, 0xFF	; 255
    3424:	b9 01       	movw	r22, r18
    3426:	0e 94 ea 26 	call	0x4dd4	; 0x4dd4 <strcpy>
    342a:	a9 96       	adiw	r28, 0x29	; 41
    342c:	0f b6       	in	r0, 0x3f	; 63
    342e:	f8 94       	cli
    3430:	de bf       	out	0x3e, r29	; 62
    3432:	0f be       	out	0x3f, r0	; 63
    3434:	cd bf       	out	0x3d, r28	; 61
    3436:	cf 91       	pop	r28
    3438:	df 91       	pop	r29
    343a:	08 95       	ret

0000343c <_ZN6StringC1Eii>:
    343c:	df 93       	push	r29
    343e:	cf 93       	push	r28
    3440:	cd b7       	in	r28, 0x3d	; 61
    3442:	de b7       	in	r29, 0x3e	; 62
    3444:	a7 97       	sbiw	r28, 0x27	; 39
    3446:	0f b6       	in	r0, 0x3f	; 63
    3448:	f8 94       	cli
    344a:	de bf       	out	0x3e, r29	; 62
    344c:	0f be       	out	0x3f, r0	; 63
    344e:	cd bf       	out	0x3d, r28	; 61
    3450:	9b a3       	std	Y+35, r25	; 0x23
    3452:	8a a3       	std	Y+34, r24	; 0x22
    3454:	7d a3       	std	Y+37, r23	; 0x25
    3456:	6c a3       	std	Y+36, r22	; 0x24
    3458:	5f a3       	std	Y+39, r21	; 0x27
    345a:	4e a3       	std	Y+38, r20	; 0x26
    345c:	8c a1       	ldd	r24, Y+36	; 0x24
    345e:	9d a1       	ldd	r25, Y+37	; 0x25
    3460:	4e a1       	ldd	r20, Y+38	; 0x26
    3462:	5f a1       	ldd	r21, Y+39	; 0x27
    3464:	9e 01       	movw	r18, r28
    3466:	2f 5f       	subi	r18, 0xFF	; 255
    3468:	3f 4f       	sbci	r19, 0xFF	; 255
    346a:	b9 01       	movw	r22, r18
    346c:	0e 94 3c 27 	call	0x4e78	; 0x4e78 <itoa>
    3470:	ce 01       	movw	r24, r28
    3472:	01 96       	adiw	r24, 0x01	; 1
    3474:	0e 94 f1 26 	call	0x4de2	; 0x4de2 <strlen>
    3478:	ea a1       	ldd	r30, Y+34	; 0x22
    347a:	fb a1       	ldd	r31, Y+35	; 0x23
    347c:	95 83       	std	Z+5, r25	; 0x05
    347e:	84 83       	std	Z+4, r24	; 0x04
    3480:	ea a1       	ldd	r30, Y+34	; 0x22
    3482:	fb a1       	ldd	r31, Y+35	; 0x23
    3484:	24 81       	ldd	r18, Z+4	; 0x04
    3486:	35 81       	ldd	r19, Z+5	; 0x05
    3488:	8a a1       	ldd	r24, Y+34	; 0x22
    348a:	9b a1       	ldd	r25, Y+35	; 0x23
    348c:	b9 01       	movw	r22, r18
    348e:	0e 94 ee 11 	call	0x23dc	; 0x23dc <_ZN6String9getBufferEj>
    3492:	ea a1       	ldd	r30, Y+34	; 0x22
    3494:	fb a1       	ldd	r31, Y+35	; 0x23
    3496:	80 81       	ld	r24, Z
    3498:	91 81       	ldd	r25, Z+1	; 0x01
    349a:	00 97       	sbiw	r24, 0x00	; 0
    349c:	51 f0       	breq	.+20     	; 0x34b2 <_ZN6StringC1Eii+0x76>
    349e:	ea a1       	ldd	r30, Y+34	; 0x22
    34a0:	fb a1       	ldd	r31, Y+35	; 0x23
    34a2:	80 81       	ld	r24, Z
    34a4:	91 81       	ldd	r25, Z+1	; 0x01
    34a6:	9e 01       	movw	r18, r28
    34a8:	2f 5f       	subi	r18, 0xFF	; 255
    34aa:	3f 4f       	sbci	r19, 0xFF	; 255
    34ac:	b9 01       	movw	r22, r18
    34ae:	0e 94 ea 26 	call	0x4dd4	; 0x4dd4 <strcpy>
    34b2:	a7 96       	adiw	r28, 0x27	; 39
    34b4:	0f b6       	in	r0, 0x3f	; 63
    34b6:	f8 94       	cli
    34b8:	de bf       	out	0x3e, r29	; 62
    34ba:	0f be       	out	0x3f, r0	; 63
    34bc:	cd bf       	out	0x3d, r28	; 61
    34be:	cf 91       	pop	r28
    34c0:	df 91       	pop	r29
    34c2:	08 95       	ret

000034c4 <_ZN6StringC2Eii>:
    34c4:	df 93       	push	r29
    34c6:	cf 93       	push	r28
    34c8:	cd b7       	in	r28, 0x3d	; 61
    34ca:	de b7       	in	r29, 0x3e	; 62
    34cc:	a7 97       	sbiw	r28, 0x27	; 39
    34ce:	0f b6       	in	r0, 0x3f	; 63
    34d0:	f8 94       	cli
    34d2:	de bf       	out	0x3e, r29	; 62
    34d4:	0f be       	out	0x3f, r0	; 63
    34d6:	cd bf       	out	0x3d, r28	; 61
    34d8:	9b a3       	std	Y+35, r25	; 0x23
    34da:	8a a3       	std	Y+34, r24	; 0x22
    34dc:	7d a3       	std	Y+37, r23	; 0x25
    34de:	6c a3       	std	Y+36, r22	; 0x24
    34e0:	5f a3       	std	Y+39, r21	; 0x27
    34e2:	4e a3       	std	Y+38, r20	; 0x26
    34e4:	8c a1       	ldd	r24, Y+36	; 0x24
    34e6:	9d a1       	ldd	r25, Y+37	; 0x25
    34e8:	4e a1       	ldd	r20, Y+38	; 0x26
    34ea:	5f a1       	ldd	r21, Y+39	; 0x27
    34ec:	9e 01       	movw	r18, r28
    34ee:	2f 5f       	subi	r18, 0xFF	; 255
    34f0:	3f 4f       	sbci	r19, 0xFF	; 255
    34f2:	b9 01       	movw	r22, r18
    34f4:	0e 94 3c 27 	call	0x4e78	; 0x4e78 <itoa>
    34f8:	ce 01       	movw	r24, r28
    34fa:	01 96       	adiw	r24, 0x01	; 1
    34fc:	0e 94 f1 26 	call	0x4de2	; 0x4de2 <strlen>
    3500:	ea a1       	ldd	r30, Y+34	; 0x22
    3502:	fb a1       	ldd	r31, Y+35	; 0x23
    3504:	95 83       	std	Z+5, r25	; 0x05
    3506:	84 83       	std	Z+4, r24	; 0x04
    3508:	ea a1       	ldd	r30, Y+34	; 0x22
    350a:	fb a1       	ldd	r31, Y+35	; 0x23
    350c:	24 81       	ldd	r18, Z+4	; 0x04
    350e:	35 81       	ldd	r19, Z+5	; 0x05
    3510:	8a a1       	ldd	r24, Y+34	; 0x22
    3512:	9b a1       	ldd	r25, Y+35	; 0x23
    3514:	b9 01       	movw	r22, r18
    3516:	0e 94 ee 11 	call	0x23dc	; 0x23dc <_ZN6String9getBufferEj>
    351a:	ea a1       	ldd	r30, Y+34	; 0x22
    351c:	fb a1       	ldd	r31, Y+35	; 0x23
    351e:	80 81       	ld	r24, Z
    3520:	91 81       	ldd	r25, Z+1	; 0x01
    3522:	00 97       	sbiw	r24, 0x00	; 0
    3524:	51 f0       	breq	.+20     	; 0x353a <_ZN6StringC2Eii+0x76>
    3526:	ea a1       	ldd	r30, Y+34	; 0x22
    3528:	fb a1       	ldd	r31, Y+35	; 0x23
    352a:	80 81       	ld	r24, Z
    352c:	91 81       	ldd	r25, Z+1	; 0x01
    352e:	9e 01       	movw	r18, r28
    3530:	2f 5f       	subi	r18, 0xFF	; 255
    3532:	3f 4f       	sbci	r19, 0xFF	; 255
    3534:	b9 01       	movw	r22, r18
    3536:	0e 94 ea 26 	call	0x4dd4	; 0x4dd4 <strcpy>
    353a:	a7 96       	adiw	r28, 0x27	; 39
    353c:	0f b6       	in	r0, 0x3f	; 63
    353e:	f8 94       	cli
    3540:	de bf       	out	0x3e, r29	; 62
    3542:	0f be       	out	0x3f, r0	; 63
    3544:	cd bf       	out	0x3d, r28	; 61
    3546:	cf 91       	pop	r28
    3548:	df 91       	pop	r29
    354a:	08 95       	ret

0000354c <__cxa_pure_virtual>:
    354c:	df 93       	push	r29
    354e:	cf 93       	push	r28
    3550:	cd b7       	in	r28, 0x3d	; 61
    3552:	de b7       	in	r29, 0x3e	; 62
    3554:	ff cf       	rjmp	.-2      	; 0x3554 <__cxa_pure_virtual+0x8>

00003556 <__vector_16>:
    3556:	1f 92       	push	r1
    3558:	0f 92       	push	r0
    355a:	0f b6       	in	r0, 0x3f	; 63
    355c:	0f 92       	push	r0
    355e:	11 24       	eor	r1, r1
    3560:	8f 93       	push	r24
    3562:	9f 93       	push	r25
    3564:	af 93       	push	r26
    3566:	bf 93       	push	r27
    3568:	df 93       	push	r29
    356a:	cf 93       	push	r28
    356c:	00 d0       	rcall	.+0      	; 0x356e <__vector_16+0x18>
    356e:	00 d0       	rcall	.+0      	; 0x3570 <__vector_16+0x1a>
    3570:	0f 92       	push	r0
    3572:	cd b7       	in	r28, 0x3d	; 61
    3574:	de b7       	in	r29, 0x3e	; 62
    3576:	80 91 56 02 	lds	r24, 0x0256
    357a:	90 91 57 02 	lds	r25, 0x0257
    357e:	a0 91 58 02 	lds	r26, 0x0258
    3582:	b0 91 59 02 	lds	r27, 0x0259
    3586:	8a 83       	std	Y+2, r24	; 0x02
    3588:	9b 83       	std	Y+3, r25	; 0x03
    358a:	ac 83       	std	Y+4, r26	; 0x04
    358c:	bd 83       	std	Y+5, r27	; 0x05
    358e:	80 91 5a 02 	lds	r24, 0x025A
    3592:	89 83       	std	Y+1, r24	; 0x01
    3594:	8a 81       	ldd	r24, Y+2	; 0x02
    3596:	9b 81       	ldd	r25, Y+3	; 0x03
    3598:	ac 81       	ldd	r26, Y+4	; 0x04
    359a:	bd 81       	ldd	r27, Y+5	; 0x05
    359c:	01 96       	adiw	r24, 0x01	; 1
    359e:	a1 1d       	adc	r26, r1
    35a0:	b1 1d       	adc	r27, r1
    35a2:	8a 83       	std	Y+2, r24	; 0x02
    35a4:	9b 83       	std	Y+3, r25	; 0x03
    35a6:	ac 83       	std	Y+4, r26	; 0x04
    35a8:	bd 83       	std	Y+5, r27	; 0x05
    35aa:	89 81       	ldd	r24, Y+1	; 0x01
    35ac:	8d 5f       	subi	r24, 0xFD	; 253
    35ae:	89 83       	std	Y+1, r24	; 0x01
    35b0:	89 81       	ldd	r24, Y+1	; 0x01
    35b2:	8d 37       	cpi	r24, 0x7D	; 125
    35b4:	70 f0       	brcs	.+28     	; 0x35d2 <__vector_16+0x7c>
    35b6:	89 81       	ldd	r24, Y+1	; 0x01
    35b8:	8d 57       	subi	r24, 0x7D	; 125
    35ba:	89 83       	std	Y+1, r24	; 0x01
    35bc:	8a 81       	ldd	r24, Y+2	; 0x02
    35be:	9b 81       	ldd	r25, Y+3	; 0x03
    35c0:	ac 81       	ldd	r26, Y+4	; 0x04
    35c2:	bd 81       	ldd	r27, Y+5	; 0x05
    35c4:	01 96       	adiw	r24, 0x01	; 1
    35c6:	a1 1d       	adc	r26, r1
    35c8:	b1 1d       	adc	r27, r1
    35ca:	8a 83       	std	Y+2, r24	; 0x02
    35cc:	9b 83       	std	Y+3, r25	; 0x03
    35ce:	ac 83       	std	Y+4, r26	; 0x04
    35d0:	bd 83       	std	Y+5, r27	; 0x05
    35d2:	89 81       	ldd	r24, Y+1	; 0x01
    35d4:	80 93 5a 02 	sts	0x025A, r24
    35d8:	8a 81       	ldd	r24, Y+2	; 0x02
    35da:	9b 81       	ldd	r25, Y+3	; 0x03
    35dc:	ac 81       	ldd	r26, Y+4	; 0x04
    35de:	bd 81       	ldd	r27, Y+5	; 0x05
    35e0:	80 93 56 02 	sts	0x0256, r24
    35e4:	90 93 57 02 	sts	0x0257, r25
    35e8:	a0 93 58 02 	sts	0x0258, r26
    35ec:	b0 93 59 02 	sts	0x0259, r27
    35f0:	80 91 52 02 	lds	r24, 0x0252
    35f4:	90 91 53 02 	lds	r25, 0x0253
    35f8:	a0 91 54 02 	lds	r26, 0x0254
    35fc:	b0 91 55 02 	lds	r27, 0x0255
    3600:	01 96       	adiw	r24, 0x01	; 1
    3602:	a1 1d       	adc	r26, r1
    3604:	b1 1d       	adc	r27, r1
    3606:	80 93 52 02 	sts	0x0252, r24
    360a:	90 93 53 02 	sts	0x0253, r25
    360e:	a0 93 54 02 	sts	0x0254, r26
    3612:	b0 93 55 02 	sts	0x0255, r27
    3616:	0f 90       	pop	r0
    3618:	0f 90       	pop	r0
    361a:	0f 90       	pop	r0
    361c:	0f 90       	pop	r0
    361e:	0f 90       	pop	r0
    3620:	cf 91       	pop	r28
    3622:	df 91       	pop	r29
    3624:	bf 91       	pop	r27
    3626:	af 91       	pop	r26
    3628:	9f 91       	pop	r25
    362a:	8f 91       	pop	r24
    362c:	0f 90       	pop	r0
    362e:	0f be       	out	0x3f, r0	; 63
    3630:	0f 90       	pop	r0
    3632:	1f 90       	pop	r1
    3634:	18 95       	reti

00003636 <millis>:
    3636:	df 93       	push	r29
    3638:	cf 93       	push	r28
    363a:	00 d0       	rcall	.+0      	; 0x363c <millis+0x6>
    363c:	00 d0       	rcall	.+0      	; 0x363e <millis+0x8>
    363e:	0f 92       	push	r0
    3640:	cd b7       	in	r28, 0x3d	; 61
    3642:	de b7       	in	r29, 0x3e	; 62
    3644:	ef e5       	ldi	r30, 0x5F	; 95
    3646:	f0 e0       	ldi	r31, 0x00	; 0
    3648:	80 81       	ld	r24, Z
    364a:	89 83       	std	Y+1, r24	; 0x01
    364c:	f8 94       	cli
    364e:	80 91 56 02 	lds	r24, 0x0256
    3652:	90 91 57 02 	lds	r25, 0x0257
    3656:	a0 91 58 02 	lds	r26, 0x0258
    365a:	b0 91 59 02 	lds	r27, 0x0259
    365e:	8a 83       	std	Y+2, r24	; 0x02
    3660:	9b 83       	std	Y+3, r25	; 0x03
    3662:	ac 83       	std	Y+4, r26	; 0x04
    3664:	bd 83       	std	Y+5, r27	; 0x05
    3666:	ef e5       	ldi	r30, 0x5F	; 95
    3668:	f0 e0       	ldi	r31, 0x00	; 0
    366a:	89 81       	ldd	r24, Y+1	; 0x01
    366c:	80 83       	st	Z, r24
    366e:	8a 81       	ldd	r24, Y+2	; 0x02
    3670:	9b 81       	ldd	r25, Y+3	; 0x03
    3672:	ac 81       	ldd	r26, Y+4	; 0x04
    3674:	bd 81       	ldd	r27, Y+5	; 0x05
    3676:	bc 01       	movw	r22, r24
    3678:	cd 01       	movw	r24, r26
    367a:	0f 90       	pop	r0
    367c:	0f 90       	pop	r0
    367e:	0f 90       	pop	r0
    3680:	0f 90       	pop	r0
    3682:	0f 90       	pop	r0
    3684:	cf 91       	pop	r28
    3686:	df 91       	pop	r29
    3688:	08 95       	ret

0000368a <micros>:
    368a:	df 93       	push	r29
    368c:	cf 93       	push	r28
    368e:	00 d0       	rcall	.+0      	; 0x3690 <micros+0x6>
    3690:	00 d0       	rcall	.+0      	; 0x3692 <micros+0x8>
    3692:	00 d0       	rcall	.+0      	; 0x3694 <micros+0xa>
    3694:	cd b7       	in	r28, 0x3d	; 61
    3696:	de b7       	in	r29, 0x3e	; 62
    3698:	ef e5       	ldi	r30, 0x5F	; 95
    369a:	f0 e0       	ldi	r31, 0x00	; 0
    369c:	80 81       	ld	r24, Z
    369e:	8a 83       	std	Y+2, r24	; 0x02
    36a0:	f8 94       	cli
    36a2:	80 91 52 02 	lds	r24, 0x0252
    36a6:	90 91 53 02 	lds	r25, 0x0253
    36aa:	a0 91 54 02 	lds	r26, 0x0254
    36ae:	b0 91 55 02 	lds	r27, 0x0255
    36b2:	8b 83       	std	Y+3, r24	; 0x03
    36b4:	9c 83       	std	Y+4, r25	; 0x04
    36b6:	ad 83       	std	Y+5, r26	; 0x05
    36b8:	be 83       	std	Y+6, r27	; 0x06
    36ba:	e6 e4       	ldi	r30, 0x46	; 70
    36bc:	f0 e0       	ldi	r31, 0x00	; 0
    36be:	80 81       	ld	r24, Z
    36c0:	89 83       	std	Y+1, r24	; 0x01
    36c2:	e5 e3       	ldi	r30, 0x35	; 53
    36c4:	f0 e0       	ldi	r31, 0x00	; 0
    36c6:	80 81       	ld	r24, Z
    36c8:	88 2f       	mov	r24, r24
    36ca:	90 e0       	ldi	r25, 0x00	; 0
    36cc:	81 70       	andi	r24, 0x01	; 1
    36ce:	90 70       	andi	r25, 0x00	; 0
    36d0:	88 23       	and	r24, r24
    36d2:	71 f0       	breq	.+28     	; 0x36f0 <micros+0x66>
    36d4:	89 81       	ldd	r24, Y+1	; 0x01
    36d6:	8f 3f       	cpi	r24, 0xFF	; 255
    36d8:	59 f0       	breq	.+22     	; 0x36f0 <micros+0x66>
    36da:	8b 81       	ldd	r24, Y+3	; 0x03
    36dc:	9c 81       	ldd	r25, Y+4	; 0x04
    36de:	ad 81       	ldd	r26, Y+5	; 0x05
    36e0:	be 81       	ldd	r27, Y+6	; 0x06
    36e2:	01 96       	adiw	r24, 0x01	; 1
    36e4:	a1 1d       	adc	r26, r1
    36e6:	b1 1d       	adc	r27, r1
    36e8:	8b 83       	std	Y+3, r24	; 0x03
    36ea:	9c 83       	std	Y+4, r25	; 0x04
    36ec:	ad 83       	std	Y+5, r26	; 0x05
    36ee:	be 83       	std	Y+6, r27	; 0x06
    36f0:	ef e5       	ldi	r30, 0x5F	; 95
    36f2:	f0 e0       	ldi	r31, 0x00	; 0
    36f4:	8a 81       	ldd	r24, Y+2	; 0x02
    36f6:	80 83       	st	Z, r24
    36f8:	8b 81       	ldd	r24, Y+3	; 0x03
    36fa:	9c 81       	ldd	r25, Y+4	; 0x04
    36fc:	ad 81       	ldd	r26, Y+5	; 0x05
    36fe:	be 81       	ldd	r27, Y+6	; 0x06
    3700:	22 27       	eor	r18, r18
    3702:	38 2f       	mov	r19, r24
    3704:	49 2f       	mov	r20, r25
    3706:	5a 2f       	mov	r21, r26
    3708:	89 81       	ldd	r24, Y+1	; 0x01
    370a:	88 2f       	mov	r24, r24
    370c:	90 e0       	ldi	r25, 0x00	; 0
    370e:	a0 e0       	ldi	r26, 0x00	; 0
    3710:	b0 e0       	ldi	r27, 0x00	; 0
    3712:	82 0f       	add	r24, r18
    3714:	93 1f       	adc	r25, r19
    3716:	a4 1f       	adc	r26, r20
    3718:	b5 1f       	adc	r27, r21
    371a:	88 0f       	add	r24, r24
    371c:	99 1f       	adc	r25, r25
    371e:	aa 1f       	adc	r26, r26
    3720:	bb 1f       	adc	r27, r27
    3722:	88 0f       	add	r24, r24
    3724:	99 1f       	adc	r25, r25
    3726:	aa 1f       	adc	r26, r26
    3728:	bb 1f       	adc	r27, r27
    372a:	bc 01       	movw	r22, r24
    372c:	cd 01       	movw	r24, r26
    372e:	26 96       	adiw	r28, 0x06	; 6
    3730:	0f b6       	in	r0, 0x3f	; 63
    3732:	f8 94       	cli
    3734:	de bf       	out	0x3e, r29	; 62
    3736:	0f be       	out	0x3f, r0	; 63
    3738:	cd bf       	out	0x3d, r28	; 61
    373a:	cf 91       	pop	r28
    373c:	df 91       	pop	r29
    373e:	08 95       	ret

00003740 <delay>:
    3740:	df 93       	push	r29
    3742:	cf 93       	push	r28
    3744:	00 d0       	rcall	.+0      	; 0x3746 <delay+0x6>
    3746:	00 d0       	rcall	.+0      	; 0x3748 <delay+0x8>
    3748:	00 d0       	rcall	.+0      	; 0x374a <delay+0xa>
    374a:	cd b7       	in	r28, 0x3d	; 61
    374c:	de b7       	in	r29, 0x3e	; 62
    374e:	6b 83       	std	Y+3, r22	; 0x03
    3750:	7c 83       	std	Y+4, r23	; 0x04
    3752:	8d 83       	std	Y+5, r24	; 0x05
    3754:	9e 83       	std	Y+6, r25	; 0x06
    3756:	0e 94 45 1b 	call	0x368a	; 0x368a <micros>
    375a:	dc 01       	movw	r26, r24
    375c:	cb 01       	movw	r24, r22
    375e:	9a 83       	std	Y+2, r25	; 0x02
    3760:	89 83       	std	Y+1, r24	; 0x01
    3762:	20 c0       	rjmp	.+64     	; 0x37a4 <delay+0x64>
    3764:	0e 94 45 1b 	call	0x368a	; 0x368a <micros>
    3768:	dc 01       	movw	r26, r24
    376a:	cb 01       	movw	r24, r22
    376c:	9c 01       	movw	r18, r24
    376e:	89 81       	ldd	r24, Y+1	; 0x01
    3770:	9a 81       	ldd	r25, Y+2	; 0x02
    3772:	a9 01       	movw	r20, r18
    3774:	48 1b       	sub	r20, r24
    3776:	59 0b       	sbc	r21, r25
    3778:	ca 01       	movw	r24, r20
    377a:	53 e0       	ldi	r21, 0x03	; 3
    377c:	88 3e       	cpi	r24, 0xE8	; 232
    377e:	95 07       	cpc	r25, r21
    3780:	88 f0       	brcs	.+34     	; 0x37a4 <delay+0x64>
    3782:	8b 81       	ldd	r24, Y+3	; 0x03
    3784:	9c 81       	ldd	r25, Y+4	; 0x04
    3786:	ad 81       	ldd	r26, Y+5	; 0x05
    3788:	be 81       	ldd	r27, Y+6	; 0x06
    378a:	01 97       	sbiw	r24, 0x01	; 1
    378c:	a1 09       	sbc	r26, r1
    378e:	b1 09       	sbc	r27, r1
    3790:	8b 83       	std	Y+3, r24	; 0x03
    3792:	9c 83       	std	Y+4, r25	; 0x04
    3794:	ad 83       	std	Y+5, r26	; 0x05
    3796:	be 83       	std	Y+6, r27	; 0x06
    3798:	89 81       	ldd	r24, Y+1	; 0x01
    379a:	9a 81       	ldd	r25, Y+2	; 0x02
    379c:	88 51       	subi	r24, 0x18	; 24
    379e:	9c 4f       	sbci	r25, 0xFC	; 252
    37a0:	9a 83       	std	Y+2, r25	; 0x02
    37a2:	89 83       	std	Y+1, r24	; 0x01
    37a4:	8b 81       	ldd	r24, Y+3	; 0x03
    37a6:	9c 81       	ldd	r25, Y+4	; 0x04
    37a8:	ad 81       	ldd	r26, Y+5	; 0x05
    37aa:	be 81       	ldd	r27, Y+6	; 0x06
    37ac:	00 97       	sbiw	r24, 0x00	; 0
    37ae:	a1 05       	cpc	r26, r1
    37b0:	b1 05       	cpc	r27, r1
    37b2:	c1 f6       	brne	.-80     	; 0x3764 <delay+0x24>
    37b4:	26 96       	adiw	r28, 0x06	; 6
    37b6:	0f b6       	in	r0, 0x3f	; 63
    37b8:	f8 94       	cli
    37ba:	de bf       	out	0x3e, r29	; 62
    37bc:	0f be       	out	0x3f, r0	; 63
    37be:	cd bf       	out	0x3d, r28	; 61
    37c0:	cf 91       	pop	r28
    37c2:	df 91       	pop	r29
    37c4:	08 95       	ret

000037c6 <delayMicroseconds>:
    37c6:	df 93       	push	r29
    37c8:	cf 93       	push	r28
    37ca:	00 d0       	rcall	.+0      	; 0x37cc <delayMicroseconds+0x6>
    37cc:	cd b7       	in	r28, 0x3d	; 61
    37ce:	de b7       	in	r29, 0x3e	; 62
    37d0:	9a 83       	std	Y+2, r25	; 0x02
    37d2:	89 83       	std	Y+1, r24	; 0x01
    37d4:	89 81       	ldd	r24, Y+1	; 0x01
    37d6:	9a 81       	ldd	r25, Y+2	; 0x02
    37d8:	01 97       	sbiw	r24, 0x01	; 1
    37da:	9a 83       	std	Y+2, r25	; 0x02
    37dc:	89 83       	std	Y+1, r24	; 0x01
    37de:	89 81       	ldd	r24, Y+1	; 0x01
    37e0:	9a 81       	ldd	r25, Y+2	; 0x02
    37e2:	00 97       	sbiw	r24, 0x00	; 0
    37e4:	99 f0       	breq	.+38     	; 0x380c <delayMicroseconds+0x46>
    37e6:	89 81       	ldd	r24, Y+1	; 0x01
    37e8:	9a 81       	ldd	r25, Y+2	; 0x02
    37ea:	88 0f       	add	r24, r24
    37ec:	99 1f       	adc	r25, r25
    37ee:	88 0f       	add	r24, r24
    37f0:	99 1f       	adc	r25, r25
    37f2:	9a 83       	std	Y+2, r25	; 0x02
    37f4:	89 83       	std	Y+1, r24	; 0x01
    37f6:	89 81       	ldd	r24, Y+1	; 0x01
    37f8:	9a 81       	ldd	r25, Y+2	; 0x02
    37fa:	02 97       	sbiw	r24, 0x02	; 2
    37fc:	9a 83       	std	Y+2, r25	; 0x02
    37fe:	89 83       	std	Y+1, r24	; 0x01
    3800:	89 81       	ldd	r24, Y+1	; 0x01
    3802:	9a 81       	ldd	r25, Y+2	; 0x02
    3804:	01 97       	sbiw	r24, 0x01	; 1
    3806:	f1 f7       	brne	.-4      	; 0x3804 <delayMicroseconds+0x3e>
    3808:	9a 83       	std	Y+2, r25	; 0x02
    380a:	89 83       	std	Y+1, r24	; 0x01
    380c:	0f 90       	pop	r0
    380e:	0f 90       	pop	r0
    3810:	cf 91       	pop	r28
    3812:	df 91       	pop	r29
    3814:	08 95       	ret

00003816 <init>:
    3816:	df 93       	push	r29
    3818:	cf 93       	push	r28
    381a:	cd b7       	in	r28, 0x3d	; 61
    381c:	de b7       	in	r29, 0x3e	; 62
    381e:	78 94       	sei
    3820:	a4 e4       	ldi	r26, 0x44	; 68
    3822:	b0 e0       	ldi	r27, 0x00	; 0
    3824:	e4 e4       	ldi	r30, 0x44	; 68
    3826:	f0 e0       	ldi	r31, 0x00	; 0
    3828:	80 81       	ld	r24, Z
    382a:	82 60       	ori	r24, 0x02	; 2
    382c:	8c 93       	st	X, r24
    382e:	a4 e4       	ldi	r26, 0x44	; 68
    3830:	b0 e0       	ldi	r27, 0x00	; 0
    3832:	e4 e4       	ldi	r30, 0x44	; 68
    3834:	f0 e0       	ldi	r31, 0x00	; 0
    3836:	80 81       	ld	r24, Z
    3838:	81 60       	ori	r24, 0x01	; 1
    383a:	8c 93       	st	X, r24
    383c:	a5 e4       	ldi	r26, 0x45	; 69
    383e:	b0 e0       	ldi	r27, 0x00	; 0
    3840:	e5 e4       	ldi	r30, 0x45	; 69
    3842:	f0 e0       	ldi	r31, 0x00	; 0
    3844:	80 81       	ld	r24, Z
    3846:	82 60       	ori	r24, 0x02	; 2
    3848:	8c 93       	st	X, r24
    384a:	a5 e4       	ldi	r26, 0x45	; 69
    384c:	b0 e0       	ldi	r27, 0x00	; 0
    384e:	e5 e4       	ldi	r30, 0x45	; 69
    3850:	f0 e0       	ldi	r31, 0x00	; 0
    3852:	80 81       	ld	r24, Z
    3854:	81 60       	ori	r24, 0x01	; 1
    3856:	8c 93       	st	X, r24
    3858:	ae e6       	ldi	r26, 0x6E	; 110
    385a:	b0 e0       	ldi	r27, 0x00	; 0
    385c:	ee e6       	ldi	r30, 0x6E	; 110
    385e:	f0 e0       	ldi	r31, 0x00	; 0
    3860:	80 81       	ld	r24, Z
    3862:	81 60       	ori	r24, 0x01	; 1
    3864:	8c 93       	st	X, r24
    3866:	e1 e8       	ldi	r30, 0x81	; 129
    3868:	f0 e0       	ldi	r31, 0x00	; 0
    386a:	10 82       	st	Z, r1
    386c:	a1 e8       	ldi	r26, 0x81	; 129
    386e:	b0 e0       	ldi	r27, 0x00	; 0
    3870:	e1 e8       	ldi	r30, 0x81	; 129
    3872:	f0 e0       	ldi	r31, 0x00	; 0
    3874:	80 81       	ld	r24, Z
    3876:	82 60       	ori	r24, 0x02	; 2
    3878:	8c 93       	st	X, r24
    387a:	a1 e8       	ldi	r26, 0x81	; 129
    387c:	b0 e0       	ldi	r27, 0x00	; 0
    387e:	e1 e8       	ldi	r30, 0x81	; 129
    3880:	f0 e0       	ldi	r31, 0x00	; 0
    3882:	80 81       	ld	r24, Z
    3884:	81 60       	ori	r24, 0x01	; 1
    3886:	8c 93       	st	X, r24
    3888:	a0 e8       	ldi	r26, 0x80	; 128
    388a:	b0 e0       	ldi	r27, 0x00	; 0
    388c:	e0 e8       	ldi	r30, 0x80	; 128
    388e:	f0 e0       	ldi	r31, 0x00	; 0
    3890:	80 81       	ld	r24, Z
    3892:	81 60       	ori	r24, 0x01	; 1
    3894:	8c 93       	st	X, r24
    3896:	a1 eb       	ldi	r26, 0xB1	; 177
    3898:	b0 e0       	ldi	r27, 0x00	; 0
    389a:	e1 eb       	ldi	r30, 0xB1	; 177
    389c:	f0 e0       	ldi	r31, 0x00	; 0
    389e:	80 81       	ld	r24, Z
    38a0:	84 60       	ori	r24, 0x04	; 4
    38a2:	8c 93       	st	X, r24
    38a4:	a0 eb       	ldi	r26, 0xB0	; 176
    38a6:	b0 e0       	ldi	r27, 0x00	; 0
    38a8:	e0 eb       	ldi	r30, 0xB0	; 176
    38aa:	f0 e0       	ldi	r31, 0x00	; 0
    38ac:	80 81       	ld	r24, Z
    38ae:	81 60       	ori	r24, 0x01	; 1
    38b0:	8c 93       	st	X, r24
    38b2:	aa e7       	ldi	r26, 0x7A	; 122
    38b4:	b0 e0       	ldi	r27, 0x00	; 0
    38b6:	ea e7       	ldi	r30, 0x7A	; 122
    38b8:	f0 e0       	ldi	r31, 0x00	; 0
    38ba:	80 81       	ld	r24, Z
    38bc:	84 60       	ori	r24, 0x04	; 4
    38be:	8c 93       	st	X, r24
    38c0:	aa e7       	ldi	r26, 0x7A	; 122
    38c2:	b0 e0       	ldi	r27, 0x00	; 0
    38c4:	ea e7       	ldi	r30, 0x7A	; 122
    38c6:	f0 e0       	ldi	r31, 0x00	; 0
    38c8:	80 81       	ld	r24, Z
    38ca:	82 60       	ori	r24, 0x02	; 2
    38cc:	8c 93       	st	X, r24
    38ce:	aa e7       	ldi	r26, 0x7A	; 122
    38d0:	b0 e0       	ldi	r27, 0x00	; 0
    38d2:	ea e7       	ldi	r30, 0x7A	; 122
    38d4:	f0 e0       	ldi	r31, 0x00	; 0
    38d6:	80 81       	ld	r24, Z
    38d8:	81 60       	ori	r24, 0x01	; 1
    38da:	8c 93       	st	X, r24
    38dc:	aa e7       	ldi	r26, 0x7A	; 122
    38de:	b0 e0       	ldi	r27, 0x00	; 0
    38e0:	ea e7       	ldi	r30, 0x7A	; 122
    38e2:	f0 e0       	ldi	r31, 0x00	; 0
    38e4:	80 81       	ld	r24, Z
    38e6:	80 68       	ori	r24, 0x80	; 128
    38e8:	8c 93       	st	X, r24
    38ea:	e1 ec       	ldi	r30, 0xC1	; 193
    38ec:	f0 e0       	ldi	r31, 0x00	; 0
    38ee:	10 82       	st	Z, r1
    38f0:	cf 91       	pop	r28
    38f2:	df 91       	pop	r29
    38f4:	08 95       	ret

000038f6 <pinMode>:
    38f6:	df 93       	push	r29
    38f8:	cf 93       	push	r28
    38fa:	cd b7       	in	r28, 0x3d	; 61
    38fc:	de b7       	in	r29, 0x3e	; 62
    38fe:	62 97       	sbiw	r28, 0x12	; 18
    3900:	0f b6       	in	r0, 0x3f	; 63
    3902:	f8 94       	cli
    3904:	de bf       	out	0x3e, r29	; 62
    3906:	0f be       	out	0x3f, r0	; 63
    3908:	cd bf       	out	0x3d, r28	; 61
    390a:	89 8b       	std	Y+17, r24	; 0x11
    390c:	6a 8b       	std	Y+18, r22	; 0x12
    390e:	89 89       	ldd	r24, Y+17	; 0x11
    3910:	88 2f       	mov	r24, r24
    3912:	90 e0       	ldi	r25, 0x00	; 0
    3914:	86 56       	subi	r24, 0x66	; 102
    3916:	9f 4f       	sbci	r25, 0xFF	; 255
    3918:	9c 87       	std	Y+12, r25	; 0x0c
    391a:	8b 87       	std	Y+11, r24	; 0x0b
    391c:	eb 85       	ldd	r30, Y+11	; 0x0b
    391e:	fc 85       	ldd	r31, Y+12	; 0x0c
    3920:	84 91       	lpm	r24, Z+
    3922:	8a 87       	std	Y+10, r24	; 0x0a
    3924:	8a 85       	ldd	r24, Y+10	; 0x0a
    3926:	88 8b       	std	Y+16, r24	; 0x10
    3928:	89 89       	ldd	r24, Y+17	; 0x11
    392a:	88 2f       	mov	r24, r24
    392c:	90 e0       	ldi	r25, 0x00	; 0
    392e:	8a 57       	subi	r24, 0x7A	; 122
    3930:	9f 4f       	sbci	r25, 0xFF	; 255
    3932:	99 87       	std	Y+9, r25	; 0x09
    3934:	88 87       	std	Y+8, r24	; 0x08
    3936:	e8 85       	ldd	r30, Y+8	; 0x08
    3938:	f9 85       	ldd	r31, Y+9	; 0x09
    393a:	84 91       	lpm	r24, Z+
    393c:	8f 83       	std	Y+7, r24	; 0x07
    393e:	8f 81       	ldd	r24, Y+7	; 0x07
    3940:	8f 87       	std	Y+15, r24	; 0x0f
    3942:	8f 85       	ldd	r24, Y+15	; 0x0f
    3944:	88 23       	and	r24, r24
    3946:	09 f4       	brne	.+2      	; 0x394a <pinMode+0x54>
    3948:	3e c0       	rjmp	.+124    	; 0x39c6 <pinMode+0xd0>
    394a:	8f 85       	ldd	r24, Y+15	; 0x0f
    394c:	88 2f       	mov	r24, r24
    394e:	90 e0       	ldi	r25, 0x00	; 0
    3950:	88 0f       	add	r24, r24
    3952:	99 1f       	adc	r25, r25
    3954:	88 59       	subi	r24, 0x98	; 152
    3956:	9f 4f       	sbci	r25, 0xFF	; 255
    3958:	9e 83       	std	Y+6, r25	; 0x06
    395a:	8d 83       	std	Y+5, r24	; 0x05
    395c:	8d 81       	ldd	r24, Y+5	; 0x05
    395e:	9e 81       	ldd	r25, Y+6	; 0x06
    3960:	fc 01       	movw	r30, r24
    3962:	85 91       	lpm	r24, Z+
    3964:	94 91       	lpm	r25, Z+
    3966:	9c 83       	std	Y+4, r25	; 0x04
    3968:	8b 83       	std	Y+3, r24	; 0x03
    396a:	fe 83       	std	Y+6, r31	; 0x06
    396c:	ed 83       	std	Y+5, r30	; 0x05
    396e:	8b 81       	ldd	r24, Y+3	; 0x03
    3970:	9c 81       	ldd	r25, Y+4	; 0x04
    3972:	9e 87       	std	Y+14, r25	; 0x0e
    3974:	8d 87       	std	Y+13, r24	; 0x0d
    3976:	8a 89       	ldd	r24, Y+18	; 0x12
    3978:	88 23       	and	r24, r24
    397a:	a1 f4       	brne	.+40     	; 0x39a4 <pinMode+0xae>
    397c:	ef e5       	ldi	r30, 0x5F	; 95
    397e:	f0 e0       	ldi	r31, 0x00	; 0
    3980:	80 81       	ld	r24, Z
    3982:	8a 83       	std	Y+2, r24	; 0x02
    3984:	f8 94       	cli
    3986:	ed 85       	ldd	r30, Y+13	; 0x0d
    3988:	fe 85       	ldd	r31, Y+14	; 0x0e
    398a:	80 81       	ld	r24, Z
    398c:	98 2f       	mov	r25, r24
    398e:	88 89       	ldd	r24, Y+16	; 0x10
    3990:	80 95       	com	r24
    3992:	89 23       	and	r24, r25
    3994:	ed 85       	ldd	r30, Y+13	; 0x0d
    3996:	fe 85       	ldd	r31, Y+14	; 0x0e
    3998:	80 83       	st	Z, r24
    399a:	ef e5       	ldi	r30, 0x5F	; 95
    399c:	f0 e0       	ldi	r31, 0x00	; 0
    399e:	8a 81       	ldd	r24, Y+2	; 0x02
    39a0:	80 83       	st	Z, r24
    39a2:	11 c0       	rjmp	.+34     	; 0x39c6 <pinMode+0xd0>
    39a4:	ef e5       	ldi	r30, 0x5F	; 95
    39a6:	f0 e0       	ldi	r31, 0x00	; 0
    39a8:	80 81       	ld	r24, Z
    39aa:	89 83       	std	Y+1, r24	; 0x01
    39ac:	f8 94       	cli
    39ae:	ed 85       	ldd	r30, Y+13	; 0x0d
    39b0:	fe 85       	ldd	r31, Y+14	; 0x0e
    39b2:	90 81       	ld	r25, Z
    39b4:	88 89       	ldd	r24, Y+16	; 0x10
    39b6:	89 2b       	or	r24, r25
    39b8:	ed 85       	ldd	r30, Y+13	; 0x0d
    39ba:	fe 85       	ldd	r31, Y+14	; 0x0e
    39bc:	80 83       	st	Z, r24
    39be:	ef e5       	ldi	r30, 0x5F	; 95
    39c0:	f0 e0       	ldi	r31, 0x00	; 0
    39c2:	89 81       	ldd	r24, Y+1	; 0x01
    39c4:	80 83       	st	Z, r24
    39c6:	62 96       	adiw	r28, 0x12	; 18
    39c8:	0f b6       	in	r0, 0x3f	; 63
    39ca:	f8 94       	cli
    39cc:	de bf       	out	0x3e, r29	; 62
    39ce:	0f be       	out	0x3f, r0	; 63
    39d0:	cd bf       	out	0x3d, r28	; 61
    39d2:	cf 91       	pop	r28
    39d4:	df 91       	pop	r29
    39d6:	08 95       	ret

000039d8 <digitalWrite>:
    39d8:	df 93       	push	r29
    39da:	cf 93       	push	r28
    39dc:	cd b7       	in	r28, 0x3d	; 61
    39de:	de b7       	in	r29, 0x3e	; 62
    39e0:	67 97       	sbiw	r28, 0x17	; 23
    39e2:	0f b6       	in	r0, 0x3f	; 63
    39e4:	f8 94       	cli
    39e6:	de bf       	out	0x3e, r29	; 62
    39e8:	0f be       	out	0x3f, r0	; 63
    39ea:	cd bf       	out	0x3d, r28	; 61
    39ec:	8e 8b       	std	Y+22, r24	; 0x16
    39ee:	6f 8b       	std	Y+23, r22	; 0x17
    39f0:	8e 89       	ldd	r24, Y+22	; 0x16
    39f2:	88 2f       	mov	r24, r24
    39f4:	90 e0       	ldi	r25, 0x00	; 0
    39f6:	82 55       	subi	r24, 0x52	; 82
    39f8:	9f 4f       	sbci	r25, 0xFF	; 255
    39fa:	98 8b       	std	Y+16, r25	; 0x10
    39fc:	8f 87       	std	Y+15, r24	; 0x0f
    39fe:	ef 85       	ldd	r30, Y+15	; 0x0f
    3a00:	f8 89       	ldd	r31, Y+16	; 0x10
    3a02:	84 91       	lpm	r24, Z+
    3a04:	8e 87       	std	Y+14, r24	; 0x0e
    3a06:	8e 85       	ldd	r24, Y+14	; 0x0e
    3a08:	8d 8b       	std	Y+21, r24	; 0x15
    3a0a:	8e 89       	ldd	r24, Y+22	; 0x16
    3a0c:	88 2f       	mov	r24, r24
    3a0e:	90 e0       	ldi	r25, 0x00	; 0
    3a10:	86 56       	subi	r24, 0x66	; 102
    3a12:	9f 4f       	sbci	r25, 0xFF	; 255
    3a14:	9d 87       	std	Y+13, r25	; 0x0d
    3a16:	8c 87       	std	Y+12, r24	; 0x0c
    3a18:	ec 85       	ldd	r30, Y+12	; 0x0c
    3a1a:	fd 85       	ldd	r31, Y+13	; 0x0d
    3a1c:	84 91       	lpm	r24, Z+
    3a1e:	8b 87       	std	Y+11, r24	; 0x0b
    3a20:	8b 85       	ldd	r24, Y+11	; 0x0b
    3a22:	8c 8b       	std	Y+20, r24	; 0x14
    3a24:	8e 89       	ldd	r24, Y+22	; 0x16
    3a26:	88 2f       	mov	r24, r24
    3a28:	90 e0       	ldi	r25, 0x00	; 0
    3a2a:	8a 57       	subi	r24, 0x7A	; 122
    3a2c:	9f 4f       	sbci	r25, 0xFF	; 255
    3a2e:	9a 87       	std	Y+10, r25	; 0x0a
    3a30:	89 87       	std	Y+9, r24	; 0x09
    3a32:	e9 85       	ldd	r30, Y+9	; 0x09
    3a34:	fa 85       	ldd	r31, Y+10	; 0x0a
    3a36:	84 91       	lpm	r24, Z+
    3a38:	88 87       	std	Y+8, r24	; 0x08
    3a3a:	88 85       	ldd	r24, Y+8	; 0x08
    3a3c:	8b 8b       	std	Y+19, r24	; 0x13
    3a3e:	8b 89       	ldd	r24, Y+19	; 0x13
    3a40:	88 23       	and	r24, r24
    3a42:	09 f4       	brne	.+2      	; 0x3a46 <digitalWrite+0x6e>
    3a44:	80 c0       	rjmp	.+256    	; 0x3b46 <digitalWrite+0x16e>
    3a46:	8d 89       	ldd	r24, Y+21	; 0x15
    3a48:	88 23       	and	r24, r24
    3a4a:	09 f4       	brne	.+2      	; 0x3a4e <digitalWrite+0x76>
    3a4c:	3e c0       	rjmp	.+124    	; 0x3aca <digitalWrite+0xf2>
    3a4e:	8d 89       	ldd	r24, Y+21	; 0x15
    3a50:	89 83       	std	Y+1, r24	; 0x01
    3a52:	89 81       	ldd	r24, Y+1	; 0x01
    3a54:	83 30       	cpi	r24, 0x03	; 3
    3a56:	39 f4       	brne	.+14     	; 0x3a66 <digitalWrite+0x8e>
    3a58:	a0 e8       	ldi	r26, 0x80	; 128
    3a5a:	b0 e0       	ldi	r27, 0x00	; 0
    3a5c:	e0 e8       	ldi	r30, 0x80	; 128
    3a5e:	f0 e0       	ldi	r31, 0x00	; 0
    3a60:	80 81       	ld	r24, Z
    3a62:	8f 77       	andi	r24, 0x7F	; 127
    3a64:	8c 93       	st	X, r24
    3a66:	89 81       	ldd	r24, Y+1	; 0x01
    3a68:	84 30       	cpi	r24, 0x04	; 4
    3a6a:	39 f4       	brne	.+14     	; 0x3a7a <digitalWrite+0xa2>
    3a6c:	a0 e8       	ldi	r26, 0x80	; 128
    3a6e:	b0 e0       	ldi	r27, 0x00	; 0
    3a70:	e0 e8       	ldi	r30, 0x80	; 128
    3a72:	f0 e0       	ldi	r31, 0x00	; 0
    3a74:	80 81       	ld	r24, Z
    3a76:	8f 7d       	andi	r24, 0xDF	; 223
    3a78:	8c 93       	st	X, r24
    3a7a:	89 81       	ldd	r24, Y+1	; 0x01
    3a7c:	81 30       	cpi	r24, 0x01	; 1
    3a7e:	39 f4       	brne	.+14     	; 0x3a8e <digitalWrite+0xb6>
    3a80:	a4 e4       	ldi	r26, 0x44	; 68
    3a82:	b0 e0       	ldi	r27, 0x00	; 0
    3a84:	e4 e4       	ldi	r30, 0x44	; 68
    3a86:	f0 e0       	ldi	r31, 0x00	; 0
    3a88:	80 81       	ld	r24, Z
    3a8a:	8f 77       	andi	r24, 0x7F	; 127
    3a8c:	8c 93       	st	X, r24
    3a8e:	89 81       	ldd	r24, Y+1	; 0x01
    3a90:	82 30       	cpi	r24, 0x02	; 2
    3a92:	39 f4       	brne	.+14     	; 0x3aa2 <digitalWrite+0xca>
    3a94:	a4 e4       	ldi	r26, 0x44	; 68
    3a96:	b0 e0       	ldi	r27, 0x00	; 0
    3a98:	e4 e4       	ldi	r30, 0x44	; 68
    3a9a:	f0 e0       	ldi	r31, 0x00	; 0
    3a9c:	80 81       	ld	r24, Z
    3a9e:	8f 7d       	andi	r24, 0xDF	; 223
    3aa0:	8c 93       	st	X, r24
    3aa2:	89 81       	ldd	r24, Y+1	; 0x01
    3aa4:	86 30       	cpi	r24, 0x06	; 6
    3aa6:	39 f4       	brne	.+14     	; 0x3ab6 <digitalWrite+0xde>
    3aa8:	a0 eb       	ldi	r26, 0xB0	; 176
    3aaa:	b0 e0       	ldi	r27, 0x00	; 0
    3aac:	e0 eb       	ldi	r30, 0xB0	; 176
    3aae:	f0 e0       	ldi	r31, 0x00	; 0
    3ab0:	80 81       	ld	r24, Z
    3ab2:	8f 77       	andi	r24, 0x7F	; 127
    3ab4:	8c 93       	st	X, r24
    3ab6:	89 81       	ldd	r24, Y+1	; 0x01
    3ab8:	87 30       	cpi	r24, 0x07	; 7
    3aba:	39 f4       	brne	.+14     	; 0x3aca <digitalWrite+0xf2>
    3abc:	a0 eb       	ldi	r26, 0xB0	; 176
    3abe:	b0 e0       	ldi	r27, 0x00	; 0
    3ac0:	e0 eb       	ldi	r30, 0xB0	; 176
    3ac2:	f0 e0       	ldi	r31, 0x00	; 0
    3ac4:	80 81       	ld	r24, Z
    3ac6:	8f 7d       	andi	r24, 0xDF	; 223
    3ac8:	8c 93       	st	X, r24
    3aca:	8b 89       	ldd	r24, Y+19	; 0x13
    3acc:	88 2f       	mov	r24, r24
    3ace:	90 e0       	ldi	r25, 0x00	; 0
    3ad0:	88 0f       	add	r24, r24
    3ad2:	99 1f       	adc	r25, r25
    3ad4:	8e 58       	subi	r24, 0x8E	; 142
    3ad6:	9f 4f       	sbci	r25, 0xFF	; 255
    3ad8:	9f 83       	std	Y+7, r25	; 0x07
    3ada:	8e 83       	std	Y+6, r24	; 0x06
    3adc:	8e 81       	ldd	r24, Y+6	; 0x06
    3ade:	9f 81       	ldd	r25, Y+7	; 0x07
    3ae0:	fc 01       	movw	r30, r24
    3ae2:	85 91       	lpm	r24, Z+
    3ae4:	94 91       	lpm	r25, Z+
    3ae6:	9d 83       	std	Y+5, r25	; 0x05
    3ae8:	8c 83       	std	Y+4, r24	; 0x04
    3aea:	ff 83       	std	Y+7, r31	; 0x07
    3aec:	ee 83       	std	Y+6, r30	; 0x06
    3aee:	8c 81       	ldd	r24, Y+4	; 0x04
    3af0:	9d 81       	ldd	r25, Y+5	; 0x05
    3af2:	9a 8b       	std	Y+18, r25	; 0x12
    3af4:	89 8b       	std	Y+17, r24	; 0x11
    3af6:	8f 89       	ldd	r24, Y+23	; 0x17
    3af8:	88 23       	and	r24, r24
    3afa:	a1 f4       	brne	.+40     	; 0x3b24 <digitalWrite+0x14c>
    3afc:	ef e5       	ldi	r30, 0x5F	; 95
    3afe:	f0 e0       	ldi	r31, 0x00	; 0
    3b00:	80 81       	ld	r24, Z
    3b02:	8b 83       	std	Y+3, r24	; 0x03
    3b04:	f8 94       	cli
    3b06:	e9 89       	ldd	r30, Y+17	; 0x11
    3b08:	fa 89       	ldd	r31, Y+18	; 0x12
    3b0a:	80 81       	ld	r24, Z
    3b0c:	98 2f       	mov	r25, r24
    3b0e:	8c 89       	ldd	r24, Y+20	; 0x14
    3b10:	80 95       	com	r24
    3b12:	89 23       	and	r24, r25
    3b14:	e9 89       	ldd	r30, Y+17	; 0x11
    3b16:	fa 89       	ldd	r31, Y+18	; 0x12
    3b18:	80 83       	st	Z, r24
    3b1a:	ef e5       	ldi	r30, 0x5F	; 95
    3b1c:	f0 e0       	ldi	r31, 0x00	; 0
    3b1e:	8b 81       	ldd	r24, Y+3	; 0x03
    3b20:	80 83       	st	Z, r24
    3b22:	11 c0       	rjmp	.+34     	; 0x3b46 <digitalWrite+0x16e>
    3b24:	ef e5       	ldi	r30, 0x5F	; 95
    3b26:	f0 e0       	ldi	r31, 0x00	; 0
    3b28:	80 81       	ld	r24, Z
    3b2a:	8a 83       	std	Y+2, r24	; 0x02
    3b2c:	f8 94       	cli
    3b2e:	e9 89       	ldd	r30, Y+17	; 0x11
    3b30:	fa 89       	ldd	r31, Y+18	; 0x12
    3b32:	90 81       	ld	r25, Z
    3b34:	8c 89       	ldd	r24, Y+20	; 0x14
    3b36:	89 2b       	or	r24, r25
    3b38:	e9 89       	ldd	r30, Y+17	; 0x11
    3b3a:	fa 89       	ldd	r31, Y+18	; 0x12
    3b3c:	80 83       	st	Z, r24
    3b3e:	ef e5       	ldi	r30, 0x5F	; 95
    3b40:	f0 e0       	ldi	r31, 0x00	; 0
    3b42:	8a 81       	ldd	r24, Y+2	; 0x02
    3b44:	80 83       	st	Z, r24
    3b46:	67 96       	adiw	r28, 0x17	; 23
    3b48:	0f b6       	in	r0, 0x3f	; 63
    3b4a:	f8 94       	cli
    3b4c:	de bf       	out	0x3e, r29	; 62
    3b4e:	0f be       	out	0x3f, r0	; 63
    3b50:	cd bf       	out	0x3d, r28	; 61
    3b52:	cf 91       	pop	r28
    3b54:	df 91       	pop	r29
    3b56:	08 95       	ret

00003b58 <digitalRead>:
    3b58:	df 93       	push	r29
    3b5a:	cf 93       	push	r28
    3b5c:	cd b7       	in	r28, 0x3d	; 61
    3b5e:	de b7       	in	r29, 0x3e	; 62
    3b60:	64 97       	sbiw	r28, 0x14	; 20
    3b62:	0f b6       	in	r0, 0x3f	; 63
    3b64:	f8 94       	cli
    3b66:	de bf       	out	0x3e, r29	; 62
    3b68:	0f be       	out	0x3f, r0	; 63
    3b6a:	cd bf       	out	0x3d, r28	; 61
    3b6c:	8a 8b       	std	Y+18, r24	; 0x12
    3b6e:	8a 89       	ldd	r24, Y+18	; 0x12
    3b70:	88 2f       	mov	r24, r24
    3b72:	90 e0       	ldi	r25, 0x00	; 0
    3b74:	82 55       	subi	r24, 0x52	; 82
    3b76:	9f 4f       	sbci	r25, 0xFF	; 255
    3b78:	9e 87       	std	Y+14, r25	; 0x0e
    3b7a:	8d 87       	std	Y+13, r24	; 0x0d
    3b7c:	ed 85       	ldd	r30, Y+13	; 0x0d
    3b7e:	fe 85       	ldd	r31, Y+14	; 0x0e
    3b80:	84 91       	lpm	r24, Z+
    3b82:	8c 87       	std	Y+12, r24	; 0x0c
    3b84:	8c 85       	ldd	r24, Y+12	; 0x0c
    3b86:	89 8b       	std	Y+17, r24	; 0x11
    3b88:	8a 89       	ldd	r24, Y+18	; 0x12
    3b8a:	88 2f       	mov	r24, r24
    3b8c:	90 e0       	ldi	r25, 0x00	; 0
    3b8e:	86 56       	subi	r24, 0x66	; 102
    3b90:	9f 4f       	sbci	r25, 0xFF	; 255
    3b92:	9b 87       	std	Y+11, r25	; 0x0b
    3b94:	8a 87       	std	Y+10, r24	; 0x0a
    3b96:	ea 85       	ldd	r30, Y+10	; 0x0a
    3b98:	fb 85       	ldd	r31, Y+11	; 0x0b
    3b9a:	84 91       	lpm	r24, Z+
    3b9c:	89 87       	std	Y+9, r24	; 0x09
    3b9e:	89 85       	ldd	r24, Y+9	; 0x09
    3ba0:	88 8b       	std	Y+16, r24	; 0x10
    3ba2:	8a 89       	ldd	r24, Y+18	; 0x12
    3ba4:	88 2f       	mov	r24, r24
    3ba6:	90 e0       	ldi	r25, 0x00	; 0
    3ba8:	8a 57       	subi	r24, 0x7A	; 122
    3baa:	9f 4f       	sbci	r25, 0xFF	; 255
    3bac:	98 87       	std	Y+8, r25	; 0x08
    3bae:	8f 83       	std	Y+7, r24	; 0x07
    3bb0:	ef 81       	ldd	r30, Y+7	; 0x07
    3bb2:	f8 85       	ldd	r31, Y+8	; 0x08
    3bb4:	84 91       	lpm	r24, Z+
    3bb6:	8e 83       	std	Y+6, r24	; 0x06
    3bb8:	8e 81       	ldd	r24, Y+6	; 0x06
    3bba:	8f 87       	std	Y+15, r24	; 0x0f
    3bbc:	8f 85       	ldd	r24, Y+15	; 0x0f
    3bbe:	88 23       	and	r24, r24
    3bc0:	19 f4       	brne	.+6      	; 0x3bc8 <digitalRead+0x70>
    3bc2:	1c 8a       	std	Y+20, r1	; 0x14
    3bc4:	1b 8a       	std	Y+19, r1	; 0x13
    3bc6:	63 c0       	rjmp	.+198    	; 0x3c8e <digitalRead+0x136>
    3bc8:	89 89       	ldd	r24, Y+17	; 0x11
    3bca:	88 23       	and	r24, r24
    3bcc:	09 f4       	brne	.+2      	; 0x3bd0 <digitalRead+0x78>
    3bce:	3e c0       	rjmp	.+124    	; 0x3c4c <digitalRead+0xf4>
    3bd0:	89 89       	ldd	r24, Y+17	; 0x11
    3bd2:	89 83       	std	Y+1, r24	; 0x01
    3bd4:	89 81       	ldd	r24, Y+1	; 0x01
    3bd6:	83 30       	cpi	r24, 0x03	; 3
    3bd8:	39 f4       	brne	.+14     	; 0x3be8 <digitalRead+0x90>
    3bda:	a0 e8       	ldi	r26, 0x80	; 128
    3bdc:	b0 e0       	ldi	r27, 0x00	; 0
    3bde:	e0 e8       	ldi	r30, 0x80	; 128
    3be0:	f0 e0       	ldi	r31, 0x00	; 0
    3be2:	80 81       	ld	r24, Z
    3be4:	8f 77       	andi	r24, 0x7F	; 127
    3be6:	8c 93       	st	X, r24
    3be8:	89 81       	ldd	r24, Y+1	; 0x01
    3bea:	84 30       	cpi	r24, 0x04	; 4
    3bec:	39 f4       	brne	.+14     	; 0x3bfc <digitalRead+0xa4>
    3bee:	a0 e8       	ldi	r26, 0x80	; 128
    3bf0:	b0 e0       	ldi	r27, 0x00	; 0
    3bf2:	e0 e8       	ldi	r30, 0x80	; 128
    3bf4:	f0 e0       	ldi	r31, 0x00	; 0
    3bf6:	80 81       	ld	r24, Z
    3bf8:	8f 7d       	andi	r24, 0xDF	; 223
    3bfa:	8c 93       	st	X, r24
    3bfc:	89 81       	ldd	r24, Y+1	; 0x01
    3bfe:	81 30       	cpi	r24, 0x01	; 1
    3c00:	39 f4       	brne	.+14     	; 0x3c10 <digitalRead+0xb8>
    3c02:	a4 e4       	ldi	r26, 0x44	; 68
    3c04:	b0 e0       	ldi	r27, 0x00	; 0
    3c06:	e4 e4       	ldi	r30, 0x44	; 68
    3c08:	f0 e0       	ldi	r31, 0x00	; 0
    3c0a:	80 81       	ld	r24, Z
    3c0c:	8f 77       	andi	r24, 0x7F	; 127
    3c0e:	8c 93       	st	X, r24
    3c10:	89 81       	ldd	r24, Y+1	; 0x01
    3c12:	82 30       	cpi	r24, 0x02	; 2
    3c14:	39 f4       	brne	.+14     	; 0x3c24 <digitalRead+0xcc>
    3c16:	a4 e4       	ldi	r26, 0x44	; 68
    3c18:	b0 e0       	ldi	r27, 0x00	; 0
    3c1a:	e4 e4       	ldi	r30, 0x44	; 68
    3c1c:	f0 e0       	ldi	r31, 0x00	; 0
    3c1e:	80 81       	ld	r24, Z
    3c20:	8f 7d       	andi	r24, 0xDF	; 223
    3c22:	8c 93       	st	X, r24
    3c24:	89 81       	ldd	r24, Y+1	; 0x01
    3c26:	86 30       	cpi	r24, 0x06	; 6
    3c28:	39 f4       	brne	.+14     	; 0x3c38 <digitalRead+0xe0>
    3c2a:	a0 eb       	ldi	r26, 0xB0	; 176
    3c2c:	b0 e0       	ldi	r27, 0x00	; 0
    3c2e:	e0 eb       	ldi	r30, 0xB0	; 176
    3c30:	f0 e0       	ldi	r31, 0x00	; 0
    3c32:	80 81       	ld	r24, Z
    3c34:	8f 77       	andi	r24, 0x7F	; 127
    3c36:	8c 93       	st	X, r24
    3c38:	89 81       	ldd	r24, Y+1	; 0x01
    3c3a:	87 30       	cpi	r24, 0x07	; 7
    3c3c:	39 f4       	brne	.+14     	; 0x3c4c <digitalRead+0xf4>
    3c3e:	a0 eb       	ldi	r26, 0xB0	; 176
    3c40:	b0 e0       	ldi	r27, 0x00	; 0
    3c42:	e0 eb       	ldi	r30, 0xB0	; 176
    3c44:	f0 e0       	ldi	r31, 0x00	; 0
    3c46:	80 81       	ld	r24, Z
    3c48:	8f 7d       	andi	r24, 0xDF	; 223
    3c4a:	8c 93       	st	X, r24
    3c4c:	8f 85       	ldd	r24, Y+15	; 0x0f
    3c4e:	88 2f       	mov	r24, r24
    3c50:	90 e0       	ldi	r25, 0x00	; 0
    3c52:	88 0f       	add	r24, r24
    3c54:	99 1f       	adc	r25, r25
    3c56:	84 58       	subi	r24, 0x84	; 132
    3c58:	9f 4f       	sbci	r25, 0xFF	; 255
    3c5a:	9d 83       	std	Y+5, r25	; 0x05
    3c5c:	8c 83       	std	Y+4, r24	; 0x04
    3c5e:	8c 81       	ldd	r24, Y+4	; 0x04
    3c60:	9d 81       	ldd	r25, Y+5	; 0x05
    3c62:	fc 01       	movw	r30, r24
    3c64:	85 91       	lpm	r24, Z+
    3c66:	94 91       	lpm	r25, Z+
    3c68:	9b 83       	std	Y+3, r25	; 0x03
    3c6a:	8a 83       	std	Y+2, r24	; 0x02
    3c6c:	fd 83       	std	Y+5, r31	; 0x05
    3c6e:	ec 83       	std	Y+4, r30	; 0x04
    3c70:	8a 81       	ldd	r24, Y+2	; 0x02
    3c72:	9b 81       	ldd	r25, Y+3	; 0x03
    3c74:	fc 01       	movw	r30, r24
    3c76:	90 81       	ld	r25, Z
    3c78:	88 89       	ldd	r24, Y+16	; 0x10
    3c7a:	89 23       	and	r24, r25
    3c7c:	88 23       	and	r24, r24
    3c7e:	29 f0       	breq	.+10     	; 0x3c8a <digitalRead+0x132>
    3c80:	81 e0       	ldi	r24, 0x01	; 1
    3c82:	90 e0       	ldi	r25, 0x00	; 0
    3c84:	9c 8b       	std	Y+20, r25	; 0x14
    3c86:	8b 8b       	std	Y+19, r24	; 0x13
    3c88:	02 c0       	rjmp	.+4      	; 0x3c8e <digitalRead+0x136>
    3c8a:	1c 8a       	std	Y+20, r1	; 0x14
    3c8c:	1b 8a       	std	Y+19, r1	; 0x13
    3c8e:	8b 89       	ldd	r24, Y+19	; 0x13
    3c90:	9c 89       	ldd	r25, Y+20	; 0x14
    3c92:	64 96       	adiw	r28, 0x14	; 20
    3c94:	0f b6       	in	r0, 0x3f	; 63
    3c96:	f8 94       	cli
    3c98:	de bf       	out	0x3e, r29	; 62
    3c9a:	0f be       	out	0x3f, r0	; 63
    3c9c:	cd bf       	out	0x3d, r28	; 61
    3c9e:	cf 91       	pop	r28
    3ca0:	df 91       	pop	r29
    3ca2:	08 95       	ret

00003ca4 <__fixunssfsi>:
    3ca4:	ef 92       	push	r14
    3ca6:	ff 92       	push	r15
    3ca8:	0f 93       	push	r16
    3caa:	1f 93       	push	r17
    3cac:	7b 01       	movw	r14, r22
    3cae:	8c 01       	movw	r16, r24
    3cb0:	20 e0       	ldi	r18, 0x00	; 0
    3cb2:	30 e0       	ldi	r19, 0x00	; 0
    3cb4:	40 e0       	ldi	r20, 0x00	; 0
    3cb6:	5f e4       	ldi	r21, 0x4F	; 79
    3cb8:	0e 94 ce 21 	call	0x439c	; 0x439c <__gesf2>
    3cbc:	88 23       	and	r24, r24
    3cbe:	8c f0       	brlt	.+34     	; 0x3ce2 <__fixunssfsi+0x3e>
    3cc0:	c8 01       	movw	r24, r16
    3cc2:	b7 01       	movw	r22, r14
    3cc4:	20 e0       	ldi	r18, 0x00	; 0
    3cc6:	30 e0       	ldi	r19, 0x00	; 0
    3cc8:	40 e0       	ldi	r20, 0x00	; 0
    3cca:	5f e4       	ldi	r21, 0x4F	; 79
    3ccc:	0e 94 ca 1f 	call	0x3f94	; 0x3f94 <__subsf3>
    3cd0:	0e 94 8c 22 	call	0x4518	; 0x4518 <__fixsfsi>
    3cd4:	9b 01       	movw	r18, r22
    3cd6:	ac 01       	movw	r20, r24
    3cd8:	20 50       	subi	r18, 0x00	; 0
    3cda:	30 40       	sbci	r19, 0x00	; 0
    3cdc:	40 40       	sbci	r20, 0x00	; 0
    3cde:	50 48       	sbci	r21, 0x80	; 128
    3ce0:	06 c0       	rjmp	.+12     	; 0x3cee <__fixunssfsi+0x4a>
    3ce2:	c8 01       	movw	r24, r16
    3ce4:	b7 01       	movw	r22, r14
    3ce6:	0e 94 8c 22 	call	0x4518	; 0x4518 <__fixsfsi>
    3cea:	9b 01       	movw	r18, r22
    3cec:	ac 01       	movw	r20, r24
    3cee:	b9 01       	movw	r22, r18
    3cf0:	ca 01       	movw	r24, r20
    3cf2:	1f 91       	pop	r17
    3cf4:	0f 91       	pop	r16
    3cf6:	ff 90       	pop	r15
    3cf8:	ef 90       	pop	r14
    3cfa:	08 95       	ret

00003cfc <_fpadd_parts>:
    3cfc:	a0 e0       	ldi	r26, 0x00	; 0
    3cfe:	b0 e0       	ldi	r27, 0x00	; 0
    3d00:	e4 e8       	ldi	r30, 0x84	; 132
    3d02:	fe e1       	ldi	r31, 0x1E	; 30
    3d04:	0c 94 71 25 	jmp	0x4ae2	; 0x4ae2 <__prologue_saves__>
    3d08:	dc 01       	movw	r26, r24
    3d0a:	2b 01       	movw	r4, r22
    3d0c:	fa 01       	movw	r30, r20
    3d0e:	9c 91       	ld	r25, X
    3d10:	92 30       	cpi	r25, 0x02	; 2
    3d12:	08 f4       	brcc	.+2      	; 0x3d16 <_fpadd_parts+0x1a>
    3d14:	39 c1       	rjmp	.+626    	; 0x3f88 <_fpadd_parts+0x28c>
    3d16:	eb 01       	movw	r28, r22
    3d18:	88 81       	ld	r24, Y
    3d1a:	82 30       	cpi	r24, 0x02	; 2
    3d1c:	08 f4       	brcc	.+2      	; 0x3d20 <_fpadd_parts+0x24>
    3d1e:	33 c1       	rjmp	.+614    	; 0x3f86 <_fpadd_parts+0x28a>
    3d20:	94 30       	cpi	r25, 0x04	; 4
    3d22:	69 f4       	brne	.+26     	; 0x3d3e <_fpadd_parts+0x42>
    3d24:	84 30       	cpi	r24, 0x04	; 4
    3d26:	09 f0       	breq	.+2      	; 0x3d2a <_fpadd_parts+0x2e>
    3d28:	2f c1       	rjmp	.+606    	; 0x3f88 <_fpadd_parts+0x28c>
    3d2a:	11 96       	adiw	r26, 0x01	; 1
    3d2c:	9c 91       	ld	r25, X
    3d2e:	11 97       	sbiw	r26, 0x01	; 1
    3d30:	89 81       	ldd	r24, Y+1	; 0x01
    3d32:	98 17       	cp	r25, r24
    3d34:	09 f4       	brne	.+2      	; 0x3d38 <_fpadd_parts+0x3c>
    3d36:	28 c1       	rjmp	.+592    	; 0x3f88 <_fpadd_parts+0x28c>
    3d38:	ab e2       	ldi	r26, 0x2B	; 43
    3d3a:	b1 e0       	ldi	r27, 0x01	; 1
    3d3c:	25 c1       	rjmp	.+586    	; 0x3f88 <_fpadd_parts+0x28c>
    3d3e:	84 30       	cpi	r24, 0x04	; 4
    3d40:	09 f4       	brne	.+2      	; 0x3d44 <_fpadd_parts+0x48>
    3d42:	21 c1       	rjmp	.+578    	; 0x3f86 <_fpadd_parts+0x28a>
    3d44:	82 30       	cpi	r24, 0x02	; 2
    3d46:	a9 f4       	brne	.+42     	; 0x3d72 <_fpadd_parts+0x76>
    3d48:	92 30       	cpi	r25, 0x02	; 2
    3d4a:	09 f0       	breq	.+2      	; 0x3d4e <_fpadd_parts+0x52>
    3d4c:	1d c1       	rjmp	.+570    	; 0x3f88 <_fpadd_parts+0x28c>
    3d4e:	9a 01       	movw	r18, r20
    3d50:	ad 01       	movw	r20, r26
    3d52:	88 e0       	ldi	r24, 0x08	; 8
    3d54:	ea 01       	movw	r28, r20
    3d56:	09 90       	ld	r0, Y+
    3d58:	ae 01       	movw	r20, r28
    3d5a:	e9 01       	movw	r28, r18
    3d5c:	09 92       	st	Y+, r0
    3d5e:	9e 01       	movw	r18, r28
    3d60:	81 50       	subi	r24, 0x01	; 1
    3d62:	c1 f7       	brne	.-16     	; 0x3d54 <_fpadd_parts+0x58>
    3d64:	e2 01       	movw	r28, r4
    3d66:	89 81       	ldd	r24, Y+1	; 0x01
    3d68:	11 96       	adiw	r26, 0x01	; 1
    3d6a:	9c 91       	ld	r25, X
    3d6c:	89 23       	and	r24, r25
    3d6e:	81 83       	std	Z+1, r24	; 0x01
    3d70:	08 c1       	rjmp	.+528    	; 0x3f82 <_fpadd_parts+0x286>
    3d72:	92 30       	cpi	r25, 0x02	; 2
    3d74:	09 f4       	brne	.+2      	; 0x3d78 <_fpadd_parts+0x7c>
    3d76:	07 c1       	rjmp	.+526    	; 0x3f86 <_fpadd_parts+0x28a>
    3d78:	12 96       	adiw	r26, 0x02	; 2
    3d7a:	2d 90       	ld	r2, X+
    3d7c:	3c 90       	ld	r3, X
    3d7e:	13 97       	sbiw	r26, 0x03	; 3
    3d80:	eb 01       	movw	r28, r22
    3d82:	8a 81       	ldd	r24, Y+2	; 0x02
    3d84:	9b 81       	ldd	r25, Y+3	; 0x03
    3d86:	14 96       	adiw	r26, 0x04	; 4
    3d88:	ad 90       	ld	r10, X+
    3d8a:	bd 90       	ld	r11, X+
    3d8c:	cd 90       	ld	r12, X+
    3d8e:	dc 90       	ld	r13, X
    3d90:	17 97       	sbiw	r26, 0x07	; 7
    3d92:	ec 80       	ldd	r14, Y+4	; 0x04
    3d94:	fd 80       	ldd	r15, Y+5	; 0x05
    3d96:	0e 81       	ldd	r16, Y+6	; 0x06
    3d98:	1f 81       	ldd	r17, Y+7	; 0x07
    3d9a:	91 01       	movw	r18, r2
    3d9c:	28 1b       	sub	r18, r24
    3d9e:	39 0b       	sbc	r19, r25
    3da0:	b9 01       	movw	r22, r18
    3da2:	37 ff       	sbrs	r19, 7
    3da4:	04 c0       	rjmp	.+8      	; 0x3dae <_fpadd_parts+0xb2>
    3da6:	66 27       	eor	r22, r22
    3da8:	77 27       	eor	r23, r23
    3daa:	62 1b       	sub	r22, r18
    3dac:	73 0b       	sbc	r23, r19
    3dae:	60 32       	cpi	r22, 0x20	; 32
    3db0:	71 05       	cpc	r23, r1
    3db2:	0c f0       	brlt	.+2      	; 0x3db6 <_fpadd_parts+0xba>
    3db4:	61 c0       	rjmp	.+194    	; 0x3e78 <_fpadd_parts+0x17c>
    3db6:	12 16       	cp	r1, r18
    3db8:	13 06       	cpc	r1, r19
    3dba:	6c f5       	brge	.+90     	; 0x3e16 <_fpadd_parts+0x11a>
    3dbc:	37 01       	movw	r6, r14
    3dbe:	48 01       	movw	r8, r16
    3dc0:	06 2e       	mov	r0, r22
    3dc2:	04 c0       	rjmp	.+8      	; 0x3dcc <_fpadd_parts+0xd0>
    3dc4:	96 94       	lsr	r9
    3dc6:	87 94       	ror	r8
    3dc8:	77 94       	ror	r7
    3dca:	67 94       	ror	r6
    3dcc:	0a 94       	dec	r0
    3dce:	d2 f7       	brpl	.-12     	; 0x3dc4 <_fpadd_parts+0xc8>
    3dd0:	21 e0       	ldi	r18, 0x01	; 1
    3dd2:	30 e0       	ldi	r19, 0x00	; 0
    3dd4:	40 e0       	ldi	r20, 0x00	; 0
    3dd6:	50 e0       	ldi	r21, 0x00	; 0
    3dd8:	04 c0       	rjmp	.+8      	; 0x3de2 <_fpadd_parts+0xe6>
    3dda:	22 0f       	add	r18, r18
    3ddc:	33 1f       	adc	r19, r19
    3dde:	44 1f       	adc	r20, r20
    3de0:	55 1f       	adc	r21, r21
    3de2:	6a 95       	dec	r22
    3de4:	d2 f7       	brpl	.-12     	; 0x3dda <_fpadd_parts+0xde>
    3de6:	21 50       	subi	r18, 0x01	; 1
    3de8:	30 40       	sbci	r19, 0x00	; 0
    3dea:	40 40       	sbci	r20, 0x00	; 0
    3dec:	50 40       	sbci	r21, 0x00	; 0
    3dee:	2e 21       	and	r18, r14
    3df0:	3f 21       	and	r19, r15
    3df2:	40 23       	and	r20, r16
    3df4:	51 23       	and	r21, r17
    3df6:	21 15       	cp	r18, r1
    3df8:	31 05       	cpc	r19, r1
    3dfa:	41 05       	cpc	r20, r1
    3dfc:	51 05       	cpc	r21, r1
    3dfe:	21 f0       	breq	.+8      	; 0x3e08 <_fpadd_parts+0x10c>
    3e00:	21 e0       	ldi	r18, 0x01	; 1
    3e02:	30 e0       	ldi	r19, 0x00	; 0
    3e04:	40 e0       	ldi	r20, 0x00	; 0
    3e06:	50 e0       	ldi	r21, 0x00	; 0
    3e08:	79 01       	movw	r14, r18
    3e0a:	8a 01       	movw	r16, r20
    3e0c:	e6 28       	or	r14, r6
    3e0e:	f7 28       	or	r15, r7
    3e10:	08 29       	or	r16, r8
    3e12:	19 29       	or	r17, r9
    3e14:	3c c0       	rjmp	.+120    	; 0x3e8e <_fpadd_parts+0x192>
    3e16:	23 2b       	or	r18, r19
    3e18:	d1 f1       	breq	.+116    	; 0x3e8e <_fpadd_parts+0x192>
    3e1a:	26 0e       	add	r2, r22
    3e1c:	37 1e       	adc	r3, r23
    3e1e:	35 01       	movw	r6, r10
    3e20:	46 01       	movw	r8, r12
    3e22:	06 2e       	mov	r0, r22
    3e24:	04 c0       	rjmp	.+8      	; 0x3e2e <_fpadd_parts+0x132>
    3e26:	96 94       	lsr	r9
    3e28:	87 94       	ror	r8
    3e2a:	77 94       	ror	r7
    3e2c:	67 94       	ror	r6
    3e2e:	0a 94       	dec	r0
    3e30:	d2 f7       	brpl	.-12     	; 0x3e26 <_fpadd_parts+0x12a>
    3e32:	21 e0       	ldi	r18, 0x01	; 1
    3e34:	30 e0       	ldi	r19, 0x00	; 0
    3e36:	40 e0       	ldi	r20, 0x00	; 0
    3e38:	50 e0       	ldi	r21, 0x00	; 0
    3e3a:	04 c0       	rjmp	.+8      	; 0x3e44 <_fpadd_parts+0x148>
    3e3c:	22 0f       	add	r18, r18
    3e3e:	33 1f       	adc	r19, r19
    3e40:	44 1f       	adc	r20, r20
    3e42:	55 1f       	adc	r21, r21
    3e44:	6a 95       	dec	r22
    3e46:	d2 f7       	brpl	.-12     	; 0x3e3c <_fpadd_parts+0x140>
    3e48:	21 50       	subi	r18, 0x01	; 1
    3e4a:	30 40       	sbci	r19, 0x00	; 0
    3e4c:	40 40       	sbci	r20, 0x00	; 0
    3e4e:	50 40       	sbci	r21, 0x00	; 0
    3e50:	2a 21       	and	r18, r10
    3e52:	3b 21       	and	r19, r11
    3e54:	4c 21       	and	r20, r12
    3e56:	5d 21       	and	r21, r13
    3e58:	21 15       	cp	r18, r1
    3e5a:	31 05       	cpc	r19, r1
    3e5c:	41 05       	cpc	r20, r1
    3e5e:	51 05       	cpc	r21, r1
    3e60:	21 f0       	breq	.+8      	; 0x3e6a <_fpadd_parts+0x16e>
    3e62:	21 e0       	ldi	r18, 0x01	; 1
    3e64:	30 e0       	ldi	r19, 0x00	; 0
    3e66:	40 e0       	ldi	r20, 0x00	; 0
    3e68:	50 e0       	ldi	r21, 0x00	; 0
    3e6a:	59 01       	movw	r10, r18
    3e6c:	6a 01       	movw	r12, r20
    3e6e:	a6 28       	or	r10, r6
    3e70:	b7 28       	or	r11, r7
    3e72:	c8 28       	or	r12, r8
    3e74:	d9 28       	or	r13, r9
    3e76:	0b c0       	rjmp	.+22     	; 0x3e8e <_fpadd_parts+0x192>
    3e78:	82 15       	cp	r24, r2
    3e7a:	93 05       	cpc	r25, r3
    3e7c:	2c f0       	brlt	.+10     	; 0x3e88 <_fpadd_parts+0x18c>
    3e7e:	1c 01       	movw	r2, r24
    3e80:	aa 24       	eor	r10, r10
    3e82:	bb 24       	eor	r11, r11
    3e84:	65 01       	movw	r12, r10
    3e86:	03 c0       	rjmp	.+6      	; 0x3e8e <_fpadd_parts+0x192>
    3e88:	ee 24       	eor	r14, r14
    3e8a:	ff 24       	eor	r15, r15
    3e8c:	87 01       	movw	r16, r14
    3e8e:	11 96       	adiw	r26, 0x01	; 1
    3e90:	9c 91       	ld	r25, X
    3e92:	d2 01       	movw	r26, r4
    3e94:	11 96       	adiw	r26, 0x01	; 1
    3e96:	8c 91       	ld	r24, X
    3e98:	98 17       	cp	r25, r24
    3e9a:	09 f4       	brne	.+2      	; 0x3e9e <_fpadd_parts+0x1a2>
    3e9c:	45 c0       	rjmp	.+138    	; 0x3f28 <_fpadd_parts+0x22c>
    3e9e:	99 23       	and	r25, r25
    3ea0:	39 f0       	breq	.+14     	; 0x3eb0 <_fpadd_parts+0x1b4>
    3ea2:	a8 01       	movw	r20, r16
    3ea4:	97 01       	movw	r18, r14
    3ea6:	2a 19       	sub	r18, r10
    3ea8:	3b 09       	sbc	r19, r11
    3eaa:	4c 09       	sbc	r20, r12
    3eac:	5d 09       	sbc	r21, r13
    3eae:	06 c0       	rjmp	.+12     	; 0x3ebc <_fpadd_parts+0x1c0>
    3eb0:	a6 01       	movw	r20, r12
    3eb2:	95 01       	movw	r18, r10
    3eb4:	2e 19       	sub	r18, r14
    3eb6:	3f 09       	sbc	r19, r15
    3eb8:	40 0b       	sbc	r20, r16
    3eba:	51 0b       	sbc	r21, r17
    3ebc:	57 fd       	sbrc	r21, 7
    3ebe:	08 c0       	rjmp	.+16     	; 0x3ed0 <_fpadd_parts+0x1d4>
    3ec0:	11 82       	std	Z+1, r1	; 0x01
    3ec2:	33 82       	std	Z+3, r3	; 0x03
    3ec4:	22 82       	std	Z+2, r2	; 0x02
    3ec6:	24 83       	std	Z+4, r18	; 0x04
    3ec8:	35 83       	std	Z+5, r19	; 0x05
    3eca:	46 83       	std	Z+6, r20	; 0x06
    3ecc:	57 83       	std	Z+7, r21	; 0x07
    3ece:	1d c0       	rjmp	.+58     	; 0x3f0a <_fpadd_parts+0x20e>
    3ed0:	81 e0       	ldi	r24, 0x01	; 1
    3ed2:	81 83       	std	Z+1, r24	; 0x01
    3ed4:	33 82       	std	Z+3, r3	; 0x03
    3ed6:	22 82       	std	Z+2, r2	; 0x02
    3ed8:	88 27       	eor	r24, r24
    3eda:	99 27       	eor	r25, r25
    3edc:	dc 01       	movw	r26, r24
    3ede:	82 1b       	sub	r24, r18
    3ee0:	93 0b       	sbc	r25, r19
    3ee2:	a4 0b       	sbc	r26, r20
    3ee4:	b5 0b       	sbc	r27, r21
    3ee6:	84 83       	std	Z+4, r24	; 0x04
    3ee8:	95 83       	std	Z+5, r25	; 0x05
    3eea:	a6 83       	std	Z+6, r26	; 0x06
    3eec:	b7 83       	std	Z+7, r27	; 0x07
    3eee:	0d c0       	rjmp	.+26     	; 0x3f0a <_fpadd_parts+0x20e>
    3ef0:	22 0f       	add	r18, r18
    3ef2:	33 1f       	adc	r19, r19
    3ef4:	44 1f       	adc	r20, r20
    3ef6:	55 1f       	adc	r21, r21
    3ef8:	24 83       	std	Z+4, r18	; 0x04
    3efa:	35 83       	std	Z+5, r19	; 0x05
    3efc:	46 83       	std	Z+6, r20	; 0x06
    3efe:	57 83       	std	Z+7, r21	; 0x07
    3f00:	82 81       	ldd	r24, Z+2	; 0x02
    3f02:	93 81       	ldd	r25, Z+3	; 0x03
    3f04:	01 97       	sbiw	r24, 0x01	; 1
    3f06:	93 83       	std	Z+3, r25	; 0x03
    3f08:	82 83       	std	Z+2, r24	; 0x02
    3f0a:	24 81       	ldd	r18, Z+4	; 0x04
    3f0c:	35 81       	ldd	r19, Z+5	; 0x05
    3f0e:	46 81       	ldd	r20, Z+6	; 0x06
    3f10:	57 81       	ldd	r21, Z+7	; 0x07
    3f12:	da 01       	movw	r26, r20
    3f14:	c9 01       	movw	r24, r18
    3f16:	01 97       	sbiw	r24, 0x01	; 1
    3f18:	a1 09       	sbc	r26, r1
    3f1a:	b1 09       	sbc	r27, r1
    3f1c:	8f 5f       	subi	r24, 0xFF	; 255
    3f1e:	9f 4f       	sbci	r25, 0xFF	; 255
    3f20:	af 4f       	sbci	r26, 0xFF	; 255
    3f22:	bf 43       	sbci	r27, 0x3F	; 63
    3f24:	28 f3       	brcs	.-54     	; 0x3ef0 <_fpadd_parts+0x1f4>
    3f26:	0b c0       	rjmp	.+22     	; 0x3f3e <_fpadd_parts+0x242>
    3f28:	91 83       	std	Z+1, r25	; 0x01
    3f2a:	33 82       	std	Z+3, r3	; 0x03
    3f2c:	22 82       	std	Z+2, r2	; 0x02
    3f2e:	ea 0c       	add	r14, r10
    3f30:	fb 1c       	adc	r15, r11
    3f32:	0c 1d       	adc	r16, r12
    3f34:	1d 1d       	adc	r17, r13
    3f36:	e4 82       	std	Z+4, r14	; 0x04
    3f38:	f5 82       	std	Z+5, r15	; 0x05
    3f3a:	06 83       	std	Z+6, r16	; 0x06
    3f3c:	17 83       	std	Z+7, r17	; 0x07
    3f3e:	83 e0       	ldi	r24, 0x03	; 3
    3f40:	80 83       	st	Z, r24
    3f42:	24 81       	ldd	r18, Z+4	; 0x04
    3f44:	35 81       	ldd	r19, Z+5	; 0x05
    3f46:	46 81       	ldd	r20, Z+6	; 0x06
    3f48:	57 81       	ldd	r21, Z+7	; 0x07
    3f4a:	57 ff       	sbrs	r21, 7
    3f4c:	1a c0       	rjmp	.+52     	; 0x3f82 <_fpadd_parts+0x286>
    3f4e:	c9 01       	movw	r24, r18
    3f50:	aa 27       	eor	r26, r26
    3f52:	97 fd       	sbrc	r25, 7
    3f54:	a0 95       	com	r26
    3f56:	ba 2f       	mov	r27, r26
    3f58:	81 70       	andi	r24, 0x01	; 1
    3f5a:	90 70       	andi	r25, 0x00	; 0
    3f5c:	a0 70       	andi	r26, 0x00	; 0
    3f5e:	b0 70       	andi	r27, 0x00	; 0
    3f60:	56 95       	lsr	r21
    3f62:	47 95       	ror	r20
    3f64:	37 95       	ror	r19
    3f66:	27 95       	ror	r18
    3f68:	82 2b       	or	r24, r18
    3f6a:	93 2b       	or	r25, r19
    3f6c:	a4 2b       	or	r26, r20
    3f6e:	b5 2b       	or	r27, r21
    3f70:	84 83       	std	Z+4, r24	; 0x04
    3f72:	95 83       	std	Z+5, r25	; 0x05
    3f74:	a6 83       	std	Z+6, r26	; 0x06
    3f76:	b7 83       	std	Z+7, r27	; 0x07
    3f78:	82 81       	ldd	r24, Z+2	; 0x02
    3f7a:	93 81       	ldd	r25, Z+3	; 0x03
    3f7c:	01 96       	adiw	r24, 0x01	; 1
    3f7e:	93 83       	std	Z+3, r25	; 0x03
    3f80:	82 83       	std	Z+2, r24	; 0x02
    3f82:	df 01       	movw	r26, r30
    3f84:	01 c0       	rjmp	.+2      	; 0x3f88 <_fpadd_parts+0x28c>
    3f86:	d2 01       	movw	r26, r4
    3f88:	cd 01       	movw	r24, r26
    3f8a:	cd b7       	in	r28, 0x3d	; 61
    3f8c:	de b7       	in	r29, 0x3e	; 62
    3f8e:	e2 e1       	ldi	r30, 0x12	; 18
    3f90:	0c 94 8d 25 	jmp	0x4b1a	; 0x4b1a <__epilogue_restores__>

00003f94 <__subsf3>:
    3f94:	a0 e2       	ldi	r26, 0x20	; 32
    3f96:	b0 e0       	ldi	r27, 0x00	; 0
    3f98:	e0 ed       	ldi	r30, 0xD0	; 208
    3f9a:	ff e1       	ldi	r31, 0x1F	; 31
    3f9c:	0c 94 7d 25 	jmp	0x4afa	; 0x4afa <__prologue_saves__+0x18>
    3fa0:	69 83       	std	Y+1, r22	; 0x01
    3fa2:	7a 83       	std	Y+2, r23	; 0x02
    3fa4:	8b 83       	std	Y+3, r24	; 0x03
    3fa6:	9c 83       	std	Y+4, r25	; 0x04
    3fa8:	2d 83       	std	Y+5, r18	; 0x05
    3faa:	3e 83       	std	Y+6, r19	; 0x06
    3fac:	4f 83       	std	Y+7, r20	; 0x07
    3fae:	58 87       	std	Y+8, r21	; 0x08
    3fb0:	e9 e0       	ldi	r30, 0x09	; 9
    3fb2:	ee 2e       	mov	r14, r30
    3fb4:	f1 2c       	mov	r15, r1
    3fb6:	ec 0e       	add	r14, r28
    3fb8:	fd 1e       	adc	r15, r29
    3fba:	ce 01       	movw	r24, r28
    3fbc:	01 96       	adiw	r24, 0x01	; 1
    3fbe:	b7 01       	movw	r22, r14
    3fc0:	0e 94 7e 24 	call	0x48fc	; 0x48fc <__unpack_f>
    3fc4:	8e 01       	movw	r16, r28
    3fc6:	0f 5e       	subi	r16, 0xEF	; 239
    3fc8:	1f 4f       	sbci	r17, 0xFF	; 255
    3fca:	ce 01       	movw	r24, r28
    3fcc:	05 96       	adiw	r24, 0x05	; 5
    3fce:	b8 01       	movw	r22, r16
    3fd0:	0e 94 7e 24 	call	0x48fc	; 0x48fc <__unpack_f>
    3fd4:	8a 89       	ldd	r24, Y+18	; 0x12
    3fd6:	91 e0       	ldi	r25, 0x01	; 1
    3fd8:	89 27       	eor	r24, r25
    3fda:	8a 8b       	std	Y+18, r24	; 0x12
    3fdc:	c7 01       	movw	r24, r14
    3fde:	b8 01       	movw	r22, r16
    3fe0:	ae 01       	movw	r20, r28
    3fe2:	47 5e       	subi	r20, 0xE7	; 231
    3fe4:	5f 4f       	sbci	r21, 0xFF	; 255
    3fe6:	0e 94 7e 1e 	call	0x3cfc	; 0x3cfc <_fpadd_parts>
    3fea:	0e 94 a8 23 	call	0x4750	; 0x4750 <__pack_f>
    3fee:	a0 96       	adiw	r28, 0x20	; 32
    3ff0:	e6 e0       	ldi	r30, 0x06	; 6
    3ff2:	0c 94 99 25 	jmp	0x4b32	; 0x4b32 <__epilogue_restores__+0x18>

00003ff6 <__addsf3>:
    3ff6:	a0 e2       	ldi	r26, 0x20	; 32
    3ff8:	b0 e0       	ldi	r27, 0x00	; 0
    3ffa:	e1 e0       	ldi	r30, 0x01	; 1
    3ffc:	f0 e2       	ldi	r31, 0x20	; 32
    3ffe:	0c 94 7d 25 	jmp	0x4afa	; 0x4afa <__prologue_saves__+0x18>
    4002:	69 83       	std	Y+1, r22	; 0x01
    4004:	7a 83       	std	Y+2, r23	; 0x02
    4006:	8b 83       	std	Y+3, r24	; 0x03
    4008:	9c 83       	std	Y+4, r25	; 0x04
    400a:	2d 83       	std	Y+5, r18	; 0x05
    400c:	3e 83       	std	Y+6, r19	; 0x06
    400e:	4f 83       	std	Y+7, r20	; 0x07
    4010:	58 87       	std	Y+8, r21	; 0x08
    4012:	f9 e0       	ldi	r31, 0x09	; 9
    4014:	ef 2e       	mov	r14, r31
    4016:	f1 2c       	mov	r15, r1
    4018:	ec 0e       	add	r14, r28
    401a:	fd 1e       	adc	r15, r29
    401c:	ce 01       	movw	r24, r28
    401e:	01 96       	adiw	r24, 0x01	; 1
    4020:	b7 01       	movw	r22, r14
    4022:	0e 94 7e 24 	call	0x48fc	; 0x48fc <__unpack_f>
    4026:	8e 01       	movw	r16, r28
    4028:	0f 5e       	subi	r16, 0xEF	; 239
    402a:	1f 4f       	sbci	r17, 0xFF	; 255
    402c:	ce 01       	movw	r24, r28
    402e:	05 96       	adiw	r24, 0x05	; 5
    4030:	b8 01       	movw	r22, r16
    4032:	0e 94 7e 24 	call	0x48fc	; 0x48fc <__unpack_f>
    4036:	c7 01       	movw	r24, r14
    4038:	b8 01       	movw	r22, r16
    403a:	ae 01       	movw	r20, r28
    403c:	47 5e       	subi	r20, 0xE7	; 231
    403e:	5f 4f       	sbci	r21, 0xFF	; 255
    4040:	0e 94 7e 1e 	call	0x3cfc	; 0x3cfc <_fpadd_parts>
    4044:	0e 94 a8 23 	call	0x4750	; 0x4750 <__pack_f>
    4048:	a0 96       	adiw	r28, 0x20	; 32
    404a:	e6 e0       	ldi	r30, 0x06	; 6
    404c:	0c 94 99 25 	jmp	0x4b32	; 0x4b32 <__epilogue_restores__+0x18>

00004050 <__mulsf3>:
    4050:	a0 e2       	ldi	r26, 0x20	; 32
    4052:	b0 e0       	ldi	r27, 0x00	; 0
    4054:	ee e2       	ldi	r30, 0x2E	; 46
    4056:	f0 e2       	ldi	r31, 0x20	; 32
    4058:	0c 94 71 25 	jmp	0x4ae2	; 0x4ae2 <__prologue_saves__>
    405c:	69 83       	std	Y+1, r22	; 0x01
    405e:	7a 83       	std	Y+2, r23	; 0x02
    4060:	8b 83       	std	Y+3, r24	; 0x03
    4062:	9c 83       	std	Y+4, r25	; 0x04
    4064:	2d 83       	std	Y+5, r18	; 0x05
    4066:	3e 83       	std	Y+6, r19	; 0x06
    4068:	4f 83       	std	Y+7, r20	; 0x07
    406a:	58 87       	std	Y+8, r21	; 0x08
    406c:	ce 01       	movw	r24, r28
    406e:	01 96       	adiw	r24, 0x01	; 1
    4070:	be 01       	movw	r22, r28
    4072:	67 5f       	subi	r22, 0xF7	; 247
    4074:	7f 4f       	sbci	r23, 0xFF	; 255
    4076:	0e 94 7e 24 	call	0x48fc	; 0x48fc <__unpack_f>
    407a:	ce 01       	movw	r24, r28
    407c:	05 96       	adiw	r24, 0x05	; 5
    407e:	be 01       	movw	r22, r28
    4080:	6f 5e       	subi	r22, 0xEF	; 239
    4082:	7f 4f       	sbci	r23, 0xFF	; 255
    4084:	0e 94 7e 24 	call	0x48fc	; 0x48fc <__unpack_f>
    4088:	99 85       	ldd	r25, Y+9	; 0x09
    408a:	92 30       	cpi	r25, 0x02	; 2
    408c:	88 f0       	brcs	.+34     	; 0x40b0 <__mulsf3+0x60>
    408e:	89 89       	ldd	r24, Y+17	; 0x11
    4090:	82 30       	cpi	r24, 0x02	; 2
    4092:	c8 f0       	brcs	.+50     	; 0x40c6 <__mulsf3+0x76>
    4094:	94 30       	cpi	r25, 0x04	; 4
    4096:	19 f4       	brne	.+6      	; 0x409e <__mulsf3+0x4e>
    4098:	82 30       	cpi	r24, 0x02	; 2
    409a:	51 f4       	brne	.+20     	; 0x40b0 <__mulsf3+0x60>
    409c:	04 c0       	rjmp	.+8      	; 0x40a6 <__mulsf3+0x56>
    409e:	84 30       	cpi	r24, 0x04	; 4
    40a0:	29 f4       	brne	.+10     	; 0x40ac <__mulsf3+0x5c>
    40a2:	92 30       	cpi	r25, 0x02	; 2
    40a4:	81 f4       	brne	.+32     	; 0x40c6 <__mulsf3+0x76>
    40a6:	8b e2       	ldi	r24, 0x2B	; 43
    40a8:	91 e0       	ldi	r25, 0x01	; 1
    40aa:	c6 c0       	rjmp	.+396    	; 0x4238 <__mulsf3+0x1e8>
    40ac:	92 30       	cpi	r25, 0x02	; 2
    40ae:	49 f4       	brne	.+18     	; 0x40c2 <__mulsf3+0x72>
    40b0:	20 e0       	ldi	r18, 0x00	; 0
    40b2:	9a 85       	ldd	r25, Y+10	; 0x0a
    40b4:	8a 89       	ldd	r24, Y+18	; 0x12
    40b6:	98 13       	cpse	r25, r24
    40b8:	21 e0       	ldi	r18, 0x01	; 1
    40ba:	2a 87       	std	Y+10, r18	; 0x0a
    40bc:	ce 01       	movw	r24, r28
    40be:	09 96       	adiw	r24, 0x09	; 9
    40c0:	bb c0       	rjmp	.+374    	; 0x4238 <__mulsf3+0x1e8>
    40c2:	82 30       	cpi	r24, 0x02	; 2
    40c4:	49 f4       	brne	.+18     	; 0x40d8 <__mulsf3+0x88>
    40c6:	20 e0       	ldi	r18, 0x00	; 0
    40c8:	9a 85       	ldd	r25, Y+10	; 0x0a
    40ca:	8a 89       	ldd	r24, Y+18	; 0x12
    40cc:	98 13       	cpse	r25, r24
    40ce:	21 e0       	ldi	r18, 0x01	; 1
    40d0:	2a 8b       	std	Y+18, r18	; 0x12
    40d2:	ce 01       	movw	r24, r28
    40d4:	41 96       	adiw	r24, 0x11	; 17
    40d6:	b0 c0       	rjmp	.+352    	; 0x4238 <__mulsf3+0x1e8>
    40d8:	2d 84       	ldd	r2, Y+13	; 0x0d
    40da:	3e 84       	ldd	r3, Y+14	; 0x0e
    40dc:	4f 84       	ldd	r4, Y+15	; 0x0f
    40de:	58 88       	ldd	r5, Y+16	; 0x10
    40e0:	6d 88       	ldd	r6, Y+21	; 0x15
    40e2:	7e 88       	ldd	r7, Y+22	; 0x16
    40e4:	8f 88       	ldd	r8, Y+23	; 0x17
    40e6:	98 8c       	ldd	r9, Y+24	; 0x18
    40e8:	ee 24       	eor	r14, r14
    40ea:	ff 24       	eor	r15, r15
    40ec:	87 01       	movw	r16, r14
    40ee:	aa 24       	eor	r10, r10
    40f0:	bb 24       	eor	r11, r11
    40f2:	65 01       	movw	r12, r10
    40f4:	40 e0       	ldi	r20, 0x00	; 0
    40f6:	50 e0       	ldi	r21, 0x00	; 0
    40f8:	60 e0       	ldi	r22, 0x00	; 0
    40fa:	70 e0       	ldi	r23, 0x00	; 0
    40fc:	e0 e0       	ldi	r30, 0x00	; 0
    40fe:	f0 e0       	ldi	r31, 0x00	; 0
    4100:	c1 01       	movw	r24, r2
    4102:	81 70       	andi	r24, 0x01	; 1
    4104:	90 70       	andi	r25, 0x00	; 0
    4106:	89 2b       	or	r24, r25
    4108:	e9 f0       	breq	.+58     	; 0x4144 <__mulsf3+0xf4>
    410a:	e6 0c       	add	r14, r6
    410c:	f7 1c       	adc	r15, r7
    410e:	08 1d       	adc	r16, r8
    4110:	19 1d       	adc	r17, r9
    4112:	9a 01       	movw	r18, r20
    4114:	ab 01       	movw	r20, r22
    4116:	2a 0d       	add	r18, r10
    4118:	3b 1d       	adc	r19, r11
    411a:	4c 1d       	adc	r20, r12
    411c:	5d 1d       	adc	r21, r13
    411e:	80 e0       	ldi	r24, 0x00	; 0
    4120:	90 e0       	ldi	r25, 0x00	; 0
    4122:	a0 e0       	ldi	r26, 0x00	; 0
    4124:	b0 e0       	ldi	r27, 0x00	; 0
    4126:	e6 14       	cp	r14, r6
    4128:	f7 04       	cpc	r15, r7
    412a:	08 05       	cpc	r16, r8
    412c:	19 05       	cpc	r17, r9
    412e:	20 f4       	brcc	.+8      	; 0x4138 <__mulsf3+0xe8>
    4130:	81 e0       	ldi	r24, 0x01	; 1
    4132:	90 e0       	ldi	r25, 0x00	; 0
    4134:	a0 e0       	ldi	r26, 0x00	; 0
    4136:	b0 e0       	ldi	r27, 0x00	; 0
    4138:	ba 01       	movw	r22, r20
    413a:	a9 01       	movw	r20, r18
    413c:	48 0f       	add	r20, r24
    413e:	59 1f       	adc	r21, r25
    4140:	6a 1f       	adc	r22, r26
    4142:	7b 1f       	adc	r23, r27
    4144:	aa 0c       	add	r10, r10
    4146:	bb 1c       	adc	r11, r11
    4148:	cc 1c       	adc	r12, r12
    414a:	dd 1c       	adc	r13, r13
    414c:	97 fe       	sbrs	r9, 7
    414e:	08 c0       	rjmp	.+16     	; 0x4160 <__mulsf3+0x110>
    4150:	81 e0       	ldi	r24, 0x01	; 1
    4152:	90 e0       	ldi	r25, 0x00	; 0
    4154:	a0 e0       	ldi	r26, 0x00	; 0
    4156:	b0 e0       	ldi	r27, 0x00	; 0
    4158:	a8 2a       	or	r10, r24
    415a:	b9 2a       	or	r11, r25
    415c:	ca 2a       	or	r12, r26
    415e:	db 2a       	or	r13, r27
    4160:	31 96       	adiw	r30, 0x01	; 1
    4162:	e0 32       	cpi	r30, 0x20	; 32
    4164:	f1 05       	cpc	r31, r1
    4166:	49 f0       	breq	.+18     	; 0x417a <__mulsf3+0x12a>
    4168:	66 0c       	add	r6, r6
    416a:	77 1c       	adc	r7, r7
    416c:	88 1c       	adc	r8, r8
    416e:	99 1c       	adc	r9, r9
    4170:	56 94       	lsr	r5
    4172:	47 94       	ror	r4
    4174:	37 94       	ror	r3
    4176:	27 94       	ror	r2
    4178:	c3 cf       	rjmp	.-122    	; 0x4100 <__mulsf3+0xb0>
    417a:	fa 85       	ldd	r31, Y+10	; 0x0a
    417c:	ea 89       	ldd	r30, Y+18	; 0x12
    417e:	2b 89       	ldd	r18, Y+19	; 0x13
    4180:	3c 89       	ldd	r19, Y+20	; 0x14
    4182:	8b 85       	ldd	r24, Y+11	; 0x0b
    4184:	9c 85       	ldd	r25, Y+12	; 0x0c
    4186:	28 0f       	add	r18, r24
    4188:	39 1f       	adc	r19, r25
    418a:	2e 5f       	subi	r18, 0xFE	; 254
    418c:	3f 4f       	sbci	r19, 0xFF	; 255
    418e:	17 c0       	rjmp	.+46     	; 0x41be <__mulsf3+0x16e>
    4190:	ca 01       	movw	r24, r20
    4192:	81 70       	andi	r24, 0x01	; 1
    4194:	90 70       	andi	r25, 0x00	; 0
    4196:	89 2b       	or	r24, r25
    4198:	61 f0       	breq	.+24     	; 0x41b2 <__mulsf3+0x162>
    419a:	16 95       	lsr	r17
    419c:	07 95       	ror	r16
    419e:	f7 94       	ror	r15
    41a0:	e7 94       	ror	r14
    41a2:	80 e0       	ldi	r24, 0x00	; 0
    41a4:	90 e0       	ldi	r25, 0x00	; 0
    41a6:	a0 e0       	ldi	r26, 0x00	; 0
    41a8:	b0 e8       	ldi	r27, 0x80	; 128
    41aa:	e8 2a       	or	r14, r24
    41ac:	f9 2a       	or	r15, r25
    41ae:	0a 2b       	or	r16, r26
    41b0:	1b 2b       	or	r17, r27
    41b2:	76 95       	lsr	r23
    41b4:	67 95       	ror	r22
    41b6:	57 95       	ror	r21
    41b8:	47 95       	ror	r20
    41ba:	2f 5f       	subi	r18, 0xFF	; 255
    41bc:	3f 4f       	sbci	r19, 0xFF	; 255
    41be:	77 fd       	sbrc	r23, 7
    41c0:	e7 cf       	rjmp	.-50     	; 0x4190 <__mulsf3+0x140>
    41c2:	0c c0       	rjmp	.+24     	; 0x41dc <__mulsf3+0x18c>
    41c4:	44 0f       	add	r20, r20
    41c6:	55 1f       	adc	r21, r21
    41c8:	66 1f       	adc	r22, r22
    41ca:	77 1f       	adc	r23, r23
    41cc:	17 fd       	sbrc	r17, 7
    41ce:	41 60       	ori	r20, 0x01	; 1
    41d0:	ee 0c       	add	r14, r14
    41d2:	ff 1c       	adc	r15, r15
    41d4:	00 1f       	adc	r16, r16
    41d6:	11 1f       	adc	r17, r17
    41d8:	21 50       	subi	r18, 0x01	; 1
    41da:	30 40       	sbci	r19, 0x00	; 0
    41dc:	40 30       	cpi	r20, 0x00	; 0
    41de:	90 e0       	ldi	r25, 0x00	; 0
    41e0:	59 07       	cpc	r21, r25
    41e2:	90 e0       	ldi	r25, 0x00	; 0
    41e4:	69 07       	cpc	r22, r25
    41e6:	90 e4       	ldi	r25, 0x40	; 64
    41e8:	79 07       	cpc	r23, r25
    41ea:	60 f3       	brcs	.-40     	; 0x41c4 <__mulsf3+0x174>
    41ec:	2b 8f       	std	Y+27, r18	; 0x1b
    41ee:	3c 8f       	std	Y+28, r19	; 0x1c
    41f0:	db 01       	movw	r26, r22
    41f2:	ca 01       	movw	r24, r20
    41f4:	8f 77       	andi	r24, 0x7F	; 127
    41f6:	90 70       	andi	r25, 0x00	; 0
    41f8:	a0 70       	andi	r26, 0x00	; 0
    41fa:	b0 70       	andi	r27, 0x00	; 0
    41fc:	80 34       	cpi	r24, 0x40	; 64
    41fe:	91 05       	cpc	r25, r1
    4200:	a1 05       	cpc	r26, r1
    4202:	b1 05       	cpc	r27, r1
    4204:	61 f4       	brne	.+24     	; 0x421e <__mulsf3+0x1ce>
    4206:	47 fd       	sbrc	r20, 7
    4208:	0a c0       	rjmp	.+20     	; 0x421e <__mulsf3+0x1ce>
    420a:	e1 14       	cp	r14, r1
    420c:	f1 04       	cpc	r15, r1
    420e:	01 05       	cpc	r16, r1
    4210:	11 05       	cpc	r17, r1
    4212:	29 f0       	breq	.+10     	; 0x421e <__mulsf3+0x1ce>
    4214:	40 5c       	subi	r20, 0xC0	; 192
    4216:	5f 4f       	sbci	r21, 0xFF	; 255
    4218:	6f 4f       	sbci	r22, 0xFF	; 255
    421a:	7f 4f       	sbci	r23, 0xFF	; 255
    421c:	40 78       	andi	r20, 0x80	; 128
    421e:	1a 8e       	std	Y+26, r1	; 0x1a
    4220:	fe 17       	cp	r31, r30
    4222:	11 f0       	breq	.+4      	; 0x4228 <__mulsf3+0x1d8>
    4224:	81 e0       	ldi	r24, 0x01	; 1
    4226:	8a 8f       	std	Y+26, r24	; 0x1a
    4228:	4d 8f       	std	Y+29, r20	; 0x1d
    422a:	5e 8f       	std	Y+30, r21	; 0x1e
    422c:	6f 8f       	std	Y+31, r22	; 0x1f
    422e:	78 a3       	std	Y+32, r23	; 0x20
    4230:	83 e0       	ldi	r24, 0x03	; 3
    4232:	89 8f       	std	Y+25, r24	; 0x19
    4234:	ce 01       	movw	r24, r28
    4236:	49 96       	adiw	r24, 0x19	; 25
    4238:	0e 94 a8 23 	call	0x4750	; 0x4750 <__pack_f>
    423c:	a0 96       	adiw	r28, 0x20	; 32
    423e:	e2 e1       	ldi	r30, 0x12	; 18
    4240:	0c 94 8d 25 	jmp	0x4b1a	; 0x4b1a <__epilogue_restores__>

00004244 <__divsf3>:
    4244:	a8 e1       	ldi	r26, 0x18	; 24
    4246:	b0 e0       	ldi	r27, 0x00	; 0
    4248:	e8 e2       	ldi	r30, 0x28	; 40
    424a:	f1 e2       	ldi	r31, 0x21	; 33
    424c:	0c 94 79 25 	jmp	0x4af2	; 0x4af2 <__prologue_saves__+0x10>
    4250:	69 83       	std	Y+1, r22	; 0x01
    4252:	7a 83       	std	Y+2, r23	; 0x02
    4254:	8b 83       	std	Y+3, r24	; 0x03
    4256:	9c 83       	std	Y+4, r25	; 0x04
    4258:	2d 83       	std	Y+5, r18	; 0x05
    425a:	3e 83       	std	Y+6, r19	; 0x06
    425c:	4f 83       	std	Y+7, r20	; 0x07
    425e:	58 87       	std	Y+8, r21	; 0x08
    4260:	b9 e0       	ldi	r27, 0x09	; 9
    4262:	eb 2e       	mov	r14, r27
    4264:	f1 2c       	mov	r15, r1
    4266:	ec 0e       	add	r14, r28
    4268:	fd 1e       	adc	r15, r29
    426a:	ce 01       	movw	r24, r28
    426c:	01 96       	adiw	r24, 0x01	; 1
    426e:	b7 01       	movw	r22, r14
    4270:	0e 94 7e 24 	call	0x48fc	; 0x48fc <__unpack_f>
    4274:	8e 01       	movw	r16, r28
    4276:	0f 5e       	subi	r16, 0xEF	; 239
    4278:	1f 4f       	sbci	r17, 0xFF	; 255
    427a:	ce 01       	movw	r24, r28
    427c:	05 96       	adiw	r24, 0x05	; 5
    427e:	b8 01       	movw	r22, r16
    4280:	0e 94 7e 24 	call	0x48fc	; 0x48fc <__unpack_f>
    4284:	29 85       	ldd	r18, Y+9	; 0x09
    4286:	22 30       	cpi	r18, 0x02	; 2
    4288:	08 f4       	brcc	.+2      	; 0x428c <__divsf3+0x48>
    428a:	7e c0       	rjmp	.+252    	; 0x4388 <__divsf3+0x144>
    428c:	39 89       	ldd	r19, Y+17	; 0x11
    428e:	32 30       	cpi	r19, 0x02	; 2
    4290:	10 f4       	brcc	.+4      	; 0x4296 <__divsf3+0x52>
    4292:	b8 01       	movw	r22, r16
    4294:	7c c0       	rjmp	.+248    	; 0x438e <__divsf3+0x14a>
    4296:	8a 85       	ldd	r24, Y+10	; 0x0a
    4298:	9a 89       	ldd	r25, Y+18	; 0x12
    429a:	89 27       	eor	r24, r25
    429c:	8a 87       	std	Y+10, r24	; 0x0a
    429e:	24 30       	cpi	r18, 0x04	; 4
    42a0:	11 f0       	breq	.+4      	; 0x42a6 <__divsf3+0x62>
    42a2:	22 30       	cpi	r18, 0x02	; 2
    42a4:	31 f4       	brne	.+12     	; 0x42b2 <__divsf3+0x6e>
    42a6:	23 17       	cp	r18, r19
    42a8:	09 f0       	breq	.+2      	; 0x42ac <__divsf3+0x68>
    42aa:	6e c0       	rjmp	.+220    	; 0x4388 <__divsf3+0x144>
    42ac:	6b e2       	ldi	r22, 0x2B	; 43
    42ae:	71 e0       	ldi	r23, 0x01	; 1
    42b0:	6e c0       	rjmp	.+220    	; 0x438e <__divsf3+0x14a>
    42b2:	34 30       	cpi	r19, 0x04	; 4
    42b4:	39 f4       	brne	.+14     	; 0x42c4 <__divsf3+0x80>
    42b6:	1d 86       	std	Y+13, r1	; 0x0d
    42b8:	1e 86       	std	Y+14, r1	; 0x0e
    42ba:	1f 86       	std	Y+15, r1	; 0x0f
    42bc:	18 8a       	std	Y+16, r1	; 0x10
    42be:	1c 86       	std	Y+12, r1	; 0x0c
    42c0:	1b 86       	std	Y+11, r1	; 0x0b
    42c2:	04 c0       	rjmp	.+8      	; 0x42cc <__divsf3+0x88>
    42c4:	32 30       	cpi	r19, 0x02	; 2
    42c6:	21 f4       	brne	.+8      	; 0x42d0 <__divsf3+0x8c>
    42c8:	84 e0       	ldi	r24, 0x04	; 4
    42ca:	89 87       	std	Y+9, r24	; 0x09
    42cc:	b7 01       	movw	r22, r14
    42ce:	5f c0       	rjmp	.+190    	; 0x438e <__divsf3+0x14a>
    42d0:	2b 85       	ldd	r18, Y+11	; 0x0b
    42d2:	3c 85       	ldd	r19, Y+12	; 0x0c
    42d4:	8b 89       	ldd	r24, Y+19	; 0x13
    42d6:	9c 89       	ldd	r25, Y+20	; 0x14
    42d8:	28 1b       	sub	r18, r24
    42da:	39 0b       	sbc	r19, r25
    42dc:	3c 87       	std	Y+12, r19	; 0x0c
    42de:	2b 87       	std	Y+11, r18	; 0x0b
    42e0:	ed 84       	ldd	r14, Y+13	; 0x0d
    42e2:	fe 84       	ldd	r15, Y+14	; 0x0e
    42e4:	0f 85       	ldd	r16, Y+15	; 0x0f
    42e6:	18 89       	ldd	r17, Y+16	; 0x10
    42e8:	ad 88       	ldd	r10, Y+21	; 0x15
    42ea:	be 88       	ldd	r11, Y+22	; 0x16
    42ec:	cf 88       	ldd	r12, Y+23	; 0x17
    42ee:	d8 8c       	ldd	r13, Y+24	; 0x18
    42f0:	ea 14       	cp	r14, r10
    42f2:	fb 04       	cpc	r15, r11
    42f4:	0c 05       	cpc	r16, r12
    42f6:	1d 05       	cpc	r17, r13
    42f8:	40 f4       	brcc	.+16     	; 0x430a <__divsf3+0xc6>
    42fa:	ee 0c       	add	r14, r14
    42fc:	ff 1c       	adc	r15, r15
    42fe:	00 1f       	adc	r16, r16
    4300:	11 1f       	adc	r17, r17
    4302:	21 50       	subi	r18, 0x01	; 1
    4304:	30 40       	sbci	r19, 0x00	; 0
    4306:	3c 87       	std	Y+12, r19	; 0x0c
    4308:	2b 87       	std	Y+11, r18	; 0x0b
    430a:	20 e0       	ldi	r18, 0x00	; 0
    430c:	30 e0       	ldi	r19, 0x00	; 0
    430e:	40 e0       	ldi	r20, 0x00	; 0
    4310:	50 e0       	ldi	r21, 0x00	; 0
    4312:	80 e0       	ldi	r24, 0x00	; 0
    4314:	90 e0       	ldi	r25, 0x00	; 0
    4316:	a0 e0       	ldi	r26, 0x00	; 0
    4318:	b0 e4       	ldi	r27, 0x40	; 64
    431a:	60 e0       	ldi	r22, 0x00	; 0
    431c:	70 e0       	ldi	r23, 0x00	; 0
    431e:	ea 14       	cp	r14, r10
    4320:	fb 04       	cpc	r15, r11
    4322:	0c 05       	cpc	r16, r12
    4324:	1d 05       	cpc	r17, r13
    4326:	40 f0       	brcs	.+16     	; 0x4338 <__divsf3+0xf4>
    4328:	28 2b       	or	r18, r24
    432a:	39 2b       	or	r19, r25
    432c:	4a 2b       	or	r20, r26
    432e:	5b 2b       	or	r21, r27
    4330:	ea 18       	sub	r14, r10
    4332:	fb 08       	sbc	r15, r11
    4334:	0c 09       	sbc	r16, r12
    4336:	1d 09       	sbc	r17, r13
    4338:	b6 95       	lsr	r27
    433a:	a7 95       	ror	r26
    433c:	97 95       	ror	r25
    433e:	87 95       	ror	r24
    4340:	ee 0c       	add	r14, r14
    4342:	ff 1c       	adc	r15, r15
    4344:	00 1f       	adc	r16, r16
    4346:	11 1f       	adc	r17, r17
    4348:	6f 5f       	subi	r22, 0xFF	; 255
    434a:	7f 4f       	sbci	r23, 0xFF	; 255
    434c:	6f 31       	cpi	r22, 0x1F	; 31
    434e:	71 05       	cpc	r23, r1
    4350:	31 f7       	brne	.-52     	; 0x431e <__divsf3+0xda>
    4352:	da 01       	movw	r26, r20
    4354:	c9 01       	movw	r24, r18
    4356:	8f 77       	andi	r24, 0x7F	; 127
    4358:	90 70       	andi	r25, 0x00	; 0
    435a:	a0 70       	andi	r26, 0x00	; 0
    435c:	b0 70       	andi	r27, 0x00	; 0
    435e:	80 34       	cpi	r24, 0x40	; 64
    4360:	91 05       	cpc	r25, r1
    4362:	a1 05       	cpc	r26, r1
    4364:	b1 05       	cpc	r27, r1
    4366:	61 f4       	brne	.+24     	; 0x4380 <__divsf3+0x13c>
    4368:	27 fd       	sbrc	r18, 7
    436a:	0a c0       	rjmp	.+20     	; 0x4380 <__divsf3+0x13c>
    436c:	e1 14       	cp	r14, r1
    436e:	f1 04       	cpc	r15, r1
    4370:	01 05       	cpc	r16, r1
    4372:	11 05       	cpc	r17, r1
    4374:	29 f0       	breq	.+10     	; 0x4380 <__divsf3+0x13c>
    4376:	20 5c       	subi	r18, 0xC0	; 192
    4378:	3f 4f       	sbci	r19, 0xFF	; 255
    437a:	4f 4f       	sbci	r20, 0xFF	; 255
    437c:	5f 4f       	sbci	r21, 0xFF	; 255
    437e:	20 78       	andi	r18, 0x80	; 128
    4380:	2d 87       	std	Y+13, r18	; 0x0d
    4382:	3e 87       	std	Y+14, r19	; 0x0e
    4384:	4f 87       	std	Y+15, r20	; 0x0f
    4386:	58 8b       	std	Y+16, r21	; 0x10
    4388:	be 01       	movw	r22, r28
    438a:	67 5f       	subi	r22, 0xF7	; 247
    438c:	7f 4f       	sbci	r23, 0xFF	; 255
    438e:	cb 01       	movw	r24, r22
    4390:	0e 94 a8 23 	call	0x4750	; 0x4750 <__pack_f>
    4394:	68 96       	adiw	r28, 0x18	; 24
    4396:	ea e0       	ldi	r30, 0x0A	; 10
    4398:	0c 94 95 25 	jmp	0x4b2a	; 0x4b2a <__epilogue_restores__+0x10>

0000439c <__gesf2>:
    439c:	a8 e1       	ldi	r26, 0x18	; 24
    439e:	b0 e0       	ldi	r27, 0x00	; 0
    43a0:	e4 ed       	ldi	r30, 0xD4	; 212
    43a2:	f1 e2       	ldi	r31, 0x21	; 33
    43a4:	0c 94 7d 25 	jmp	0x4afa	; 0x4afa <__prologue_saves__+0x18>
    43a8:	69 83       	std	Y+1, r22	; 0x01
    43aa:	7a 83       	std	Y+2, r23	; 0x02
    43ac:	8b 83       	std	Y+3, r24	; 0x03
    43ae:	9c 83       	std	Y+4, r25	; 0x04
    43b0:	2d 83       	std	Y+5, r18	; 0x05
    43b2:	3e 83       	std	Y+6, r19	; 0x06
    43b4:	4f 83       	std	Y+7, r20	; 0x07
    43b6:	58 87       	std	Y+8, r21	; 0x08
    43b8:	89 e0       	ldi	r24, 0x09	; 9
    43ba:	e8 2e       	mov	r14, r24
    43bc:	f1 2c       	mov	r15, r1
    43be:	ec 0e       	add	r14, r28
    43c0:	fd 1e       	adc	r15, r29
    43c2:	ce 01       	movw	r24, r28
    43c4:	01 96       	adiw	r24, 0x01	; 1
    43c6:	b7 01       	movw	r22, r14
    43c8:	0e 94 7e 24 	call	0x48fc	; 0x48fc <__unpack_f>
    43cc:	8e 01       	movw	r16, r28
    43ce:	0f 5e       	subi	r16, 0xEF	; 239
    43d0:	1f 4f       	sbci	r17, 0xFF	; 255
    43d2:	ce 01       	movw	r24, r28
    43d4:	05 96       	adiw	r24, 0x05	; 5
    43d6:	b8 01       	movw	r22, r16
    43d8:	0e 94 7e 24 	call	0x48fc	; 0x48fc <__unpack_f>
    43dc:	89 85       	ldd	r24, Y+9	; 0x09
    43de:	82 30       	cpi	r24, 0x02	; 2
    43e0:	40 f0       	brcs	.+16     	; 0x43f2 <__gesf2+0x56>
    43e2:	89 89       	ldd	r24, Y+17	; 0x11
    43e4:	82 30       	cpi	r24, 0x02	; 2
    43e6:	28 f0       	brcs	.+10     	; 0x43f2 <__gesf2+0x56>
    43e8:	c7 01       	movw	r24, r14
    43ea:	b8 01       	movw	r22, r16
    43ec:	0e 94 f6 24 	call	0x49ec	; 0x49ec <__fpcmp_parts_f>
    43f0:	01 c0       	rjmp	.+2      	; 0x43f4 <__gesf2+0x58>
    43f2:	8f ef       	ldi	r24, 0xFF	; 255
    43f4:	68 96       	adiw	r28, 0x18	; 24
    43f6:	e6 e0       	ldi	r30, 0x06	; 6
    43f8:	0c 94 99 25 	jmp	0x4b32	; 0x4b32 <__epilogue_restores__+0x18>

000043fc <__ltsf2>:
    43fc:	a8 e1       	ldi	r26, 0x18	; 24
    43fe:	b0 e0       	ldi	r27, 0x00	; 0
    4400:	e4 e0       	ldi	r30, 0x04	; 4
    4402:	f2 e2       	ldi	r31, 0x22	; 34
    4404:	0c 94 7d 25 	jmp	0x4afa	; 0x4afa <__prologue_saves__+0x18>
    4408:	69 83       	std	Y+1, r22	; 0x01
    440a:	7a 83       	std	Y+2, r23	; 0x02
    440c:	8b 83       	std	Y+3, r24	; 0x03
    440e:	9c 83       	std	Y+4, r25	; 0x04
    4410:	2d 83       	std	Y+5, r18	; 0x05
    4412:	3e 83       	std	Y+6, r19	; 0x06
    4414:	4f 83       	std	Y+7, r20	; 0x07
    4416:	58 87       	std	Y+8, r21	; 0x08
    4418:	89 e0       	ldi	r24, 0x09	; 9
    441a:	e8 2e       	mov	r14, r24
    441c:	f1 2c       	mov	r15, r1
    441e:	ec 0e       	add	r14, r28
    4420:	fd 1e       	adc	r15, r29
    4422:	ce 01       	movw	r24, r28
    4424:	01 96       	adiw	r24, 0x01	; 1
    4426:	b7 01       	movw	r22, r14
    4428:	0e 94 7e 24 	call	0x48fc	; 0x48fc <__unpack_f>
    442c:	8e 01       	movw	r16, r28
    442e:	0f 5e       	subi	r16, 0xEF	; 239
    4430:	1f 4f       	sbci	r17, 0xFF	; 255
    4432:	ce 01       	movw	r24, r28
    4434:	05 96       	adiw	r24, 0x05	; 5
    4436:	b8 01       	movw	r22, r16
    4438:	0e 94 7e 24 	call	0x48fc	; 0x48fc <__unpack_f>
    443c:	89 85       	ldd	r24, Y+9	; 0x09
    443e:	82 30       	cpi	r24, 0x02	; 2
    4440:	40 f0       	brcs	.+16     	; 0x4452 <__ltsf2+0x56>
    4442:	89 89       	ldd	r24, Y+17	; 0x11
    4444:	82 30       	cpi	r24, 0x02	; 2
    4446:	28 f0       	brcs	.+10     	; 0x4452 <__ltsf2+0x56>
    4448:	c7 01       	movw	r24, r14
    444a:	b8 01       	movw	r22, r16
    444c:	0e 94 f6 24 	call	0x49ec	; 0x49ec <__fpcmp_parts_f>
    4450:	01 c0       	rjmp	.+2      	; 0x4454 <__ltsf2+0x58>
    4452:	81 e0       	ldi	r24, 0x01	; 1
    4454:	68 96       	adiw	r28, 0x18	; 24
    4456:	e6 e0       	ldi	r30, 0x06	; 6
    4458:	0c 94 99 25 	jmp	0x4b32	; 0x4b32 <__epilogue_restores__+0x18>

0000445c <__floatsisf>:
    445c:	a8 e0       	ldi	r26, 0x08	; 8
    445e:	b0 e0       	ldi	r27, 0x00	; 0
    4460:	e4 e3       	ldi	r30, 0x34	; 52
    4462:	f2 e2       	ldi	r31, 0x22	; 34
    4464:	0c 94 7a 25 	jmp	0x4af4	; 0x4af4 <__prologue_saves__+0x12>
    4468:	9b 01       	movw	r18, r22
    446a:	ac 01       	movw	r20, r24
    446c:	83 e0       	ldi	r24, 0x03	; 3
    446e:	89 83       	std	Y+1, r24	; 0x01
    4470:	da 01       	movw	r26, r20
    4472:	c9 01       	movw	r24, r18
    4474:	88 27       	eor	r24, r24
    4476:	b7 fd       	sbrc	r27, 7
    4478:	83 95       	inc	r24
    447a:	99 27       	eor	r25, r25
    447c:	aa 27       	eor	r26, r26
    447e:	bb 27       	eor	r27, r27
    4480:	b8 2e       	mov	r11, r24
    4482:	21 15       	cp	r18, r1
    4484:	31 05       	cpc	r19, r1
    4486:	41 05       	cpc	r20, r1
    4488:	51 05       	cpc	r21, r1
    448a:	19 f4       	brne	.+6      	; 0x4492 <__floatsisf+0x36>
    448c:	82 e0       	ldi	r24, 0x02	; 2
    448e:	89 83       	std	Y+1, r24	; 0x01
    4490:	3a c0       	rjmp	.+116    	; 0x4506 <__floatsisf+0xaa>
    4492:	88 23       	and	r24, r24
    4494:	a9 f0       	breq	.+42     	; 0x44c0 <__floatsisf+0x64>
    4496:	20 30       	cpi	r18, 0x00	; 0
    4498:	80 e0       	ldi	r24, 0x00	; 0
    449a:	38 07       	cpc	r19, r24
    449c:	80 e0       	ldi	r24, 0x00	; 0
    449e:	48 07       	cpc	r20, r24
    44a0:	80 e8       	ldi	r24, 0x80	; 128
    44a2:	58 07       	cpc	r21, r24
    44a4:	29 f4       	brne	.+10     	; 0x44b0 <__floatsisf+0x54>
    44a6:	60 e0       	ldi	r22, 0x00	; 0
    44a8:	70 e0       	ldi	r23, 0x00	; 0
    44aa:	80 e0       	ldi	r24, 0x00	; 0
    44ac:	9f ec       	ldi	r25, 0xCF	; 207
    44ae:	30 c0       	rjmp	.+96     	; 0x4510 <__floatsisf+0xb4>
    44b0:	ee 24       	eor	r14, r14
    44b2:	ff 24       	eor	r15, r15
    44b4:	87 01       	movw	r16, r14
    44b6:	e2 1a       	sub	r14, r18
    44b8:	f3 0a       	sbc	r15, r19
    44ba:	04 0b       	sbc	r16, r20
    44bc:	15 0b       	sbc	r17, r21
    44be:	02 c0       	rjmp	.+4      	; 0x44c4 <__floatsisf+0x68>
    44c0:	79 01       	movw	r14, r18
    44c2:	8a 01       	movw	r16, r20
    44c4:	8e e1       	ldi	r24, 0x1E	; 30
    44c6:	c8 2e       	mov	r12, r24
    44c8:	d1 2c       	mov	r13, r1
    44ca:	dc 82       	std	Y+4, r13	; 0x04
    44cc:	cb 82       	std	Y+3, r12	; 0x03
    44ce:	ed 82       	std	Y+5, r14	; 0x05
    44d0:	fe 82       	std	Y+6, r15	; 0x06
    44d2:	0f 83       	std	Y+7, r16	; 0x07
    44d4:	18 87       	std	Y+8, r17	; 0x08
    44d6:	c8 01       	movw	r24, r16
    44d8:	b7 01       	movw	r22, r14
    44da:	0e 94 59 23 	call	0x46b2	; 0x46b2 <__clzsi2>
    44de:	01 97       	sbiw	r24, 0x01	; 1
    44e0:	18 16       	cp	r1, r24
    44e2:	19 06       	cpc	r1, r25
    44e4:	84 f4       	brge	.+32     	; 0x4506 <__floatsisf+0xaa>
    44e6:	08 2e       	mov	r0, r24
    44e8:	04 c0       	rjmp	.+8      	; 0x44f2 <__floatsisf+0x96>
    44ea:	ee 0c       	add	r14, r14
    44ec:	ff 1c       	adc	r15, r15
    44ee:	00 1f       	adc	r16, r16
    44f0:	11 1f       	adc	r17, r17
    44f2:	0a 94       	dec	r0
    44f4:	d2 f7       	brpl	.-12     	; 0x44ea <__floatsisf+0x8e>
    44f6:	ed 82       	std	Y+5, r14	; 0x05
    44f8:	fe 82       	std	Y+6, r15	; 0x06
    44fa:	0f 83       	std	Y+7, r16	; 0x07
    44fc:	18 87       	std	Y+8, r17	; 0x08
    44fe:	c8 1a       	sub	r12, r24
    4500:	d9 0a       	sbc	r13, r25
    4502:	dc 82       	std	Y+4, r13	; 0x04
    4504:	cb 82       	std	Y+3, r12	; 0x03
    4506:	ba 82       	std	Y+2, r11	; 0x02
    4508:	ce 01       	movw	r24, r28
    450a:	01 96       	adiw	r24, 0x01	; 1
    450c:	0e 94 a8 23 	call	0x4750	; 0x4750 <__pack_f>
    4510:	28 96       	adiw	r28, 0x08	; 8
    4512:	e9 e0       	ldi	r30, 0x09	; 9
    4514:	0c 94 96 25 	jmp	0x4b2c	; 0x4b2c <__epilogue_restores__+0x12>

00004518 <__fixsfsi>:
    4518:	ac e0       	ldi	r26, 0x0C	; 12
    451a:	b0 e0       	ldi	r27, 0x00	; 0
    451c:	e2 e9       	ldi	r30, 0x92	; 146
    451e:	f2 e2       	ldi	r31, 0x22	; 34
    4520:	0c 94 81 25 	jmp	0x4b02	; 0x4b02 <__prologue_saves__+0x20>
    4524:	69 83       	std	Y+1, r22	; 0x01
    4526:	7a 83       	std	Y+2, r23	; 0x02
    4528:	8b 83       	std	Y+3, r24	; 0x03
    452a:	9c 83       	std	Y+4, r25	; 0x04
    452c:	ce 01       	movw	r24, r28
    452e:	01 96       	adiw	r24, 0x01	; 1
    4530:	be 01       	movw	r22, r28
    4532:	6b 5f       	subi	r22, 0xFB	; 251
    4534:	7f 4f       	sbci	r23, 0xFF	; 255
    4536:	0e 94 7e 24 	call	0x48fc	; 0x48fc <__unpack_f>
    453a:	8d 81       	ldd	r24, Y+5	; 0x05
    453c:	82 30       	cpi	r24, 0x02	; 2
    453e:	61 f1       	breq	.+88     	; 0x4598 <__fixsfsi+0x80>
    4540:	82 30       	cpi	r24, 0x02	; 2
    4542:	50 f1       	brcs	.+84     	; 0x4598 <__fixsfsi+0x80>
    4544:	84 30       	cpi	r24, 0x04	; 4
    4546:	21 f4       	brne	.+8      	; 0x4550 <__fixsfsi+0x38>
    4548:	8e 81       	ldd	r24, Y+6	; 0x06
    454a:	88 23       	and	r24, r24
    454c:	51 f1       	breq	.+84     	; 0x45a2 <__fixsfsi+0x8a>
    454e:	2e c0       	rjmp	.+92     	; 0x45ac <__fixsfsi+0x94>
    4550:	2f 81       	ldd	r18, Y+7	; 0x07
    4552:	38 85       	ldd	r19, Y+8	; 0x08
    4554:	37 fd       	sbrc	r19, 7
    4556:	20 c0       	rjmp	.+64     	; 0x4598 <__fixsfsi+0x80>
    4558:	6e 81       	ldd	r22, Y+6	; 0x06
    455a:	2f 31       	cpi	r18, 0x1F	; 31
    455c:	31 05       	cpc	r19, r1
    455e:	1c f0       	brlt	.+6      	; 0x4566 <__fixsfsi+0x4e>
    4560:	66 23       	and	r22, r22
    4562:	f9 f0       	breq	.+62     	; 0x45a2 <__fixsfsi+0x8a>
    4564:	23 c0       	rjmp	.+70     	; 0x45ac <__fixsfsi+0x94>
    4566:	8e e1       	ldi	r24, 0x1E	; 30
    4568:	90 e0       	ldi	r25, 0x00	; 0
    456a:	82 1b       	sub	r24, r18
    456c:	93 0b       	sbc	r25, r19
    456e:	29 85       	ldd	r18, Y+9	; 0x09
    4570:	3a 85       	ldd	r19, Y+10	; 0x0a
    4572:	4b 85       	ldd	r20, Y+11	; 0x0b
    4574:	5c 85       	ldd	r21, Y+12	; 0x0c
    4576:	04 c0       	rjmp	.+8      	; 0x4580 <__fixsfsi+0x68>
    4578:	56 95       	lsr	r21
    457a:	47 95       	ror	r20
    457c:	37 95       	ror	r19
    457e:	27 95       	ror	r18
    4580:	8a 95       	dec	r24
    4582:	d2 f7       	brpl	.-12     	; 0x4578 <__fixsfsi+0x60>
    4584:	66 23       	and	r22, r22
    4586:	b1 f0       	breq	.+44     	; 0x45b4 <__fixsfsi+0x9c>
    4588:	50 95       	com	r21
    458a:	40 95       	com	r20
    458c:	30 95       	com	r19
    458e:	21 95       	neg	r18
    4590:	3f 4f       	sbci	r19, 0xFF	; 255
    4592:	4f 4f       	sbci	r20, 0xFF	; 255
    4594:	5f 4f       	sbci	r21, 0xFF	; 255
    4596:	0e c0       	rjmp	.+28     	; 0x45b4 <__fixsfsi+0x9c>
    4598:	20 e0       	ldi	r18, 0x00	; 0
    459a:	30 e0       	ldi	r19, 0x00	; 0
    459c:	40 e0       	ldi	r20, 0x00	; 0
    459e:	50 e0       	ldi	r21, 0x00	; 0
    45a0:	09 c0       	rjmp	.+18     	; 0x45b4 <__fixsfsi+0x9c>
    45a2:	2f ef       	ldi	r18, 0xFF	; 255
    45a4:	3f ef       	ldi	r19, 0xFF	; 255
    45a6:	4f ef       	ldi	r20, 0xFF	; 255
    45a8:	5f e7       	ldi	r21, 0x7F	; 127
    45aa:	04 c0       	rjmp	.+8      	; 0x45b4 <__fixsfsi+0x9c>
    45ac:	20 e0       	ldi	r18, 0x00	; 0
    45ae:	30 e0       	ldi	r19, 0x00	; 0
    45b0:	40 e0       	ldi	r20, 0x00	; 0
    45b2:	50 e8       	ldi	r21, 0x80	; 128
    45b4:	b9 01       	movw	r22, r18
    45b6:	ca 01       	movw	r24, r20
    45b8:	2c 96       	adiw	r28, 0x0c	; 12
    45ba:	e2 e0       	ldi	r30, 0x02	; 2
    45bc:	0c 94 9d 25 	jmp	0x4b3a	; 0x4b3a <__epilogue_restores__+0x20>

000045c0 <__floatunsisf>:
    45c0:	a8 e0       	ldi	r26, 0x08	; 8
    45c2:	b0 e0       	ldi	r27, 0x00	; 0
    45c4:	e6 ee       	ldi	r30, 0xE6	; 230
    45c6:	f2 e2       	ldi	r31, 0x22	; 34
    45c8:	0c 94 79 25 	jmp	0x4af2	; 0x4af2 <__prologue_saves__+0x10>
    45cc:	7b 01       	movw	r14, r22
    45ce:	8c 01       	movw	r16, r24
    45d0:	61 15       	cp	r22, r1
    45d2:	71 05       	cpc	r23, r1
    45d4:	81 05       	cpc	r24, r1
    45d6:	91 05       	cpc	r25, r1
    45d8:	19 f4       	brne	.+6      	; 0x45e0 <__floatunsisf+0x20>
    45da:	82 e0       	ldi	r24, 0x02	; 2
    45dc:	89 83       	std	Y+1, r24	; 0x01
    45de:	60 c0       	rjmp	.+192    	; 0x46a0 <__floatunsisf+0xe0>
    45e0:	83 e0       	ldi	r24, 0x03	; 3
    45e2:	89 83       	std	Y+1, r24	; 0x01
    45e4:	8e e1       	ldi	r24, 0x1E	; 30
    45e6:	c8 2e       	mov	r12, r24
    45e8:	d1 2c       	mov	r13, r1
    45ea:	dc 82       	std	Y+4, r13	; 0x04
    45ec:	cb 82       	std	Y+3, r12	; 0x03
    45ee:	ed 82       	std	Y+5, r14	; 0x05
    45f0:	fe 82       	std	Y+6, r15	; 0x06
    45f2:	0f 83       	std	Y+7, r16	; 0x07
    45f4:	18 87       	std	Y+8, r17	; 0x08
    45f6:	c8 01       	movw	r24, r16
    45f8:	b7 01       	movw	r22, r14
    45fa:	0e 94 59 23 	call	0x46b2	; 0x46b2 <__clzsi2>
    45fe:	fc 01       	movw	r30, r24
    4600:	31 97       	sbiw	r30, 0x01	; 1
    4602:	f7 ff       	sbrs	r31, 7
    4604:	3b c0       	rjmp	.+118    	; 0x467c <__floatunsisf+0xbc>
    4606:	22 27       	eor	r18, r18
    4608:	33 27       	eor	r19, r19
    460a:	2e 1b       	sub	r18, r30
    460c:	3f 0b       	sbc	r19, r31
    460e:	57 01       	movw	r10, r14
    4610:	68 01       	movw	r12, r16
    4612:	02 2e       	mov	r0, r18
    4614:	04 c0       	rjmp	.+8      	; 0x461e <__floatunsisf+0x5e>
    4616:	d6 94       	lsr	r13
    4618:	c7 94       	ror	r12
    461a:	b7 94       	ror	r11
    461c:	a7 94       	ror	r10
    461e:	0a 94       	dec	r0
    4620:	d2 f7       	brpl	.-12     	; 0x4616 <__floatunsisf+0x56>
    4622:	40 e0       	ldi	r20, 0x00	; 0
    4624:	50 e0       	ldi	r21, 0x00	; 0
    4626:	60 e0       	ldi	r22, 0x00	; 0
    4628:	70 e0       	ldi	r23, 0x00	; 0
    462a:	81 e0       	ldi	r24, 0x01	; 1
    462c:	90 e0       	ldi	r25, 0x00	; 0
    462e:	a0 e0       	ldi	r26, 0x00	; 0
    4630:	b0 e0       	ldi	r27, 0x00	; 0
    4632:	04 c0       	rjmp	.+8      	; 0x463c <__floatunsisf+0x7c>
    4634:	88 0f       	add	r24, r24
    4636:	99 1f       	adc	r25, r25
    4638:	aa 1f       	adc	r26, r26
    463a:	bb 1f       	adc	r27, r27
    463c:	2a 95       	dec	r18
    463e:	d2 f7       	brpl	.-12     	; 0x4634 <__floatunsisf+0x74>
    4640:	01 97       	sbiw	r24, 0x01	; 1
    4642:	a1 09       	sbc	r26, r1
    4644:	b1 09       	sbc	r27, r1
    4646:	8e 21       	and	r24, r14
    4648:	9f 21       	and	r25, r15
    464a:	a0 23       	and	r26, r16
    464c:	b1 23       	and	r27, r17
    464e:	00 97       	sbiw	r24, 0x00	; 0
    4650:	a1 05       	cpc	r26, r1
    4652:	b1 05       	cpc	r27, r1
    4654:	21 f0       	breq	.+8      	; 0x465e <__floatunsisf+0x9e>
    4656:	41 e0       	ldi	r20, 0x01	; 1
    4658:	50 e0       	ldi	r21, 0x00	; 0
    465a:	60 e0       	ldi	r22, 0x00	; 0
    465c:	70 e0       	ldi	r23, 0x00	; 0
    465e:	4a 29       	or	r20, r10
    4660:	5b 29       	or	r21, r11
    4662:	6c 29       	or	r22, r12
    4664:	7d 29       	or	r23, r13
    4666:	4d 83       	std	Y+5, r20	; 0x05
    4668:	5e 83       	std	Y+6, r21	; 0x06
    466a:	6f 83       	std	Y+7, r22	; 0x07
    466c:	78 87       	std	Y+8, r23	; 0x08
    466e:	8e e1       	ldi	r24, 0x1E	; 30
    4670:	90 e0       	ldi	r25, 0x00	; 0
    4672:	8e 1b       	sub	r24, r30
    4674:	9f 0b       	sbc	r25, r31
    4676:	9c 83       	std	Y+4, r25	; 0x04
    4678:	8b 83       	std	Y+3, r24	; 0x03
    467a:	12 c0       	rjmp	.+36     	; 0x46a0 <__floatunsisf+0xe0>
    467c:	30 97       	sbiw	r30, 0x00	; 0
    467e:	81 f0       	breq	.+32     	; 0x46a0 <__floatunsisf+0xe0>
    4680:	0e 2e       	mov	r0, r30
    4682:	04 c0       	rjmp	.+8      	; 0x468c <__floatunsisf+0xcc>
    4684:	ee 0c       	add	r14, r14
    4686:	ff 1c       	adc	r15, r15
    4688:	00 1f       	adc	r16, r16
    468a:	11 1f       	adc	r17, r17
    468c:	0a 94       	dec	r0
    468e:	d2 f7       	brpl	.-12     	; 0x4684 <__floatunsisf+0xc4>
    4690:	ed 82       	std	Y+5, r14	; 0x05
    4692:	fe 82       	std	Y+6, r15	; 0x06
    4694:	0f 83       	std	Y+7, r16	; 0x07
    4696:	18 87       	std	Y+8, r17	; 0x08
    4698:	ce 1a       	sub	r12, r30
    469a:	df 0a       	sbc	r13, r31
    469c:	dc 82       	std	Y+4, r13	; 0x04
    469e:	cb 82       	std	Y+3, r12	; 0x03
    46a0:	1a 82       	std	Y+2, r1	; 0x02
    46a2:	ce 01       	movw	r24, r28
    46a4:	01 96       	adiw	r24, 0x01	; 1
    46a6:	0e 94 a8 23 	call	0x4750	; 0x4750 <__pack_f>
    46aa:	28 96       	adiw	r28, 0x08	; 8
    46ac:	ea e0       	ldi	r30, 0x0A	; 10
    46ae:	0c 94 95 25 	jmp	0x4b2a	; 0x4b2a <__epilogue_restores__+0x10>

000046b2 <__clzsi2>:
    46b2:	ef 92       	push	r14
    46b4:	ff 92       	push	r15
    46b6:	0f 93       	push	r16
    46b8:	1f 93       	push	r17
    46ba:	7b 01       	movw	r14, r22
    46bc:	8c 01       	movw	r16, r24
    46be:	80 e0       	ldi	r24, 0x00	; 0
    46c0:	e8 16       	cp	r14, r24
    46c2:	80 e0       	ldi	r24, 0x00	; 0
    46c4:	f8 06       	cpc	r15, r24
    46c6:	81 e0       	ldi	r24, 0x01	; 1
    46c8:	08 07       	cpc	r16, r24
    46ca:	80 e0       	ldi	r24, 0x00	; 0
    46cc:	18 07       	cpc	r17, r24
    46ce:	88 f4       	brcc	.+34     	; 0x46f2 <__clzsi2+0x40>
    46d0:	8f ef       	ldi	r24, 0xFF	; 255
    46d2:	e8 16       	cp	r14, r24
    46d4:	f1 04       	cpc	r15, r1
    46d6:	01 05       	cpc	r16, r1
    46d8:	11 05       	cpc	r17, r1
    46da:	31 f0       	breq	.+12     	; 0x46e8 <__clzsi2+0x36>
    46dc:	28 f0       	brcs	.+10     	; 0x46e8 <__clzsi2+0x36>
    46de:	88 e0       	ldi	r24, 0x08	; 8
    46e0:	90 e0       	ldi	r25, 0x00	; 0
    46e2:	a0 e0       	ldi	r26, 0x00	; 0
    46e4:	b0 e0       	ldi	r27, 0x00	; 0
    46e6:	17 c0       	rjmp	.+46     	; 0x4716 <__clzsi2+0x64>
    46e8:	80 e0       	ldi	r24, 0x00	; 0
    46ea:	90 e0       	ldi	r25, 0x00	; 0
    46ec:	a0 e0       	ldi	r26, 0x00	; 0
    46ee:	b0 e0       	ldi	r27, 0x00	; 0
    46f0:	12 c0       	rjmp	.+36     	; 0x4716 <__clzsi2+0x64>
    46f2:	80 e0       	ldi	r24, 0x00	; 0
    46f4:	e8 16       	cp	r14, r24
    46f6:	80 e0       	ldi	r24, 0x00	; 0
    46f8:	f8 06       	cpc	r15, r24
    46fa:	80 e0       	ldi	r24, 0x00	; 0
    46fc:	08 07       	cpc	r16, r24
    46fe:	81 e0       	ldi	r24, 0x01	; 1
    4700:	18 07       	cpc	r17, r24
    4702:	28 f0       	brcs	.+10     	; 0x470e <__clzsi2+0x5c>
    4704:	88 e1       	ldi	r24, 0x18	; 24
    4706:	90 e0       	ldi	r25, 0x00	; 0
    4708:	a0 e0       	ldi	r26, 0x00	; 0
    470a:	b0 e0       	ldi	r27, 0x00	; 0
    470c:	04 c0       	rjmp	.+8      	; 0x4716 <__clzsi2+0x64>
    470e:	80 e1       	ldi	r24, 0x10	; 16
    4710:	90 e0       	ldi	r25, 0x00	; 0
    4712:	a0 e0       	ldi	r26, 0x00	; 0
    4714:	b0 e0       	ldi	r27, 0x00	; 0
    4716:	20 e2       	ldi	r18, 0x20	; 32
    4718:	30 e0       	ldi	r19, 0x00	; 0
    471a:	40 e0       	ldi	r20, 0x00	; 0
    471c:	50 e0       	ldi	r21, 0x00	; 0
    471e:	28 1b       	sub	r18, r24
    4720:	39 0b       	sbc	r19, r25
    4722:	4a 0b       	sbc	r20, r26
    4724:	5b 0b       	sbc	r21, r27
    4726:	04 c0       	rjmp	.+8      	; 0x4730 <__clzsi2+0x7e>
    4728:	16 95       	lsr	r17
    472a:	07 95       	ror	r16
    472c:	f7 94       	ror	r15
    472e:	e7 94       	ror	r14
    4730:	8a 95       	dec	r24
    4732:	d2 f7       	brpl	.-12     	; 0x4728 <__clzsi2+0x76>
    4734:	f7 01       	movw	r30, r14
    4736:	ed 5c       	subi	r30, 0xCD	; 205
    4738:	fe 4f       	sbci	r31, 0xFE	; 254
    473a:	80 81       	ld	r24, Z
    473c:	28 1b       	sub	r18, r24
    473e:	31 09       	sbc	r19, r1
    4740:	41 09       	sbc	r20, r1
    4742:	51 09       	sbc	r21, r1
    4744:	c9 01       	movw	r24, r18
    4746:	1f 91       	pop	r17
    4748:	0f 91       	pop	r16
    474a:	ff 90       	pop	r15
    474c:	ef 90       	pop	r14
    474e:	08 95       	ret

00004750 <__pack_f>:
    4750:	df 92       	push	r13
    4752:	ef 92       	push	r14
    4754:	ff 92       	push	r15
    4756:	0f 93       	push	r16
    4758:	1f 93       	push	r17
    475a:	fc 01       	movw	r30, r24
    475c:	e4 80       	ldd	r14, Z+4	; 0x04
    475e:	f5 80       	ldd	r15, Z+5	; 0x05
    4760:	06 81       	ldd	r16, Z+6	; 0x06
    4762:	17 81       	ldd	r17, Z+7	; 0x07
    4764:	d1 80       	ldd	r13, Z+1	; 0x01
    4766:	80 81       	ld	r24, Z
    4768:	82 30       	cpi	r24, 0x02	; 2
    476a:	58 f4       	brcc	.+22     	; 0x4782 <__pack_f+0x32>
    476c:	80 e0       	ldi	r24, 0x00	; 0
    476e:	90 e0       	ldi	r25, 0x00	; 0
    4770:	a0 e1       	ldi	r26, 0x10	; 16
    4772:	b0 e0       	ldi	r27, 0x00	; 0
    4774:	e8 2a       	or	r14, r24
    4776:	f9 2a       	or	r15, r25
    4778:	0a 2b       	or	r16, r26
    477a:	1b 2b       	or	r17, r27
    477c:	ef ef       	ldi	r30, 0xFF	; 255
    477e:	f0 e0       	ldi	r31, 0x00	; 0
    4780:	a6 c0       	rjmp	.+332    	; 0x48ce <__pack_f+0x17e>
    4782:	84 30       	cpi	r24, 0x04	; 4
    4784:	09 f4       	brne	.+2      	; 0x4788 <__pack_f+0x38>
    4786:	9e c0       	rjmp	.+316    	; 0x48c4 <__pack_f+0x174>
    4788:	82 30       	cpi	r24, 0x02	; 2
    478a:	19 f4       	brne	.+6      	; 0x4792 <__pack_f+0x42>
    478c:	e0 e0       	ldi	r30, 0x00	; 0
    478e:	f0 e0       	ldi	r31, 0x00	; 0
    4790:	9b c0       	rjmp	.+310    	; 0x48c8 <__pack_f+0x178>
    4792:	e1 14       	cp	r14, r1
    4794:	f1 04       	cpc	r15, r1
    4796:	01 05       	cpc	r16, r1
    4798:	11 05       	cpc	r17, r1
    479a:	19 f4       	brne	.+6      	; 0x47a2 <__pack_f+0x52>
    479c:	e0 e0       	ldi	r30, 0x00	; 0
    479e:	f0 e0       	ldi	r31, 0x00	; 0
    47a0:	96 c0       	rjmp	.+300    	; 0x48ce <__pack_f+0x17e>
    47a2:	62 81       	ldd	r22, Z+2	; 0x02
    47a4:	73 81       	ldd	r23, Z+3	; 0x03
    47a6:	9f ef       	ldi	r25, 0xFF	; 255
    47a8:	62 38       	cpi	r22, 0x82	; 130
    47aa:	79 07       	cpc	r23, r25
    47ac:	0c f0       	brlt	.+2      	; 0x47b0 <__pack_f+0x60>
    47ae:	5b c0       	rjmp	.+182    	; 0x4866 <__pack_f+0x116>
    47b0:	22 e8       	ldi	r18, 0x82	; 130
    47b2:	3f ef       	ldi	r19, 0xFF	; 255
    47b4:	26 1b       	sub	r18, r22
    47b6:	37 0b       	sbc	r19, r23
    47b8:	2a 31       	cpi	r18, 0x1A	; 26
    47ba:	31 05       	cpc	r19, r1
    47bc:	2c f0       	brlt	.+10     	; 0x47c8 <__pack_f+0x78>
    47be:	20 e0       	ldi	r18, 0x00	; 0
    47c0:	30 e0       	ldi	r19, 0x00	; 0
    47c2:	40 e0       	ldi	r20, 0x00	; 0
    47c4:	50 e0       	ldi	r21, 0x00	; 0
    47c6:	2a c0       	rjmp	.+84     	; 0x481c <__pack_f+0xcc>
    47c8:	b8 01       	movw	r22, r16
    47ca:	a7 01       	movw	r20, r14
    47cc:	02 2e       	mov	r0, r18
    47ce:	04 c0       	rjmp	.+8      	; 0x47d8 <__pack_f+0x88>
    47d0:	76 95       	lsr	r23
    47d2:	67 95       	ror	r22
    47d4:	57 95       	ror	r21
    47d6:	47 95       	ror	r20
    47d8:	0a 94       	dec	r0
    47da:	d2 f7       	brpl	.-12     	; 0x47d0 <__pack_f+0x80>
    47dc:	81 e0       	ldi	r24, 0x01	; 1
    47de:	90 e0       	ldi	r25, 0x00	; 0
    47e0:	a0 e0       	ldi	r26, 0x00	; 0
    47e2:	b0 e0       	ldi	r27, 0x00	; 0
    47e4:	04 c0       	rjmp	.+8      	; 0x47ee <__pack_f+0x9e>
    47e6:	88 0f       	add	r24, r24
    47e8:	99 1f       	adc	r25, r25
    47ea:	aa 1f       	adc	r26, r26
    47ec:	bb 1f       	adc	r27, r27
    47ee:	2a 95       	dec	r18
    47f0:	d2 f7       	brpl	.-12     	; 0x47e6 <__pack_f+0x96>
    47f2:	01 97       	sbiw	r24, 0x01	; 1
    47f4:	a1 09       	sbc	r26, r1
    47f6:	b1 09       	sbc	r27, r1
    47f8:	8e 21       	and	r24, r14
    47fa:	9f 21       	and	r25, r15
    47fc:	a0 23       	and	r26, r16
    47fe:	b1 23       	and	r27, r17
    4800:	00 97       	sbiw	r24, 0x00	; 0
    4802:	a1 05       	cpc	r26, r1
    4804:	b1 05       	cpc	r27, r1
    4806:	21 f0       	breq	.+8      	; 0x4810 <__pack_f+0xc0>
    4808:	81 e0       	ldi	r24, 0x01	; 1
    480a:	90 e0       	ldi	r25, 0x00	; 0
    480c:	a0 e0       	ldi	r26, 0x00	; 0
    480e:	b0 e0       	ldi	r27, 0x00	; 0
    4810:	9a 01       	movw	r18, r20
    4812:	ab 01       	movw	r20, r22
    4814:	28 2b       	or	r18, r24
    4816:	39 2b       	or	r19, r25
    4818:	4a 2b       	or	r20, r26
    481a:	5b 2b       	or	r21, r27
    481c:	da 01       	movw	r26, r20
    481e:	c9 01       	movw	r24, r18
    4820:	8f 77       	andi	r24, 0x7F	; 127
    4822:	90 70       	andi	r25, 0x00	; 0
    4824:	a0 70       	andi	r26, 0x00	; 0
    4826:	b0 70       	andi	r27, 0x00	; 0
    4828:	80 34       	cpi	r24, 0x40	; 64
    482a:	91 05       	cpc	r25, r1
    482c:	a1 05       	cpc	r26, r1
    482e:	b1 05       	cpc	r27, r1
    4830:	39 f4       	brne	.+14     	; 0x4840 <__pack_f+0xf0>
    4832:	27 ff       	sbrs	r18, 7
    4834:	09 c0       	rjmp	.+18     	; 0x4848 <__pack_f+0xf8>
    4836:	20 5c       	subi	r18, 0xC0	; 192
    4838:	3f 4f       	sbci	r19, 0xFF	; 255
    483a:	4f 4f       	sbci	r20, 0xFF	; 255
    483c:	5f 4f       	sbci	r21, 0xFF	; 255
    483e:	04 c0       	rjmp	.+8      	; 0x4848 <__pack_f+0xf8>
    4840:	21 5c       	subi	r18, 0xC1	; 193
    4842:	3f 4f       	sbci	r19, 0xFF	; 255
    4844:	4f 4f       	sbci	r20, 0xFF	; 255
    4846:	5f 4f       	sbci	r21, 0xFF	; 255
    4848:	e0 e0       	ldi	r30, 0x00	; 0
    484a:	f0 e0       	ldi	r31, 0x00	; 0
    484c:	20 30       	cpi	r18, 0x00	; 0
    484e:	a0 e0       	ldi	r26, 0x00	; 0
    4850:	3a 07       	cpc	r19, r26
    4852:	a0 e0       	ldi	r26, 0x00	; 0
    4854:	4a 07       	cpc	r20, r26
    4856:	a0 e4       	ldi	r26, 0x40	; 64
    4858:	5a 07       	cpc	r21, r26
    485a:	10 f0       	brcs	.+4      	; 0x4860 <__pack_f+0x110>
    485c:	e1 e0       	ldi	r30, 0x01	; 1
    485e:	f0 e0       	ldi	r31, 0x00	; 0
    4860:	79 01       	movw	r14, r18
    4862:	8a 01       	movw	r16, r20
    4864:	27 c0       	rjmp	.+78     	; 0x48b4 <__pack_f+0x164>
    4866:	60 38       	cpi	r22, 0x80	; 128
    4868:	71 05       	cpc	r23, r1
    486a:	64 f5       	brge	.+88     	; 0x48c4 <__pack_f+0x174>
    486c:	fb 01       	movw	r30, r22
    486e:	e1 58       	subi	r30, 0x81	; 129
    4870:	ff 4f       	sbci	r31, 0xFF	; 255
    4872:	d8 01       	movw	r26, r16
    4874:	c7 01       	movw	r24, r14
    4876:	8f 77       	andi	r24, 0x7F	; 127
    4878:	90 70       	andi	r25, 0x00	; 0
    487a:	a0 70       	andi	r26, 0x00	; 0
    487c:	b0 70       	andi	r27, 0x00	; 0
    487e:	80 34       	cpi	r24, 0x40	; 64
    4880:	91 05       	cpc	r25, r1
    4882:	a1 05       	cpc	r26, r1
    4884:	b1 05       	cpc	r27, r1
    4886:	39 f4       	brne	.+14     	; 0x4896 <__pack_f+0x146>
    4888:	e7 fe       	sbrs	r14, 7
    488a:	0d c0       	rjmp	.+26     	; 0x48a6 <__pack_f+0x156>
    488c:	80 e4       	ldi	r24, 0x40	; 64
    488e:	90 e0       	ldi	r25, 0x00	; 0
    4890:	a0 e0       	ldi	r26, 0x00	; 0
    4892:	b0 e0       	ldi	r27, 0x00	; 0
    4894:	04 c0       	rjmp	.+8      	; 0x489e <__pack_f+0x14e>
    4896:	8f e3       	ldi	r24, 0x3F	; 63
    4898:	90 e0       	ldi	r25, 0x00	; 0
    489a:	a0 e0       	ldi	r26, 0x00	; 0
    489c:	b0 e0       	ldi	r27, 0x00	; 0
    489e:	e8 0e       	add	r14, r24
    48a0:	f9 1e       	adc	r15, r25
    48a2:	0a 1f       	adc	r16, r26
    48a4:	1b 1f       	adc	r17, r27
    48a6:	17 ff       	sbrs	r17, 7
    48a8:	05 c0       	rjmp	.+10     	; 0x48b4 <__pack_f+0x164>
    48aa:	16 95       	lsr	r17
    48ac:	07 95       	ror	r16
    48ae:	f7 94       	ror	r15
    48b0:	e7 94       	ror	r14
    48b2:	31 96       	adiw	r30, 0x01	; 1
    48b4:	87 e0       	ldi	r24, 0x07	; 7
    48b6:	16 95       	lsr	r17
    48b8:	07 95       	ror	r16
    48ba:	f7 94       	ror	r15
    48bc:	e7 94       	ror	r14
    48be:	8a 95       	dec	r24
    48c0:	d1 f7       	brne	.-12     	; 0x48b6 <__pack_f+0x166>
    48c2:	05 c0       	rjmp	.+10     	; 0x48ce <__pack_f+0x17e>
    48c4:	ef ef       	ldi	r30, 0xFF	; 255
    48c6:	f0 e0       	ldi	r31, 0x00	; 0
    48c8:	ee 24       	eor	r14, r14
    48ca:	ff 24       	eor	r15, r15
    48cc:	87 01       	movw	r16, r14
    48ce:	6e 2f       	mov	r22, r30
    48d0:	67 95       	ror	r22
    48d2:	66 27       	eor	r22, r22
    48d4:	67 95       	ror	r22
    48d6:	90 2f       	mov	r25, r16
    48d8:	9f 77       	andi	r25, 0x7F	; 127
    48da:	d7 94       	ror	r13
    48dc:	dd 24       	eor	r13, r13
    48de:	d7 94       	ror	r13
    48e0:	8e 2f       	mov	r24, r30
    48e2:	86 95       	lsr	r24
    48e4:	49 2f       	mov	r20, r25
    48e6:	46 2b       	or	r20, r22
    48e8:	58 2f       	mov	r21, r24
    48ea:	5d 29       	or	r21, r13
    48ec:	b7 01       	movw	r22, r14
    48ee:	ca 01       	movw	r24, r20
    48f0:	1f 91       	pop	r17
    48f2:	0f 91       	pop	r16
    48f4:	ff 90       	pop	r15
    48f6:	ef 90       	pop	r14
    48f8:	df 90       	pop	r13
    48fa:	08 95       	ret

000048fc <__unpack_f>:
    48fc:	fc 01       	movw	r30, r24
    48fe:	db 01       	movw	r26, r22
    4900:	40 81       	ld	r20, Z
    4902:	51 81       	ldd	r21, Z+1	; 0x01
    4904:	22 81       	ldd	r18, Z+2	; 0x02
    4906:	62 2f       	mov	r22, r18
    4908:	6f 77       	andi	r22, 0x7F	; 127
    490a:	70 e0       	ldi	r23, 0x00	; 0
    490c:	22 1f       	adc	r18, r18
    490e:	22 27       	eor	r18, r18
    4910:	22 1f       	adc	r18, r18
    4912:	93 81       	ldd	r25, Z+3	; 0x03
    4914:	89 2f       	mov	r24, r25
    4916:	88 0f       	add	r24, r24
    4918:	82 2b       	or	r24, r18
    491a:	28 2f       	mov	r18, r24
    491c:	30 e0       	ldi	r19, 0x00	; 0
    491e:	99 1f       	adc	r25, r25
    4920:	99 27       	eor	r25, r25
    4922:	99 1f       	adc	r25, r25
    4924:	11 96       	adiw	r26, 0x01	; 1
    4926:	9c 93       	st	X, r25
    4928:	11 97       	sbiw	r26, 0x01	; 1
    492a:	21 15       	cp	r18, r1
    492c:	31 05       	cpc	r19, r1
    492e:	a9 f5       	brne	.+106    	; 0x499a <__unpack_f+0x9e>
    4930:	41 15       	cp	r20, r1
    4932:	51 05       	cpc	r21, r1
    4934:	61 05       	cpc	r22, r1
    4936:	71 05       	cpc	r23, r1
    4938:	11 f4       	brne	.+4      	; 0x493e <__unpack_f+0x42>
    493a:	82 e0       	ldi	r24, 0x02	; 2
    493c:	37 c0       	rjmp	.+110    	; 0x49ac <__unpack_f+0xb0>
    493e:	82 e8       	ldi	r24, 0x82	; 130
    4940:	9f ef       	ldi	r25, 0xFF	; 255
    4942:	13 96       	adiw	r26, 0x03	; 3
    4944:	9c 93       	st	X, r25
    4946:	8e 93       	st	-X, r24
    4948:	12 97       	sbiw	r26, 0x02	; 2
    494a:	9a 01       	movw	r18, r20
    494c:	ab 01       	movw	r20, r22
    494e:	67 e0       	ldi	r22, 0x07	; 7
    4950:	22 0f       	add	r18, r18
    4952:	33 1f       	adc	r19, r19
    4954:	44 1f       	adc	r20, r20
    4956:	55 1f       	adc	r21, r21
    4958:	6a 95       	dec	r22
    495a:	d1 f7       	brne	.-12     	; 0x4950 <__unpack_f+0x54>
    495c:	83 e0       	ldi	r24, 0x03	; 3
    495e:	8c 93       	st	X, r24
    4960:	0d c0       	rjmp	.+26     	; 0x497c <__unpack_f+0x80>
    4962:	22 0f       	add	r18, r18
    4964:	33 1f       	adc	r19, r19
    4966:	44 1f       	adc	r20, r20
    4968:	55 1f       	adc	r21, r21
    496a:	12 96       	adiw	r26, 0x02	; 2
    496c:	8d 91       	ld	r24, X+
    496e:	9c 91       	ld	r25, X
    4970:	13 97       	sbiw	r26, 0x03	; 3
    4972:	01 97       	sbiw	r24, 0x01	; 1
    4974:	13 96       	adiw	r26, 0x03	; 3
    4976:	9c 93       	st	X, r25
    4978:	8e 93       	st	-X, r24
    497a:	12 97       	sbiw	r26, 0x02	; 2
    497c:	20 30       	cpi	r18, 0x00	; 0
    497e:	80 e0       	ldi	r24, 0x00	; 0
    4980:	38 07       	cpc	r19, r24
    4982:	80 e0       	ldi	r24, 0x00	; 0
    4984:	48 07       	cpc	r20, r24
    4986:	80 e4       	ldi	r24, 0x40	; 64
    4988:	58 07       	cpc	r21, r24
    498a:	58 f3       	brcs	.-42     	; 0x4962 <__unpack_f+0x66>
    498c:	14 96       	adiw	r26, 0x04	; 4
    498e:	2d 93       	st	X+, r18
    4990:	3d 93       	st	X+, r19
    4992:	4d 93       	st	X+, r20
    4994:	5c 93       	st	X, r21
    4996:	17 97       	sbiw	r26, 0x07	; 7
    4998:	08 95       	ret
    499a:	2f 3f       	cpi	r18, 0xFF	; 255
    499c:	31 05       	cpc	r19, r1
    499e:	79 f4       	brne	.+30     	; 0x49be <__unpack_f+0xc2>
    49a0:	41 15       	cp	r20, r1
    49a2:	51 05       	cpc	r21, r1
    49a4:	61 05       	cpc	r22, r1
    49a6:	71 05       	cpc	r23, r1
    49a8:	19 f4       	brne	.+6      	; 0x49b0 <__unpack_f+0xb4>
    49aa:	84 e0       	ldi	r24, 0x04	; 4
    49ac:	8c 93       	st	X, r24
    49ae:	08 95       	ret
    49b0:	64 ff       	sbrs	r22, 4
    49b2:	03 c0       	rjmp	.+6      	; 0x49ba <__unpack_f+0xbe>
    49b4:	81 e0       	ldi	r24, 0x01	; 1
    49b6:	8c 93       	st	X, r24
    49b8:	12 c0       	rjmp	.+36     	; 0x49de <__unpack_f+0xe2>
    49ba:	1c 92       	st	X, r1
    49bc:	10 c0       	rjmp	.+32     	; 0x49de <__unpack_f+0xe2>
    49be:	2f 57       	subi	r18, 0x7F	; 127
    49c0:	30 40       	sbci	r19, 0x00	; 0
    49c2:	13 96       	adiw	r26, 0x03	; 3
    49c4:	3c 93       	st	X, r19
    49c6:	2e 93       	st	-X, r18
    49c8:	12 97       	sbiw	r26, 0x02	; 2
    49ca:	83 e0       	ldi	r24, 0x03	; 3
    49cc:	8c 93       	st	X, r24
    49ce:	87 e0       	ldi	r24, 0x07	; 7
    49d0:	44 0f       	add	r20, r20
    49d2:	55 1f       	adc	r21, r21
    49d4:	66 1f       	adc	r22, r22
    49d6:	77 1f       	adc	r23, r23
    49d8:	8a 95       	dec	r24
    49da:	d1 f7       	brne	.-12     	; 0x49d0 <__unpack_f+0xd4>
    49dc:	70 64       	ori	r23, 0x40	; 64
    49de:	14 96       	adiw	r26, 0x04	; 4
    49e0:	4d 93       	st	X+, r20
    49e2:	5d 93       	st	X+, r21
    49e4:	6d 93       	st	X+, r22
    49e6:	7c 93       	st	X, r23
    49e8:	17 97       	sbiw	r26, 0x07	; 7
    49ea:	08 95       	ret

000049ec <__fpcmp_parts_f>:
    49ec:	1f 93       	push	r17
    49ee:	dc 01       	movw	r26, r24
    49f0:	fb 01       	movw	r30, r22
    49f2:	9c 91       	ld	r25, X
    49f4:	92 30       	cpi	r25, 0x02	; 2
    49f6:	08 f4       	brcc	.+2      	; 0x49fa <__fpcmp_parts_f+0xe>
    49f8:	47 c0       	rjmp	.+142    	; 0x4a88 <__fpcmp_parts_f+0x9c>
    49fa:	80 81       	ld	r24, Z
    49fc:	82 30       	cpi	r24, 0x02	; 2
    49fe:	08 f4       	brcc	.+2      	; 0x4a02 <__fpcmp_parts_f+0x16>
    4a00:	43 c0       	rjmp	.+134    	; 0x4a88 <__fpcmp_parts_f+0x9c>
    4a02:	94 30       	cpi	r25, 0x04	; 4
    4a04:	51 f4       	brne	.+20     	; 0x4a1a <__fpcmp_parts_f+0x2e>
    4a06:	11 96       	adiw	r26, 0x01	; 1
    4a08:	1c 91       	ld	r17, X
    4a0a:	84 30       	cpi	r24, 0x04	; 4
    4a0c:	99 f5       	brne	.+102    	; 0x4a74 <__fpcmp_parts_f+0x88>
    4a0e:	81 81       	ldd	r24, Z+1	; 0x01
    4a10:	68 2f       	mov	r22, r24
    4a12:	70 e0       	ldi	r23, 0x00	; 0
    4a14:	61 1b       	sub	r22, r17
    4a16:	71 09       	sbc	r23, r1
    4a18:	3f c0       	rjmp	.+126    	; 0x4a98 <__fpcmp_parts_f+0xac>
    4a1a:	84 30       	cpi	r24, 0x04	; 4
    4a1c:	21 f0       	breq	.+8      	; 0x4a26 <__fpcmp_parts_f+0x3a>
    4a1e:	92 30       	cpi	r25, 0x02	; 2
    4a20:	31 f4       	brne	.+12     	; 0x4a2e <__fpcmp_parts_f+0x42>
    4a22:	82 30       	cpi	r24, 0x02	; 2
    4a24:	b9 f1       	breq	.+110    	; 0x4a94 <__fpcmp_parts_f+0xa8>
    4a26:	81 81       	ldd	r24, Z+1	; 0x01
    4a28:	88 23       	and	r24, r24
    4a2a:	89 f1       	breq	.+98     	; 0x4a8e <__fpcmp_parts_f+0xa2>
    4a2c:	2d c0       	rjmp	.+90     	; 0x4a88 <__fpcmp_parts_f+0x9c>
    4a2e:	11 96       	adiw	r26, 0x01	; 1
    4a30:	1c 91       	ld	r17, X
    4a32:	11 97       	sbiw	r26, 0x01	; 1
    4a34:	82 30       	cpi	r24, 0x02	; 2
    4a36:	f1 f0       	breq	.+60     	; 0x4a74 <__fpcmp_parts_f+0x88>
    4a38:	81 81       	ldd	r24, Z+1	; 0x01
    4a3a:	18 17       	cp	r17, r24
    4a3c:	d9 f4       	brne	.+54     	; 0x4a74 <__fpcmp_parts_f+0x88>
    4a3e:	12 96       	adiw	r26, 0x02	; 2
    4a40:	2d 91       	ld	r18, X+
    4a42:	3c 91       	ld	r19, X
    4a44:	13 97       	sbiw	r26, 0x03	; 3
    4a46:	82 81       	ldd	r24, Z+2	; 0x02
    4a48:	93 81       	ldd	r25, Z+3	; 0x03
    4a4a:	82 17       	cp	r24, r18
    4a4c:	93 07       	cpc	r25, r19
    4a4e:	94 f0       	brlt	.+36     	; 0x4a74 <__fpcmp_parts_f+0x88>
    4a50:	28 17       	cp	r18, r24
    4a52:	39 07       	cpc	r19, r25
    4a54:	bc f0       	brlt	.+46     	; 0x4a84 <__fpcmp_parts_f+0x98>
    4a56:	14 96       	adiw	r26, 0x04	; 4
    4a58:	8d 91       	ld	r24, X+
    4a5a:	9d 91       	ld	r25, X+
    4a5c:	0d 90       	ld	r0, X+
    4a5e:	bc 91       	ld	r27, X
    4a60:	a0 2d       	mov	r26, r0
    4a62:	24 81       	ldd	r18, Z+4	; 0x04
    4a64:	35 81       	ldd	r19, Z+5	; 0x05
    4a66:	46 81       	ldd	r20, Z+6	; 0x06
    4a68:	57 81       	ldd	r21, Z+7	; 0x07
    4a6a:	28 17       	cp	r18, r24
    4a6c:	39 07       	cpc	r19, r25
    4a6e:	4a 07       	cpc	r20, r26
    4a70:	5b 07       	cpc	r21, r27
    4a72:	18 f4       	brcc	.+6      	; 0x4a7a <__fpcmp_parts_f+0x8e>
    4a74:	11 23       	and	r17, r17
    4a76:	41 f0       	breq	.+16     	; 0x4a88 <__fpcmp_parts_f+0x9c>
    4a78:	0a c0       	rjmp	.+20     	; 0x4a8e <__fpcmp_parts_f+0xa2>
    4a7a:	82 17       	cp	r24, r18
    4a7c:	93 07       	cpc	r25, r19
    4a7e:	a4 07       	cpc	r26, r20
    4a80:	b5 07       	cpc	r27, r21
    4a82:	40 f4       	brcc	.+16     	; 0x4a94 <__fpcmp_parts_f+0xa8>
    4a84:	11 23       	and	r17, r17
    4a86:	19 f0       	breq	.+6      	; 0x4a8e <__fpcmp_parts_f+0xa2>
    4a88:	61 e0       	ldi	r22, 0x01	; 1
    4a8a:	70 e0       	ldi	r23, 0x00	; 0
    4a8c:	05 c0       	rjmp	.+10     	; 0x4a98 <__fpcmp_parts_f+0xac>
    4a8e:	6f ef       	ldi	r22, 0xFF	; 255
    4a90:	7f ef       	ldi	r23, 0xFF	; 255
    4a92:	02 c0       	rjmp	.+4      	; 0x4a98 <__fpcmp_parts_f+0xac>
    4a94:	60 e0       	ldi	r22, 0x00	; 0
    4a96:	70 e0       	ldi	r23, 0x00	; 0
    4a98:	cb 01       	movw	r24, r22
    4a9a:	1f 91       	pop	r17
    4a9c:	08 95       	ret

00004a9e <__udivmodsi4>:
    4a9e:	a1 e2       	ldi	r26, 0x21	; 33
    4aa0:	1a 2e       	mov	r1, r26
    4aa2:	aa 1b       	sub	r26, r26
    4aa4:	bb 1b       	sub	r27, r27
    4aa6:	fd 01       	movw	r30, r26
    4aa8:	0d c0       	rjmp	.+26     	; 0x4ac4 <__udivmodsi4_ep>

00004aaa <__udivmodsi4_loop>:
    4aaa:	aa 1f       	adc	r26, r26
    4aac:	bb 1f       	adc	r27, r27
    4aae:	ee 1f       	adc	r30, r30
    4ab0:	ff 1f       	adc	r31, r31
    4ab2:	a2 17       	cp	r26, r18
    4ab4:	b3 07       	cpc	r27, r19
    4ab6:	e4 07       	cpc	r30, r20
    4ab8:	f5 07       	cpc	r31, r21
    4aba:	20 f0       	brcs	.+8      	; 0x4ac4 <__udivmodsi4_ep>
    4abc:	a2 1b       	sub	r26, r18
    4abe:	b3 0b       	sbc	r27, r19
    4ac0:	e4 0b       	sbc	r30, r20
    4ac2:	f5 0b       	sbc	r31, r21

00004ac4 <__udivmodsi4_ep>:
    4ac4:	66 1f       	adc	r22, r22
    4ac6:	77 1f       	adc	r23, r23
    4ac8:	88 1f       	adc	r24, r24
    4aca:	99 1f       	adc	r25, r25
    4acc:	1a 94       	dec	r1
    4ace:	69 f7       	brne	.-38     	; 0x4aaa <__udivmodsi4_loop>
    4ad0:	60 95       	com	r22
    4ad2:	70 95       	com	r23
    4ad4:	80 95       	com	r24
    4ad6:	90 95       	com	r25
    4ad8:	9b 01       	movw	r18, r22
    4ada:	ac 01       	movw	r20, r24
    4adc:	bd 01       	movw	r22, r26
    4ade:	cf 01       	movw	r24, r30
    4ae0:	08 95       	ret

00004ae2 <__prologue_saves__>:
    4ae2:	2f 92       	push	r2
    4ae4:	3f 92       	push	r3
    4ae6:	4f 92       	push	r4
    4ae8:	5f 92       	push	r5
    4aea:	6f 92       	push	r6
    4aec:	7f 92       	push	r7
    4aee:	8f 92       	push	r8
    4af0:	9f 92       	push	r9
    4af2:	af 92       	push	r10
    4af4:	bf 92       	push	r11
    4af6:	cf 92       	push	r12
    4af8:	df 92       	push	r13
    4afa:	ef 92       	push	r14
    4afc:	ff 92       	push	r15
    4afe:	0f 93       	push	r16
    4b00:	1f 93       	push	r17
    4b02:	cf 93       	push	r28
    4b04:	df 93       	push	r29
    4b06:	cd b7       	in	r28, 0x3d	; 61
    4b08:	de b7       	in	r29, 0x3e	; 62
    4b0a:	ca 1b       	sub	r28, r26
    4b0c:	db 0b       	sbc	r29, r27
    4b0e:	0f b6       	in	r0, 0x3f	; 63
    4b10:	f8 94       	cli
    4b12:	de bf       	out	0x3e, r29	; 62
    4b14:	0f be       	out	0x3f, r0	; 63
    4b16:	cd bf       	out	0x3d, r28	; 61
    4b18:	09 94       	ijmp

00004b1a <__epilogue_restores__>:
    4b1a:	2a 88       	ldd	r2, Y+18	; 0x12
    4b1c:	39 88       	ldd	r3, Y+17	; 0x11
    4b1e:	48 88       	ldd	r4, Y+16	; 0x10
    4b20:	5f 84       	ldd	r5, Y+15	; 0x0f
    4b22:	6e 84       	ldd	r6, Y+14	; 0x0e
    4b24:	7d 84       	ldd	r7, Y+13	; 0x0d
    4b26:	8c 84       	ldd	r8, Y+12	; 0x0c
    4b28:	9b 84       	ldd	r9, Y+11	; 0x0b
    4b2a:	aa 84       	ldd	r10, Y+10	; 0x0a
    4b2c:	b9 84       	ldd	r11, Y+9	; 0x09
    4b2e:	c8 84       	ldd	r12, Y+8	; 0x08
    4b30:	df 80       	ldd	r13, Y+7	; 0x07
    4b32:	ee 80       	ldd	r14, Y+6	; 0x06
    4b34:	fd 80       	ldd	r15, Y+5	; 0x05
    4b36:	0c 81       	ldd	r16, Y+4	; 0x04
    4b38:	1b 81       	ldd	r17, Y+3	; 0x03
    4b3a:	aa 81       	ldd	r26, Y+2	; 0x02
    4b3c:	b9 81       	ldd	r27, Y+1	; 0x01
    4b3e:	ce 0f       	add	r28, r30
    4b40:	d1 1d       	adc	r29, r1
    4b42:	0f b6       	in	r0, 0x3f	; 63
    4b44:	f8 94       	cli
    4b46:	de bf       	out	0x3e, r29	; 62
    4b48:	0f be       	out	0x3f, r0	; 63
    4b4a:	cd bf       	out	0x3d, r28	; 61
    4b4c:	ed 01       	movw	r28, r26
    4b4e:	08 95       	ret

00004b50 <__tablejump2__>:
    4b50:	ee 0f       	add	r30, r30
    4b52:	ff 1f       	adc	r31, r31

00004b54 <__tablejump__>:
    4b54:	05 90       	lpm	r0, Z+
    4b56:	f4 91       	lpm	r31, Z+
    4b58:	e0 2d       	mov	r30, r0
    4b5a:	09 94       	ijmp

00004b5c <malloc>:
    4b5c:	cf 93       	push	r28
    4b5e:	df 93       	push	r29
    4b60:	bc 01       	movw	r22, r24
    4b62:	82 30       	cpi	r24, 0x02	; 2
    4b64:	91 05       	cpc	r25, r1
    4b66:	10 f4       	brcc	.+4      	; 0x4b6c <malloc+0x10>
    4b68:	62 e0       	ldi	r22, 0x02	; 2
    4b6a:	70 e0       	ldi	r23, 0x00	; 0
    4b6c:	a0 91 5d 02 	lds	r26, 0x025D
    4b70:	b0 91 5e 02 	lds	r27, 0x025E
    4b74:	ed 01       	movw	r28, r26
    4b76:	e0 e0       	ldi	r30, 0x00	; 0
    4b78:	f0 e0       	ldi	r31, 0x00	; 0
    4b7a:	40 e0       	ldi	r20, 0x00	; 0
    4b7c:	50 e0       	ldi	r21, 0x00	; 0
    4b7e:	21 c0       	rjmp	.+66     	; 0x4bc2 <malloc+0x66>
    4b80:	88 81       	ld	r24, Y
    4b82:	99 81       	ldd	r25, Y+1	; 0x01
    4b84:	86 17       	cp	r24, r22
    4b86:	97 07       	cpc	r25, r23
    4b88:	69 f4       	brne	.+26     	; 0x4ba4 <malloc+0x48>
    4b8a:	8a 81       	ldd	r24, Y+2	; 0x02
    4b8c:	9b 81       	ldd	r25, Y+3	; 0x03
    4b8e:	30 97       	sbiw	r30, 0x00	; 0
    4b90:	19 f0       	breq	.+6      	; 0x4b98 <malloc+0x3c>
    4b92:	93 83       	std	Z+3, r25	; 0x03
    4b94:	82 83       	std	Z+2, r24	; 0x02
    4b96:	04 c0       	rjmp	.+8      	; 0x4ba0 <malloc+0x44>
    4b98:	90 93 5e 02 	sts	0x025E, r25
    4b9c:	80 93 5d 02 	sts	0x025D, r24
    4ba0:	fe 01       	movw	r30, r28
    4ba2:	34 c0       	rjmp	.+104    	; 0x4c0c <malloc+0xb0>
    4ba4:	68 17       	cp	r22, r24
    4ba6:	79 07       	cpc	r23, r25
    4ba8:	38 f4       	brcc	.+14     	; 0x4bb8 <malloc+0x5c>
    4baa:	41 15       	cp	r20, r1
    4bac:	51 05       	cpc	r21, r1
    4bae:	19 f0       	breq	.+6      	; 0x4bb6 <malloc+0x5a>
    4bb0:	84 17       	cp	r24, r20
    4bb2:	95 07       	cpc	r25, r21
    4bb4:	08 f4       	brcc	.+2      	; 0x4bb8 <malloc+0x5c>
    4bb6:	ac 01       	movw	r20, r24
    4bb8:	fe 01       	movw	r30, r28
    4bba:	8a 81       	ldd	r24, Y+2	; 0x02
    4bbc:	9b 81       	ldd	r25, Y+3	; 0x03
    4bbe:	9c 01       	movw	r18, r24
    4bc0:	e9 01       	movw	r28, r18
    4bc2:	20 97       	sbiw	r28, 0x00	; 0
    4bc4:	e9 f6       	brne	.-70     	; 0x4b80 <malloc+0x24>
    4bc6:	41 15       	cp	r20, r1
    4bc8:	51 05       	cpc	r21, r1
    4bca:	a9 f1       	breq	.+106    	; 0x4c36 <malloc+0xda>
    4bcc:	ca 01       	movw	r24, r20
    4bce:	86 1b       	sub	r24, r22
    4bd0:	97 0b       	sbc	r25, r23
    4bd2:	04 97       	sbiw	r24, 0x04	; 4
    4bd4:	08 f4       	brcc	.+2      	; 0x4bd8 <malloc+0x7c>
    4bd6:	ba 01       	movw	r22, r20
    4bd8:	e0 e0       	ldi	r30, 0x00	; 0
    4bda:	f0 e0       	ldi	r31, 0x00	; 0
    4bdc:	2a c0       	rjmp	.+84     	; 0x4c32 <malloc+0xd6>
    4bde:	8d 91       	ld	r24, X+
    4be0:	9c 91       	ld	r25, X
    4be2:	11 97       	sbiw	r26, 0x01	; 1
    4be4:	84 17       	cp	r24, r20
    4be6:	95 07       	cpc	r25, r21
    4be8:	f9 f4       	brne	.+62     	; 0x4c28 <malloc+0xcc>
    4bea:	64 17       	cp	r22, r20
    4bec:	75 07       	cpc	r23, r21
    4bee:	81 f4       	brne	.+32     	; 0x4c10 <malloc+0xb4>
    4bf0:	12 96       	adiw	r26, 0x02	; 2
    4bf2:	8d 91       	ld	r24, X+
    4bf4:	9c 91       	ld	r25, X
    4bf6:	13 97       	sbiw	r26, 0x03	; 3
    4bf8:	30 97       	sbiw	r30, 0x00	; 0
    4bfa:	19 f0       	breq	.+6      	; 0x4c02 <malloc+0xa6>
    4bfc:	93 83       	std	Z+3, r25	; 0x03
    4bfe:	82 83       	std	Z+2, r24	; 0x02
    4c00:	04 c0       	rjmp	.+8      	; 0x4c0a <malloc+0xae>
    4c02:	90 93 5e 02 	sts	0x025E, r25
    4c06:	80 93 5d 02 	sts	0x025D, r24
    4c0a:	fd 01       	movw	r30, r26
    4c0c:	32 96       	adiw	r30, 0x02	; 2
    4c0e:	4f c0       	rjmp	.+158    	; 0x4cae <malloc+0x152>
    4c10:	ca 01       	movw	r24, r20
    4c12:	86 1b       	sub	r24, r22
    4c14:	97 0b       	sbc	r25, r23
    4c16:	fd 01       	movw	r30, r26
    4c18:	e8 0f       	add	r30, r24
    4c1a:	f9 1f       	adc	r31, r25
    4c1c:	61 93       	st	Z+, r22
    4c1e:	71 93       	st	Z+, r23
    4c20:	02 97       	sbiw	r24, 0x02	; 2
    4c22:	8d 93       	st	X+, r24
    4c24:	9c 93       	st	X, r25
    4c26:	43 c0       	rjmp	.+134    	; 0x4cae <malloc+0x152>
    4c28:	fd 01       	movw	r30, r26
    4c2a:	82 81       	ldd	r24, Z+2	; 0x02
    4c2c:	93 81       	ldd	r25, Z+3	; 0x03
    4c2e:	9c 01       	movw	r18, r24
    4c30:	d9 01       	movw	r26, r18
    4c32:	10 97       	sbiw	r26, 0x00	; 0
    4c34:	a1 f6       	brne	.-88     	; 0x4bde <malloc+0x82>
    4c36:	80 91 5b 02 	lds	r24, 0x025B
    4c3a:	90 91 5c 02 	lds	r25, 0x025C
    4c3e:	89 2b       	or	r24, r25
    4c40:	41 f4       	brne	.+16     	; 0x4c52 <malloc+0xf6>
    4c42:	80 91 35 02 	lds	r24, 0x0235
    4c46:	90 91 36 02 	lds	r25, 0x0236
    4c4a:	90 93 5c 02 	sts	0x025C, r25
    4c4e:	80 93 5b 02 	sts	0x025B, r24
    4c52:	40 91 37 02 	lds	r20, 0x0237
    4c56:	50 91 38 02 	lds	r21, 0x0238
    4c5a:	41 15       	cp	r20, r1
    4c5c:	51 05       	cpc	r21, r1
    4c5e:	41 f4       	brne	.+16     	; 0x4c70 <malloc+0x114>
    4c60:	4d b7       	in	r20, 0x3d	; 61
    4c62:	5e b7       	in	r21, 0x3e	; 62
    4c64:	80 91 33 02 	lds	r24, 0x0233
    4c68:	90 91 34 02 	lds	r25, 0x0234
    4c6c:	48 1b       	sub	r20, r24
    4c6e:	59 0b       	sbc	r21, r25
    4c70:	20 91 5b 02 	lds	r18, 0x025B
    4c74:	30 91 5c 02 	lds	r19, 0x025C
    4c78:	24 17       	cp	r18, r20
    4c7a:	35 07       	cpc	r19, r21
    4c7c:	b0 f4       	brcc	.+44     	; 0x4caa <malloc+0x14e>
    4c7e:	ca 01       	movw	r24, r20
    4c80:	82 1b       	sub	r24, r18
    4c82:	93 0b       	sbc	r25, r19
    4c84:	86 17       	cp	r24, r22
    4c86:	97 07       	cpc	r25, r23
    4c88:	80 f0       	brcs	.+32     	; 0x4caa <malloc+0x14e>
    4c8a:	ab 01       	movw	r20, r22
    4c8c:	4e 5f       	subi	r20, 0xFE	; 254
    4c8e:	5f 4f       	sbci	r21, 0xFF	; 255
    4c90:	84 17       	cp	r24, r20
    4c92:	95 07       	cpc	r25, r21
    4c94:	50 f0       	brcs	.+20     	; 0x4caa <malloc+0x14e>
    4c96:	42 0f       	add	r20, r18
    4c98:	53 1f       	adc	r21, r19
    4c9a:	50 93 5c 02 	sts	0x025C, r21
    4c9e:	40 93 5b 02 	sts	0x025B, r20
    4ca2:	f9 01       	movw	r30, r18
    4ca4:	61 93       	st	Z+, r22
    4ca6:	71 93       	st	Z+, r23
    4ca8:	02 c0       	rjmp	.+4      	; 0x4cae <malloc+0x152>
    4caa:	e0 e0       	ldi	r30, 0x00	; 0
    4cac:	f0 e0       	ldi	r31, 0x00	; 0
    4cae:	cf 01       	movw	r24, r30
    4cb0:	df 91       	pop	r29
    4cb2:	cf 91       	pop	r28
    4cb4:	08 95       	ret

00004cb6 <free>:
    4cb6:	cf 93       	push	r28
    4cb8:	df 93       	push	r29
    4cba:	00 97       	sbiw	r24, 0x00	; 0
    4cbc:	09 f4       	brne	.+2      	; 0x4cc0 <free+0xa>
    4cbe:	50 c0       	rjmp	.+160    	; 0x4d60 <free+0xaa>
    4cc0:	ec 01       	movw	r28, r24
    4cc2:	22 97       	sbiw	r28, 0x02	; 2
    4cc4:	1b 82       	std	Y+3, r1	; 0x03
    4cc6:	1a 82       	std	Y+2, r1	; 0x02
    4cc8:	a0 91 5d 02 	lds	r26, 0x025D
    4ccc:	b0 91 5e 02 	lds	r27, 0x025E
    4cd0:	10 97       	sbiw	r26, 0x00	; 0
    4cd2:	09 f1       	breq	.+66     	; 0x4d16 <free+0x60>
    4cd4:	40 e0       	ldi	r20, 0x00	; 0
    4cd6:	50 e0       	ldi	r21, 0x00	; 0
    4cd8:	ac 17       	cp	r26, r28
    4cda:	bd 07       	cpc	r27, r29
    4cdc:	08 f1       	brcs	.+66     	; 0x4d20 <free+0x6a>
    4cde:	bb 83       	std	Y+3, r27	; 0x03
    4ce0:	aa 83       	std	Y+2, r26	; 0x02
    4ce2:	fe 01       	movw	r30, r28
    4ce4:	21 91       	ld	r18, Z+
    4ce6:	31 91       	ld	r19, Z+
    4ce8:	e2 0f       	add	r30, r18
    4cea:	f3 1f       	adc	r31, r19
    4cec:	ae 17       	cp	r26, r30
    4cee:	bf 07       	cpc	r27, r31
    4cf0:	79 f4       	brne	.+30     	; 0x4d10 <free+0x5a>
    4cf2:	8d 91       	ld	r24, X+
    4cf4:	9c 91       	ld	r25, X
    4cf6:	11 97       	sbiw	r26, 0x01	; 1
    4cf8:	28 0f       	add	r18, r24
    4cfa:	39 1f       	adc	r19, r25
    4cfc:	2e 5f       	subi	r18, 0xFE	; 254
    4cfe:	3f 4f       	sbci	r19, 0xFF	; 255
    4d00:	39 83       	std	Y+1, r19	; 0x01
    4d02:	28 83       	st	Y, r18
    4d04:	12 96       	adiw	r26, 0x02	; 2
    4d06:	8d 91       	ld	r24, X+
    4d08:	9c 91       	ld	r25, X
    4d0a:	13 97       	sbiw	r26, 0x03	; 3
    4d0c:	9b 83       	std	Y+3, r25	; 0x03
    4d0e:	8a 83       	std	Y+2, r24	; 0x02
    4d10:	41 15       	cp	r20, r1
    4d12:	51 05       	cpc	r21, r1
    4d14:	71 f4       	brne	.+28     	; 0x4d32 <free+0x7c>
    4d16:	d0 93 5e 02 	sts	0x025E, r29
    4d1a:	c0 93 5d 02 	sts	0x025D, r28
    4d1e:	20 c0       	rjmp	.+64     	; 0x4d60 <free+0xaa>
    4d20:	12 96       	adiw	r26, 0x02	; 2
    4d22:	8d 91       	ld	r24, X+
    4d24:	9c 91       	ld	r25, X
    4d26:	13 97       	sbiw	r26, 0x03	; 3
    4d28:	ad 01       	movw	r20, r26
    4d2a:	00 97       	sbiw	r24, 0x00	; 0
    4d2c:	11 f0       	breq	.+4      	; 0x4d32 <free+0x7c>
    4d2e:	dc 01       	movw	r26, r24
    4d30:	d3 cf       	rjmp	.-90     	; 0x4cd8 <free+0x22>
    4d32:	fa 01       	movw	r30, r20
    4d34:	d3 83       	std	Z+3, r29	; 0x03
    4d36:	c2 83       	std	Z+2, r28	; 0x02
    4d38:	21 91       	ld	r18, Z+
    4d3a:	31 91       	ld	r19, Z+
    4d3c:	e2 0f       	add	r30, r18
    4d3e:	f3 1f       	adc	r31, r19
    4d40:	ce 17       	cp	r28, r30
    4d42:	df 07       	cpc	r29, r31
    4d44:	69 f4       	brne	.+26     	; 0x4d60 <free+0xaa>
    4d46:	88 81       	ld	r24, Y
    4d48:	99 81       	ldd	r25, Y+1	; 0x01
    4d4a:	28 0f       	add	r18, r24
    4d4c:	39 1f       	adc	r19, r25
    4d4e:	2e 5f       	subi	r18, 0xFE	; 254
    4d50:	3f 4f       	sbci	r19, 0xFF	; 255
    4d52:	fa 01       	movw	r30, r20
    4d54:	31 83       	std	Z+1, r19	; 0x01
    4d56:	20 83       	st	Z, r18
    4d58:	8a 81       	ldd	r24, Y+2	; 0x02
    4d5a:	9b 81       	ldd	r25, Y+3	; 0x03
    4d5c:	93 83       	std	Z+3, r25	; 0x03
    4d5e:	82 83       	std	Z+2, r24	; 0x02
    4d60:	df 91       	pop	r29
    4d62:	cf 91       	pop	r28
    4d64:	08 95       	ret

00004d66 <isspace>:
    4d66:	91 11       	cpse	r25, r1
    4d68:	01 c1       	rjmp	.+514    	; 0x4f6c <__ctype_isfalse>
    4d6a:	80 32       	cpi	r24, 0x20	; 32
    4d6c:	19 f0       	breq	.+6      	; 0x4d74 <isspace+0xe>
    4d6e:	89 50       	subi	r24, 0x09	; 9
    4d70:	85 50       	subi	r24, 0x05	; 5
    4d72:	d0 f7       	brcc	.-12     	; 0x4d68 <isspace+0x2>
    4d74:	08 95       	ret

00004d76 <tolower>:
    4d76:	91 11       	cpse	r25, r1
    4d78:	08 95       	ret
    4d7a:	81 54       	subi	r24, 0x41	; 65
    4d7c:	8a 51       	subi	r24, 0x1A	; 26
    4d7e:	08 f4       	brcc	.+2      	; 0x4d82 <tolower+0xc>
    4d80:	80 5e       	subi	r24, 0xE0	; 224
    4d82:	85 5a       	subi	r24, 0xA5	; 165
    4d84:	08 95       	ret

00004d86 <toupper>:
    4d86:	91 11       	cpse	r25, r1
    4d88:	08 95       	ret
    4d8a:	81 56       	subi	r24, 0x61	; 97
    4d8c:	8a 51       	subi	r24, 0x1A	; 26
    4d8e:	08 f4       	brcc	.+2      	; 0x4d92 <toupper+0xc>
    4d90:	80 52       	subi	r24, 0x20	; 32
    4d92:	85 58       	subi	r24, 0x85	; 133
    4d94:	08 95       	ret

00004d96 <strcat>:
    4d96:	fb 01       	movw	r30, r22
    4d98:	dc 01       	movw	r26, r24
    4d9a:	0d 90       	ld	r0, X+
    4d9c:	00 20       	and	r0, r0
    4d9e:	e9 f7       	brne	.-6      	; 0x4d9a <strcat+0x4>
    4da0:	11 97       	sbiw	r26, 0x01	; 1
    4da2:	01 90       	ld	r0, Z+
    4da4:	0d 92       	st	X+, r0
    4da6:	00 20       	and	r0, r0
    4da8:	e1 f7       	brne	.-8      	; 0x4da2 <strcat+0xc>
    4daa:	08 95       	ret

00004dac <strchr>:
    4dac:	fc 01       	movw	r30, r24
    4dae:	81 91       	ld	r24, Z+
    4db0:	86 17       	cp	r24, r22
    4db2:	21 f0       	breq	.+8      	; 0x4dbc <strchr+0x10>
    4db4:	88 23       	and	r24, r24
    4db6:	d9 f7       	brne	.-10     	; 0x4dae <strchr+0x2>
    4db8:	99 27       	eor	r25, r25
    4dba:	08 95       	ret
    4dbc:	31 97       	sbiw	r30, 0x01	; 1
    4dbe:	cf 01       	movw	r24, r30
    4dc0:	08 95       	ret

00004dc2 <strcmp>:
    4dc2:	fb 01       	movw	r30, r22
    4dc4:	dc 01       	movw	r26, r24
    4dc6:	8d 91       	ld	r24, X+
    4dc8:	01 90       	ld	r0, Z+
    4dca:	80 19       	sub	r24, r0
    4dcc:	01 10       	cpse	r0, r1
    4dce:	d9 f3       	breq	.-10     	; 0x4dc6 <strcmp+0x4>
    4dd0:	99 0b       	sbc	r25, r25
    4dd2:	08 95       	ret

00004dd4 <strcpy>:
    4dd4:	fb 01       	movw	r30, r22
    4dd6:	dc 01       	movw	r26, r24
    4dd8:	01 90       	ld	r0, Z+
    4dda:	0d 92       	st	X+, r0
    4ddc:	00 20       	and	r0, r0
    4dde:	e1 f7       	brne	.-8      	; 0x4dd8 <strcpy+0x4>
    4de0:	08 95       	ret

00004de2 <strlen>:
    4de2:	fc 01       	movw	r30, r24
    4de4:	01 90       	ld	r0, Z+
    4de6:	00 20       	and	r0, r0
    4de8:	e9 f7       	brne	.-6      	; 0x4de4 <strlen+0x2>
    4dea:	80 95       	com	r24
    4dec:	90 95       	com	r25
    4dee:	8e 0f       	add	r24, r30
    4df0:	9f 1f       	adc	r25, r31
    4df2:	08 95       	ret

00004df4 <strncmp>:
    4df4:	fb 01       	movw	r30, r22
    4df6:	dc 01       	movw	r26, r24
    4df8:	41 50       	subi	r20, 0x01	; 1
    4dfa:	50 40       	sbci	r21, 0x00	; 0
    4dfc:	30 f0       	brcs	.+12     	; 0x4e0a <strncmp+0x16>
    4dfe:	8d 91       	ld	r24, X+
    4e00:	01 90       	ld	r0, Z+
    4e02:	80 19       	sub	r24, r0
    4e04:	19 f4       	brne	.+6      	; 0x4e0c <strncmp+0x18>
    4e06:	00 20       	and	r0, r0
    4e08:	b9 f7       	brne	.-18     	; 0x4df8 <strncmp+0x4>
    4e0a:	88 1b       	sub	r24, r24
    4e0c:	99 0b       	sbc	r25, r25
    4e0e:	08 95       	ret

00004e10 <strncpy>:
    4e10:	fb 01       	movw	r30, r22
    4e12:	dc 01       	movw	r26, r24
    4e14:	41 50       	subi	r20, 0x01	; 1
    4e16:	50 40       	sbci	r21, 0x00	; 0
    4e18:	48 f0       	brcs	.+18     	; 0x4e2c <strncpy+0x1c>
    4e1a:	01 90       	ld	r0, Z+
    4e1c:	0d 92       	st	X+, r0
    4e1e:	00 20       	and	r0, r0
    4e20:	c9 f7       	brne	.-14     	; 0x4e14 <strncpy+0x4>
    4e22:	01 c0       	rjmp	.+2      	; 0x4e26 <strncpy+0x16>
    4e24:	1d 92       	st	X+, r1
    4e26:	41 50       	subi	r20, 0x01	; 1
    4e28:	50 40       	sbci	r21, 0x00	; 0
    4e2a:	e0 f7       	brcc	.-8      	; 0x4e24 <strncpy+0x14>
    4e2c:	08 95       	ret

00004e2e <strrchr>:
    4e2e:	fc 01       	movw	r30, r24
    4e30:	81 e0       	ldi	r24, 0x01	; 1
    4e32:	90 e0       	ldi	r25, 0x00	; 0
    4e34:	01 90       	ld	r0, Z+
    4e36:	06 16       	cp	r0, r22
    4e38:	09 f4       	brne	.+2      	; 0x4e3c <strrchr+0xe>
    4e3a:	cf 01       	movw	r24, r30
    4e3c:	00 20       	and	r0, r0
    4e3e:	d1 f7       	brne	.-12     	; 0x4e34 <strrchr+0x6>
    4e40:	01 97       	sbiw	r24, 0x01	; 1
    4e42:	08 95       	ret

00004e44 <strstr>:
    4e44:	fb 01       	movw	r30, r22
    4e46:	51 91       	ld	r21, Z+
    4e48:	55 23       	and	r21, r21
    4e4a:	a9 f0       	breq	.+42     	; 0x4e76 <strstr+0x32>
    4e4c:	bf 01       	movw	r22, r30
    4e4e:	dc 01       	movw	r26, r24
    4e50:	4d 91       	ld	r20, X+
    4e52:	45 17       	cp	r20, r21
    4e54:	41 11       	cpse	r20, r1
    4e56:	e1 f7       	brne	.-8      	; 0x4e50 <strstr+0xc>
    4e58:	59 f4       	brne	.+22     	; 0x4e70 <strstr+0x2c>
    4e5a:	cd 01       	movw	r24, r26
    4e5c:	01 90       	ld	r0, Z+
    4e5e:	00 20       	and	r0, r0
    4e60:	49 f0       	breq	.+18     	; 0x4e74 <strstr+0x30>
    4e62:	4d 91       	ld	r20, X+
    4e64:	40 15       	cp	r20, r0
    4e66:	41 11       	cpse	r20, r1
    4e68:	c9 f3       	breq	.-14     	; 0x4e5c <strstr+0x18>
    4e6a:	fb 01       	movw	r30, r22
    4e6c:	41 11       	cpse	r20, r1
    4e6e:	ef cf       	rjmp	.-34     	; 0x4e4e <strstr+0xa>
    4e70:	81 e0       	ldi	r24, 0x01	; 1
    4e72:	90 e0       	ldi	r25, 0x00	; 0
    4e74:	01 97       	sbiw	r24, 0x01	; 1
    4e76:	08 95       	ret

00004e78 <itoa>:
    4e78:	fb 01       	movw	r30, r22
    4e7a:	9f 01       	movw	r18, r30
    4e7c:	e8 94       	clt
    4e7e:	42 30       	cpi	r20, 0x02	; 2
    4e80:	c4 f0       	brlt	.+48     	; 0x4eb2 <itoa+0x3a>
    4e82:	45 32       	cpi	r20, 0x25	; 37
    4e84:	b4 f4       	brge	.+44     	; 0x4eb2 <itoa+0x3a>
    4e86:	4a 30       	cpi	r20, 0x0A	; 10
    4e88:	29 f4       	brne	.+10     	; 0x4e94 <itoa+0x1c>
    4e8a:	97 fb       	bst	r25, 7
    4e8c:	1e f4       	brtc	.+6      	; 0x4e94 <itoa+0x1c>
    4e8e:	90 95       	com	r25
    4e90:	81 95       	neg	r24
    4e92:	9f 4f       	sbci	r25, 0xFF	; 255
    4e94:	64 2f       	mov	r22, r20
    4e96:	77 27       	eor	r23, r23
    4e98:	0e 94 c9 27 	call	0x4f92	; 0x4f92 <__udivmodhi4>
    4e9c:	80 5d       	subi	r24, 0xD0	; 208
    4e9e:	8a 33       	cpi	r24, 0x3A	; 58
    4ea0:	0c f0       	brlt	.+2      	; 0x4ea4 <itoa+0x2c>
    4ea2:	89 5d       	subi	r24, 0xD9	; 217
    4ea4:	81 93       	st	Z+, r24
    4ea6:	cb 01       	movw	r24, r22
    4ea8:	00 97       	sbiw	r24, 0x00	; 0
    4eaa:	a1 f7       	brne	.-24     	; 0x4e94 <itoa+0x1c>
    4eac:	16 f4       	brtc	.+4      	; 0x4eb2 <itoa+0x3a>
    4eae:	5d e2       	ldi	r21, 0x2D	; 45
    4eb0:	51 93       	st	Z+, r21
    4eb2:	10 82       	st	Z, r1
    4eb4:	c9 01       	movw	r24, r18
    4eb6:	0c 94 b9 27 	jmp	0x4f72	; 0x4f72 <strrev>

00004eba <ltoa>:
    4eba:	fa 01       	movw	r30, r20
    4ebc:	cf 93       	push	r28
    4ebe:	ff 93       	push	r31
    4ec0:	ef 93       	push	r30
    4ec2:	22 30       	cpi	r18, 0x02	; 2
    4ec4:	44 f1       	brlt	.+80     	; 0x4f16 <ltoa+0x5c>
    4ec6:	25 32       	cpi	r18, 0x25	; 37
    4ec8:	34 f5       	brge	.+76     	; 0x4f16 <ltoa+0x5c>
    4eca:	c2 2f       	mov	r28, r18
    4ecc:	e8 94       	clt
    4ece:	ca 30       	cpi	r28, 0x0A	; 10
    4ed0:	49 f4       	brne	.+18     	; 0x4ee4 <ltoa+0x2a>
    4ed2:	97 fb       	bst	r25, 7
    4ed4:	3e f4       	brtc	.+14     	; 0x4ee4 <ltoa+0x2a>
    4ed6:	90 95       	com	r25
    4ed8:	80 95       	com	r24
    4eda:	70 95       	com	r23
    4edc:	61 95       	neg	r22
    4ede:	7f 4f       	sbci	r23, 0xFF	; 255
    4ee0:	8f 4f       	sbci	r24, 0xFF	; 255
    4ee2:	9f 4f       	sbci	r25, 0xFF	; 255
    4ee4:	2c 2f       	mov	r18, r28
    4ee6:	33 27       	eor	r19, r19
    4ee8:	44 27       	eor	r20, r20
    4eea:	55 27       	eor	r21, r21
    4eec:	ff 93       	push	r31
    4eee:	ef 93       	push	r30
    4ef0:	0e 94 4f 25 	call	0x4a9e	; 0x4a9e <__udivmodsi4>
    4ef4:	ef 91       	pop	r30
    4ef6:	ff 91       	pop	r31
    4ef8:	60 5d       	subi	r22, 0xD0	; 208
    4efa:	6a 33       	cpi	r22, 0x3A	; 58
    4efc:	0c f0       	brlt	.+2      	; 0x4f00 <ltoa+0x46>
    4efe:	69 5d       	subi	r22, 0xD9	; 217
    4f00:	61 93       	st	Z+, r22
    4f02:	b9 01       	movw	r22, r18
    4f04:	ca 01       	movw	r24, r20
    4f06:	60 50       	subi	r22, 0x00	; 0
    4f08:	70 40       	sbci	r23, 0x00	; 0
    4f0a:	80 40       	sbci	r24, 0x00	; 0
    4f0c:	90 40       	sbci	r25, 0x00	; 0
    4f0e:	51 f7       	brne	.-44     	; 0x4ee4 <ltoa+0x2a>
    4f10:	16 f4       	brtc	.+4      	; 0x4f16 <ltoa+0x5c>
    4f12:	cd e2       	ldi	r28, 0x2D	; 45
    4f14:	c1 93       	st	Z+, r28
    4f16:	10 82       	st	Z, r1
    4f18:	8f 91       	pop	r24
    4f1a:	9f 91       	pop	r25
    4f1c:	cf 91       	pop	r28
    4f1e:	0c 94 b9 27 	jmp	0x4f72	; 0x4f72 <strrev>

00004f22 <ultoa>:
    4f22:	fa 01       	movw	r30, r20
    4f24:	cf 93       	push	r28
    4f26:	ff 93       	push	r31
    4f28:	ef 93       	push	r30
    4f2a:	22 30       	cpi	r18, 0x02	; 2
    4f2c:	cc f0       	brlt	.+50     	; 0x4f60 <ultoa+0x3e>
    4f2e:	25 32       	cpi	r18, 0x25	; 37
    4f30:	bc f4       	brge	.+46     	; 0x4f60 <ultoa+0x3e>
    4f32:	c2 2f       	mov	r28, r18
    4f34:	2c 2f       	mov	r18, r28
    4f36:	33 27       	eor	r19, r19
    4f38:	44 27       	eor	r20, r20
    4f3a:	55 27       	eor	r21, r21
    4f3c:	ff 93       	push	r31
    4f3e:	ef 93       	push	r30
    4f40:	0e 94 4f 25 	call	0x4a9e	; 0x4a9e <__udivmodsi4>
    4f44:	ef 91       	pop	r30
    4f46:	ff 91       	pop	r31
    4f48:	60 5d       	subi	r22, 0xD0	; 208
    4f4a:	6a 33       	cpi	r22, 0x3A	; 58
    4f4c:	0c f0       	brlt	.+2      	; 0x4f50 <ultoa+0x2e>
    4f4e:	69 5d       	subi	r22, 0xD9	; 217
    4f50:	61 93       	st	Z+, r22
    4f52:	b9 01       	movw	r22, r18
    4f54:	ca 01       	movw	r24, r20
    4f56:	60 50       	subi	r22, 0x00	; 0
    4f58:	70 40       	sbci	r23, 0x00	; 0
    4f5a:	80 40       	sbci	r24, 0x00	; 0
    4f5c:	90 40       	sbci	r25, 0x00	; 0
    4f5e:	51 f7       	brne	.-44     	; 0x4f34 <ultoa+0x12>
    4f60:	10 82       	st	Z, r1
    4f62:	8f 91       	pop	r24
    4f64:	9f 91       	pop	r25
    4f66:	cf 91       	pop	r28
    4f68:	0c 94 b9 27 	jmp	0x4f72	; 0x4f72 <strrev>

00004f6c <__ctype_isfalse>:
    4f6c:	99 27       	eor	r25, r25
    4f6e:	88 27       	eor	r24, r24

00004f70 <__ctype_istrue>:
    4f70:	08 95       	ret

00004f72 <strrev>:
    4f72:	dc 01       	movw	r26, r24
    4f74:	fc 01       	movw	r30, r24
    4f76:	67 2f       	mov	r22, r23
    4f78:	71 91       	ld	r23, Z+
    4f7a:	77 23       	and	r23, r23
    4f7c:	e1 f7       	brne	.-8      	; 0x4f76 <strrev+0x4>
    4f7e:	32 97       	sbiw	r30, 0x02	; 2
    4f80:	04 c0       	rjmp	.+8      	; 0x4f8a <strrev+0x18>
    4f82:	7c 91       	ld	r23, X
    4f84:	6d 93       	st	X+, r22
    4f86:	70 83       	st	Z, r23
    4f88:	62 91       	ld	r22, -Z
    4f8a:	ae 17       	cp	r26, r30
    4f8c:	bf 07       	cpc	r27, r31
    4f8e:	c8 f3       	brcs	.-14     	; 0x4f82 <strrev+0x10>
    4f90:	08 95       	ret

00004f92 <__udivmodhi4>:
    4f92:	aa 1b       	sub	r26, r26
    4f94:	bb 1b       	sub	r27, r27
    4f96:	51 e1       	ldi	r21, 0x11	; 17
    4f98:	07 c0       	rjmp	.+14     	; 0x4fa8 <__udivmodhi4_ep>

00004f9a <__udivmodhi4_loop>:
    4f9a:	aa 1f       	adc	r26, r26
    4f9c:	bb 1f       	adc	r27, r27
    4f9e:	a6 17       	cp	r26, r22
    4fa0:	b7 07       	cpc	r27, r23
    4fa2:	10 f0       	brcs	.+4      	; 0x4fa8 <__udivmodhi4_ep>
    4fa4:	a6 1b       	sub	r26, r22
    4fa6:	b7 0b       	sbc	r27, r23

00004fa8 <__udivmodhi4_ep>:
    4fa8:	88 1f       	adc	r24, r24
    4faa:	99 1f       	adc	r25, r25
    4fac:	5a 95       	dec	r21
    4fae:	a9 f7       	brne	.-22     	; 0x4f9a <__udivmodhi4_loop>
    4fb0:	80 95       	com	r24
    4fb2:	90 95       	com	r25
    4fb4:	bc 01       	movw	r22, r24
    4fb6:	cd 01       	movw	r24, r26
    4fb8:	08 95       	ret

00004fba <_exit>:
    4fba:	f8 94       	cli

00004fbc <__stop_program>:
    4fbc:	ff cf       	rjmp	.-2      	; 0x4fbc <__stop_program>
