
Blink.elf:     file format elf32-avr

Sections:
Idx Name          Size      VMA       LMA       File off  Algn
  0 .data         00000010  00800100  00000986  00000a1a  2**0
                  CONTENTS, ALLOC, LOAD, DATA
  1 .text         00000986  00000000  00000000  00000094  2**1
                  CONTENTS, ALLOC, LOAD, READONLY, CODE
  2 .bss          0000001c  00800110  00800110  00000a2a  2**0
                  ALLOC
  3 .stab         00001134  00000000  00000000  00000a2c  2**2
                  CONTENTS, READONLY, DEBUGGING
  4 .stabstr      00000b5b  00000000  00000000  00001b60  2**0
                  CONTENTS, READONLY, DEBUGGING

Disassembly of section .text:

00000000 <__vectors>:
   0:	0c 94 62 00 	jmp	0xc4	; 0xc4 <__ctors_end>
   4:	0c 94 8a 00 	jmp	0x114	; 0x114 <__bad_interrupt>
   8:	0c 94 8a 00 	jmp	0x114	; 0x114 <__bad_interrupt>
   c:	0c 94 8a 00 	jmp	0x114	; 0x114 <__bad_interrupt>
  10:	0c 94 8a 00 	jmp	0x114	; 0x114 <__bad_interrupt>
  14:	0c 94 8a 00 	jmp	0x114	; 0x114 <__bad_interrupt>
  18:	0c 94 8a 00 	jmp	0x114	; 0x114 <__bad_interrupt>
  1c:	0c 94 8a 00 	jmp	0x114	; 0x114 <__bad_interrupt>
  20:	0c 94 8a 00 	jmp	0x114	; 0x114 <__bad_interrupt>
  24:	0c 94 8a 00 	jmp	0x114	; 0x114 <__bad_interrupt>
  28:	0c 94 8a 00 	jmp	0x114	; 0x114 <__bad_interrupt>
  2c:	0c 94 8a 00 	jmp	0x114	; 0x114 <__bad_interrupt>
  30:	0c 94 8a 00 	jmp	0x114	; 0x114 <__bad_interrupt>
  34:	0c 94 8a 00 	jmp	0x114	; 0x114 <__bad_interrupt>
  38:	0c 94 8a 00 	jmp	0x114	; 0x114 <__bad_interrupt>
  3c:	0c 94 8a 00 	jmp	0x114	; 0x114 <__bad_interrupt>
  40:	0c 94 57 03 	jmp	0x6ae	; 0x6ae <__vector_16>
  44:	0c 94 8a 00 	jmp	0x114	; 0x114 <__bad_interrupt>
  48:	0c 94 8a 00 	jmp	0x114	; 0x114 <__bad_interrupt>
  4c:	0c 94 8a 00 	jmp	0x114	; 0x114 <__bad_interrupt>
  50:	0c 94 8a 00 	jmp	0x114	; 0x114 <__bad_interrupt>
  54:	0c 94 8a 00 	jmp	0x114	; 0x114 <__bad_interrupt>
  58:	0c 94 8a 00 	jmp	0x114	; 0x114 <__bad_interrupt>
  5c:	0c 94 8a 00 	jmp	0x114	; 0x114 <__bad_interrupt>
  60:	0c 94 8a 00 	jmp	0x114	; 0x114 <__bad_interrupt>
  64:	0c 94 8a 00 	jmp	0x114	; 0x114 <__bad_interrupt>

00000068 <port_to_mode_PGM>:
  68:	00 00 00 00 24 00 27 00 2a 00                       ....$.'.*.

00000072 <port_to_output_PGM>:
  72:	00 00 00 00 25 00 28 00 2b 00                       ....%.(.+.

0000007c <port_to_input_PGM>:
  7c:	00 00 00 00 23 00 26 00 29 00                       ....#.&.).

00000086 <digital_pin_to_port_PGM>:
  86:	04 04 04 04 04 04 04 04 02 02 02 02 02 02 03 03     ................
  96:	03 03 03 03                                         ....

0000009a <digital_pin_to_bit_mask_PGM>:
  9a:	01 02 04 08 10 20 40 80 01 02 04 08 10 20 01 02     ..... @...... ..
  aa:	04 08 10 20                                         ... 

000000ae <digital_pin_to_timer_PGM>:
  ae:	00 00 00 07 00 02 01 00 00 03 04 06 00 00 00 00     ................
  be:	00 00 00 00                                         ....

000000c2 <__ctors_start>:
  c2:	c3 02       	muls	r28, r19

000000c4 <__ctors_end>:
  c4:	11 24       	eor	r1, r1
  c6:	1f be       	out	0x3f, r1	; 63
  c8:	cf ef       	ldi	r28, 0xFF	; 255
  ca:	d8 e0       	ldi	r29, 0x08	; 8
  cc:	de bf       	out	0x3e, r29	; 62
  ce:	cd bf       	out	0x3d, r28	; 61

000000d0 <__do_copy_data>:
  d0:	11 e0       	ldi	r17, 0x01	; 1
  d2:	a0 e0       	ldi	r26, 0x00	; 0
  d4:	b1 e0       	ldi	r27, 0x01	; 1
  d6:	e6 e8       	ldi	r30, 0x86	; 134
  d8:	f9 e0       	ldi	r31, 0x09	; 9
  da:	02 c0       	rjmp	.+4      	; 0xe0 <.do_copy_data_start>

000000dc <.do_copy_data_loop>:
  dc:	05 90       	lpm	r0, Z+
  de:	0d 92       	st	X+, r0

000000e0 <.do_copy_data_start>:
  e0:	a0 31       	cpi	r26, 0x10	; 16
  e2:	b1 07       	cpc	r27, r17
  e4:	d9 f7       	brne	.-10     	; 0xdc <.do_copy_data_loop>

000000e6 <__do_clear_bss>:
  e6:	11 e0       	ldi	r17, 0x01	; 1
  e8:	a0 e1       	ldi	r26, 0x10	; 16
  ea:	b1 e0       	ldi	r27, 0x01	; 1
  ec:	01 c0       	rjmp	.+2      	; 0xf0 <.do_clear_bss_start>

000000ee <.do_clear_bss_loop>:
  ee:	1d 92       	st	X+, r1

000000f0 <.do_clear_bss_start>:
  f0:	ac 32       	cpi	r26, 0x2C	; 44
  f2:	b1 07       	cpc	r27, r17
  f4:	e1 f7       	brne	.-8      	; 0xee <.do_clear_bss_loop>

000000f6 <__do_global_ctors>:
  f6:	10 e0       	ldi	r17, 0x00	; 0
  f8:	c4 ec       	ldi	r28, 0xC4	; 196
  fa:	d0 e0       	ldi	r29, 0x00	; 0
  fc:	04 c0       	rjmp	.+8      	; 0x106 <.do_global_ctors_start>

000000fe <.do_global_ctors_loop>:
  fe:	22 97       	sbiw	r28, 0x02	; 2
 100:	fe 01       	movw	r30, r28
 102:	0e 94 bd 04 	call	0x97a	; 0x97a <__tablejump__>

00000106 <.do_global_ctors_start>:
 106:	c2 3c       	cpi	r28, 0xC2	; 194
 108:	d1 07       	cpc	r29, r17
 10a:	c9 f7       	brne	.-14     	; 0xfe <.do_global_ctors_loop>
 10c:	0e 94 d6 02 	call	0x5ac	; 0x5ac <main>
 110:	0c 94 c1 04 	jmp	0x982	; 0x982 <_exit>

00000114 <__bad_interrupt>:
 114:	0c 94 00 00 	jmp	0	; 0x0 <__vectors>

00000118 <_ZN13LiquidCrystal11pulseEnableEv>:
 118:	0f 93       	push	r16
 11a:	1f 93       	push	r17
 11c:	8c 01       	movw	r16, r24
 11e:	fc 01       	movw	r30, r24
 120:	84 81       	ldd	r24, Z+4	; 0x04
 122:	60 e0       	ldi	r22, 0x00	; 0
 124:	0e 94 18 04 	call	0x830	; 0x830 <digitalWrite>
 128:	81 e0       	ldi	r24, 0x01	; 1
 12a:	90 e0       	ldi	r25, 0x00	; 0
 12c:	0e 94 ad 03 	call	0x75a	; 0x75a <delayMicroseconds>
 130:	f8 01       	movw	r30, r16
 132:	84 81       	ldd	r24, Z+4	; 0x04
 134:	61 e0       	ldi	r22, 0x01	; 1
 136:	0e 94 18 04 	call	0x830	; 0x830 <digitalWrite>
 13a:	81 e0       	ldi	r24, 0x01	; 1
 13c:	90 e0       	ldi	r25, 0x00	; 0
 13e:	0e 94 ad 03 	call	0x75a	; 0x75a <delayMicroseconds>
 142:	f8 01       	movw	r30, r16
 144:	84 81       	ldd	r24, Z+4	; 0x04
 146:	60 e0       	ldi	r22, 0x00	; 0
 148:	0e 94 18 04 	call	0x830	; 0x830 <digitalWrite>
 14c:	84 e6       	ldi	r24, 0x64	; 100
 14e:	90 e0       	ldi	r25, 0x00	; 0
 150:	0e 94 ad 03 	call	0x75a	; 0x75a <delayMicroseconds>
 154:	1f 91       	pop	r17
 156:	0f 91       	pop	r16
 158:	08 95       	ret

0000015a <_ZN13LiquidCrystal10write8bitsEh>:
 15a:	cf 92       	push	r12
 15c:	df 92       	push	r13
 15e:	ef 92       	push	r14
 160:	ff 92       	push	r15
 162:	0f 93       	push	r16
 164:	1f 93       	push	r17
 166:	cf 93       	push	r28
 168:	df 93       	push	r29
 16a:	d8 2e       	mov	r13, r24
 16c:	c9 2e       	mov	r12, r25
 16e:	28 2f       	mov	r18, r24
 170:	39 2f       	mov	r19, r25
 172:	c9 01       	movw	r24, r18
 174:	8c 01       	movw	r16, r24
 176:	c0 e0       	ldi	r28, 0x00	; 0
 178:	d0 e0       	ldi	r29, 0x00	; 0
 17a:	e6 2e       	mov	r14, r22
 17c:	ff 24       	eor	r15, r15
 17e:	f8 01       	movw	r30, r16
 180:	85 81       	ldd	r24, Z+5	; 0x05
 182:	61 e0       	ldi	r22, 0x01	; 1
 184:	0e 94 f2 03 	call	0x7e4	; 0x7e4 <pinMode>
 188:	b7 01       	movw	r22, r14
 18a:	0c 2e       	mov	r0, r28
 18c:	02 c0       	rjmp	.+4      	; 0x192 <_ZN13LiquidCrystal10write8bitsEh+0x38>
 18e:	75 95       	asr	r23
 190:	67 95       	ror	r22
 192:	0a 94       	dec	r0
 194:	e2 f7       	brpl	.-8      	; 0x18e <_ZN13LiquidCrystal10write8bitsEh+0x34>
 196:	61 70       	andi	r22, 0x01	; 1
 198:	f8 01       	movw	r30, r16
 19a:	85 81       	ldd	r24, Z+5	; 0x05
 19c:	0e 94 18 04 	call	0x830	; 0x830 <digitalWrite>
 1a0:	21 96       	adiw	r28, 0x01	; 1
 1a2:	0f 5f       	subi	r16, 0xFF	; 255
 1a4:	1f 4f       	sbci	r17, 0xFF	; 255
 1a6:	c8 30       	cpi	r28, 0x08	; 8
 1a8:	d1 05       	cpc	r29, r1
 1aa:	49 f7       	brne	.-46     	; 0x17e <_ZN13LiquidCrystal10write8bitsEh+0x24>
 1ac:	8d 2d       	mov	r24, r13
 1ae:	9c 2d       	mov	r25, r12
 1b0:	0e 94 8c 00 	call	0x118	; 0x118 <_ZN13LiquidCrystal11pulseEnableEv>
 1b4:	df 91       	pop	r29
 1b6:	cf 91       	pop	r28
 1b8:	1f 91       	pop	r17
 1ba:	0f 91       	pop	r16
 1bc:	ff 90       	pop	r15
 1be:	ef 90       	pop	r14
 1c0:	df 90       	pop	r13
 1c2:	cf 90       	pop	r12
 1c4:	08 95       	ret

000001c6 <_ZN13LiquidCrystal10write4bitsEh>:
 1c6:	cf 92       	push	r12
 1c8:	df 92       	push	r13
 1ca:	ef 92       	push	r14
 1cc:	ff 92       	push	r15
 1ce:	0f 93       	push	r16
 1d0:	1f 93       	push	r17
 1d2:	cf 93       	push	r28
 1d4:	df 93       	push	r29
 1d6:	d8 2e       	mov	r13, r24
 1d8:	c9 2e       	mov	r12, r25
 1da:	28 2f       	mov	r18, r24
 1dc:	39 2f       	mov	r19, r25
 1de:	c9 01       	movw	r24, r18
 1e0:	8c 01       	movw	r16, r24
 1e2:	c0 e0       	ldi	r28, 0x00	; 0
 1e4:	d0 e0       	ldi	r29, 0x00	; 0
 1e6:	e6 2e       	mov	r14, r22
 1e8:	ff 24       	eor	r15, r15
 1ea:	f8 01       	movw	r30, r16
 1ec:	85 81       	ldd	r24, Z+5	; 0x05
 1ee:	61 e0       	ldi	r22, 0x01	; 1
 1f0:	0e 94 f2 03 	call	0x7e4	; 0x7e4 <pinMode>
 1f4:	b7 01       	movw	r22, r14
 1f6:	0c 2e       	mov	r0, r28
 1f8:	02 c0       	rjmp	.+4      	; 0x1fe <_ZN13LiquidCrystal10write4bitsEh+0x38>
 1fa:	75 95       	asr	r23
 1fc:	67 95       	ror	r22
 1fe:	0a 94       	dec	r0
 200:	e2 f7       	brpl	.-8      	; 0x1fa <_ZN13LiquidCrystal10write4bitsEh+0x34>
 202:	61 70       	andi	r22, 0x01	; 1
 204:	f8 01       	movw	r30, r16
 206:	85 81       	ldd	r24, Z+5	; 0x05
 208:	0e 94 18 04 	call	0x830	; 0x830 <digitalWrite>
 20c:	21 96       	adiw	r28, 0x01	; 1
 20e:	0f 5f       	subi	r16, 0xFF	; 255
 210:	1f 4f       	sbci	r17, 0xFF	; 255
 212:	c4 30       	cpi	r28, 0x04	; 4
 214:	d1 05       	cpc	r29, r1
 216:	49 f7       	brne	.-46     	; 0x1ea <_ZN13LiquidCrystal10write4bitsEh+0x24>
 218:	8d 2d       	mov	r24, r13
 21a:	9c 2d       	mov	r25, r12
 21c:	0e 94 8c 00 	call	0x118	; 0x118 <_ZN13LiquidCrystal11pulseEnableEv>
 220:	df 91       	pop	r29
 222:	cf 91       	pop	r28
 224:	1f 91       	pop	r17
 226:	0f 91       	pop	r16
 228:	ff 90       	pop	r15
 22a:	ef 90       	pop	r14
 22c:	df 90       	pop	r13
 22e:	cf 90       	pop	r12
 230:	08 95       	ret

00000232 <_ZN13LiquidCrystal4sendEhh>:
 232:	1f 93       	push	r17
 234:	cf 93       	push	r28
 236:	df 93       	push	r29
 238:	ec 01       	movw	r28, r24
 23a:	16 2f       	mov	r17, r22
 23c:	8a 81       	ldd	r24, Y+2	; 0x02
 23e:	64 2f       	mov	r22, r20
 240:	0e 94 18 04 	call	0x830	; 0x830 <digitalWrite>
 244:	8b 81       	ldd	r24, Y+3	; 0x03
 246:	8f 3f       	cpi	r24, 0xFF	; 255
 248:	19 f0       	breq	.+6      	; 0x250 <_ZN13LiquidCrystal4sendEhh+0x1e>
 24a:	60 e0       	ldi	r22, 0x00	; 0
 24c:	0e 94 18 04 	call	0x830	; 0x830 <digitalWrite>
 250:	8d 85       	ldd	r24, Y+13	; 0x0d
 252:	84 ff       	sbrs	r24, 4
 254:	05 c0       	rjmp	.+10     	; 0x260 <_ZN13LiquidCrystal4sendEhh+0x2e>
 256:	ce 01       	movw	r24, r28
 258:	61 2f       	mov	r22, r17
 25a:	0e 94 ad 00 	call	0x15a	; 0x15a <_ZN13LiquidCrystal10write8bitsEh>
 25e:	0e c0       	rjmp	.+28     	; 0x27c <_ZN13LiquidCrystal4sendEhh+0x4a>
 260:	61 2f       	mov	r22, r17
 262:	70 e0       	ldi	r23, 0x00	; 0
 264:	84 e0       	ldi	r24, 0x04	; 4
 266:	75 95       	asr	r23
 268:	67 95       	ror	r22
 26a:	8a 95       	dec	r24
 26c:	e1 f7       	brne	.-8      	; 0x266 <_ZN13LiquidCrystal4sendEhh+0x34>
 26e:	ce 01       	movw	r24, r28
 270:	0e 94 e3 00 	call	0x1c6	; 0x1c6 <_ZN13LiquidCrystal10write4bitsEh>
 274:	ce 01       	movw	r24, r28
 276:	61 2f       	mov	r22, r17
 278:	0e 94 e3 00 	call	0x1c6	; 0x1c6 <_ZN13LiquidCrystal10write4bitsEh>
 27c:	df 91       	pop	r29
 27e:	cf 91       	pop	r28
 280:	1f 91       	pop	r17
 282:	08 95       	ret

00000284 <_ZN13LiquidCrystal5writeEh>:
 284:	41 e0       	ldi	r20, 0x01	; 1
 286:	0e 94 19 01 	call	0x232	; 0x232 <_ZN13LiquidCrystal4sendEhh>
 28a:	08 95       	ret

0000028c <_ZN13LiquidCrystal7commandEh>:
 28c:	40 e0       	ldi	r20, 0x00	; 0
 28e:	0e 94 19 01 	call	0x232	; 0x232 <_ZN13LiquidCrystal4sendEhh>
 292:	08 95       	ret

00000294 <_ZN13LiquidCrystal7displayEv>:
 294:	fc 01       	movw	r30, r24
 296:	66 85       	ldd	r22, Z+14	; 0x0e
 298:	86 2f       	mov	r24, r22
 29a:	84 60       	ori	r24, 0x04	; 4
 29c:	86 87       	std	Z+14, r24	; 0x0e
 29e:	6c 60       	ori	r22, 0x0C	; 12
 2a0:	cf 01       	movw	r24, r30
 2a2:	0e 94 46 01 	call	0x28c	; 0x28c <_ZN13LiquidCrystal7commandEh>
 2a6:	08 95       	ret

000002a8 <_ZN13LiquidCrystal5clearEv>:
 2a8:	61 e0       	ldi	r22, 0x01	; 1
 2aa:	0e 94 46 01 	call	0x28c	; 0x28c <_ZN13LiquidCrystal7commandEh>
 2ae:	80 ed       	ldi	r24, 0xD0	; 208
 2b0:	97 e0       	ldi	r25, 0x07	; 7
 2b2:	0e 94 ad 03 	call	0x75a	; 0x75a <delayMicroseconds>
 2b6:	08 95       	ret

000002b8 <_ZN13LiquidCrystal5beginEhhh>:
 2b8:	cf 93       	push	r28
 2ba:	df 93       	push	r29
 2bc:	ec 01       	movw	r28, r24
 2be:	42 30       	cpi	r20, 0x02	; 2
 2c0:	18 f0       	brcs	.+6      	; 0x2c8 <_ZN13LiquidCrystal5beginEhhh+0x10>
 2c2:	8d 85       	ldd	r24, Y+13	; 0x0d
 2c4:	88 60       	ori	r24, 0x08	; 8
 2c6:	8d 87       	std	Y+13, r24	; 0x0d
 2c8:	49 8b       	std	Y+17, r20	; 0x11
 2ca:	1a 8a       	std	Y+18, r1	; 0x12
 2cc:	22 23       	and	r18, r18
 2ce:	29 f0       	breq	.+10     	; 0x2da <_ZN13LiquidCrystal5beginEhhh+0x22>
 2d0:	41 30       	cpi	r20, 0x01	; 1
 2d2:	19 f4       	brne	.+6      	; 0x2da <_ZN13LiquidCrystal5beginEhhh+0x22>
 2d4:	8d 85       	ldd	r24, Y+13	; 0x0d
 2d6:	84 60       	ori	r24, 0x04	; 4
 2d8:	8d 87       	std	Y+13, r24	; 0x0d
 2da:	80 e5       	ldi	r24, 0x50	; 80
 2dc:	93 ec       	ldi	r25, 0xC3	; 195
 2de:	0e 94 ad 03 	call	0x75a	; 0x75a <delayMicroseconds>
 2e2:	8a 81       	ldd	r24, Y+2	; 0x02
 2e4:	60 e0       	ldi	r22, 0x00	; 0
 2e6:	0e 94 18 04 	call	0x830	; 0x830 <digitalWrite>
 2ea:	8c 81       	ldd	r24, Y+4	; 0x04
 2ec:	60 e0       	ldi	r22, 0x00	; 0
 2ee:	0e 94 18 04 	call	0x830	; 0x830 <digitalWrite>
 2f2:	8b 81       	ldd	r24, Y+3	; 0x03
 2f4:	8f 3f       	cpi	r24, 0xFF	; 255
 2f6:	19 f0       	breq	.+6      	; 0x2fe <_ZN13LiquidCrystal5beginEhhh+0x46>
 2f8:	60 e0       	ldi	r22, 0x00	; 0
 2fa:	0e 94 18 04 	call	0x830	; 0x830 <digitalWrite>
 2fe:	6d 85       	ldd	r22, Y+13	; 0x0d
 300:	64 fd       	sbrc	r22, 4
 302:	1d c0       	rjmp	.+58     	; 0x33e <_ZN13LiquidCrystal5beginEhhh+0x86>
 304:	ce 01       	movw	r24, r28
 306:	63 e0       	ldi	r22, 0x03	; 3
 308:	0e 94 e3 00 	call	0x1c6	; 0x1c6 <_ZN13LiquidCrystal10write4bitsEh>
 30c:	84 e9       	ldi	r24, 0x94	; 148
 30e:	91 e1       	ldi	r25, 0x11	; 17
 310:	0e 94 ad 03 	call	0x75a	; 0x75a <delayMicroseconds>
 314:	ce 01       	movw	r24, r28
 316:	63 e0       	ldi	r22, 0x03	; 3
 318:	0e 94 e3 00 	call	0x1c6	; 0x1c6 <_ZN13LiquidCrystal10write4bitsEh>
 31c:	84 e9       	ldi	r24, 0x94	; 148
 31e:	91 e1       	ldi	r25, 0x11	; 17
 320:	0e 94 ad 03 	call	0x75a	; 0x75a <delayMicroseconds>
 324:	ce 01       	movw	r24, r28
 326:	63 e0       	ldi	r22, 0x03	; 3
 328:	0e 94 e3 00 	call	0x1c6	; 0x1c6 <_ZN13LiquidCrystal10write4bitsEh>
 32c:	86 e9       	ldi	r24, 0x96	; 150
 32e:	90 e0       	ldi	r25, 0x00	; 0
 330:	0e 94 ad 03 	call	0x75a	; 0x75a <delayMicroseconds>
 334:	ce 01       	movw	r24, r28
 336:	62 e0       	ldi	r22, 0x02	; 2
 338:	0e 94 e3 00 	call	0x1c6	; 0x1c6 <_ZN13LiquidCrystal10write4bitsEh>
 33c:	16 c0       	rjmp	.+44     	; 0x36a <_ZN13LiquidCrystal5beginEhhh+0xb2>
 33e:	60 62       	ori	r22, 0x20	; 32
 340:	ce 01       	movw	r24, r28
 342:	0e 94 46 01 	call	0x28c	; 0x28c <_ZN13LiquidCrystal7commandEh>
 346:	84 e9       	ldi	r24, 0x94	; 148
 348:	91 e1       	ldi	r25, 0x11	; 17
 34a:	0e 94 ad 03 	call	0x75a	; 0x75a <delayMicroseconds>
 34e:	6d 85       	ldd	r22, Y+13	; 0x0d
 350:	60 62       	ori	r22, 0x20	; 32
 352:	ce 01       	movw	r24, r28
 354:	0e 94 46 01 	call	0x28c	; 0x28c <_ZN13LiquidCrystal7commandEh>
 358:	86 e9       	ldi	r24, 0x96	; 150
 35a:	90 e0       	ldi	r25, 0x00	; 0
 35c:	0e 94 ad 03 	call	0x75a	; 0x75a <delayMicroseconds>
 360:	6d 85       	ldd	r22, Y+13	; 0x0d
 362:	60 62       	ori	r22, 0x20	; 32
 364:	ce 01       	movw	r24, r28
 366:	0e 94 46 01 	call	0x28c	; 0x28c <_ZN13LiquidCrystal7commandEh>
 36a:	6d 85       	ldd	r22, Y+13	; 0x0d
 36c:	60 62       	ori	r22, 0x20	; 32
 36e:	ce 01       	movw	r24, r28
 370:	0e 94 46 01 	call	0x28c	; 0x28c <_ZN13LiquidCrystal7commandEh>
 374:	84 e0       	ldi	r24, 0x04	; 4
 376:	8e 87       	std	Y+14, r24	; 0x0e
 378:	ce 01       	movw	r24, r28
 37a:	0e 94 4a 01 	call	0x294	; 0x294 <_ZN13LiquidCrystal7displayEv>
 37e:	ce 01       	movw	r24, r28
 380:	0e 94 54 01 	call	0x2a8	; 0x2a8 <_ZN13LiquidCrystal5clearEv>
 384:	82 e0       	ldi	r24, 0x02	; 2
 386:	8f 87       	std	Y+15, r24	; 0x0f
 388:	ce 01       	movw	r24, r28
 38a:	66 e0       	ldi	r22, 0x06	; 6
 38c:	0e 94 46 01 	call	0x28c	; 0x28c <_ZN13LiquidCrystal7commandEh>
 390:	df 91       	pop	r29
 392:	cf 91       	pop	r28
 394:	08 95       	ret

00000396 <_ZN13LiquidCrystal4initEhhhhhhhhhhhh>:
 396:	6f 92       	push	r6
 398:	7f 92       	push	r7
 39a:	8f 92       	push	r8
 39c:	af 92       	push	r10
 39e:	cf 92       	push	r12
 3a0:	ef 92       	push	r14
 3a2:	0f 93       	push	r16
 3a4:	1f 93       	push	r17
 3a6:	df 93       	push	r29
 3a8:	cf 93       	push	r28
 3aa:	cd b7       	in	r28, 0x3d	; 61
 3ac:	de b7       	in	r29, 0x3e	; 62
 3ae:	3c 01       	movw	r6, r24
 3b0:	16 2f       	mov	r17, r22
 3b2:	84 2f       	mov	r24, r20
 3b4:	f3 01       	movw	r30, r6
 3b6:	42 83       	std	Z+2, r20	; 0x02
 3b8:	23 83       	std	Z+3, r18	; 0x03
 3ba:	04 83       	std	Z+4, r16	; 0x04
 3bc:	e5 82       	std	Z+5, r14	; 0x05
 3be:	c6 82       	std	Z+6, r12	; 0x06
 3c0:	a7 82       	std	Z+7, r10	; 0x07
 3c2:	80 86       	std	Z+8, r8	; 0x08
 3c4:	9d 85       	ldd	r25, Y+13	; 0x0d
 3c6:	91 87       	std	Z+9, r25	; 0x09
 3c8:	9e 85       	ldd	r25, Y+14	; 0x0e
 3ca:	92 87       	std	Z+10, r25	; 0x0a
 3cc:	9f 85       	ldd	r25, Y+15	; 0x0f
 3ce:	93 87       	std	Z+11, r25	; 0x0b
 3d0:	98 89       	ldd	r25, Y+16	; 0x10
 3d2:	94 87       	std	Z+12, r25	; 0x0c
 3d4:	61 e0       	ldi	r22, 0x01	; 1
 3d6:	0e 94 f2 03 	call	0x7e4	; 0x7e4 <pinMode>
 3da:	f3 01       	movw	r30, r6
 3dc:	83 81       	ldd	r24, Z+3	; 0x03
 3de:	8f 3f       	cpi	r24, 0xFF	; 255
 3e0:	19 f0       	breq	.+6      	; 0x3e8 <_ZN13LiquidCrystal4initEhhhhhhhhhhhh+0x52>
 3e2:	61 e0       	ldi	r22, 0x01	; 1
 3e4:	0e 94 f2 03 	call	0x7e4	; 0x7e4 <pinMode>
 3e8:	f3 01       	movw	r30, r6
 3ea:	84 81       	ldd	r24, Z+4	; 0x04
 3ec:	61 e0       	ldi	r22, 0x01	; 1
 3ee:	0e 94 f2 03 	call	0x7e4	; 0x7e4 <pinMode>
 3f2:	11 23       	and	r17, r17
 3f4:	19 f0       	breq	.+6      	; 0x3fc <_ZN13LiquidCrystal4initEhhhhhhhhhhhh+0x66>
 3f6:	f3 01       	movw	r30, r6
 3f8:	15 86       	std	Z+13, r1	; 0x0d
 3fa:	03 c0       	rjmp	.+6      	; 0x402 <_ZN13LiquidCrystal4initEhhhhhhhhhhhh+0x6c>
 3fc:	80 e1       	ldi	r24, 0x10	; 16
 3fe:	f3 01       	movw	r30, r6
 400:	85 87       	std	Z+13, r24	; 0x0d
 402:	c3 01       	movw	r24, r6
 404:	60 e1       	ldi	r22, 0x10	; 16
 406:	41 e0       	ldi	r20, 0x01	; 1
 408:	20 e0       	ldi	r18, 0x00	; 0
 40a:	0e 94 5c 01 	call	0x2b8	; 0x2b8 <_ZN13LiquidCrystal5beginEhhh>
 40e:	cf 91       	pop	r28
 410:	df 91       	pop	r29
 412:	1f 91       	pop	r17
 414:	0f 91       	pop	r16
 416:	ef 90       	pop	r14
 418:	cf 90       	pop	r12
 41a:	af 90       	pop	r10
 41c:	8f 90       	pop	r8
 41e:	7f 90       	pop	r7
 420:	6f 90       	pop	r6
 422:	08 95       	ret

00000424 <_ZN13LiquidCrystalC1Ehhhhhh>:
 424:	8f 92       	push	r8
 426:	af 92       	push	r10
 428:	cf 92       	push	r12
 42a:	ef 92       	push	r14
 42c:	0f 93       	push	r16
 42e:	1f 93       	push	r17
 430:	cf 93       	push	r28
 432:	df 93       	push	r29
 434:	dc 01       	movw	r26, r24
 436:	36 2f       	mov	r19, r22
 438:	54 2f       	mov	r21, r20
 43a:	72 2f       	mov	r23, r18
 43c:	10 2f       	mov	r17, r16
 43e:	ae 2c       	mov	r10, r14
 440:	8c 2c       	mov	r8, r12
 442:	84 e0       	ldi	r24, 0x04	; 4
 444:	91 e0       	ldi	r25, 0x01	; 1
 446:	11 96       	adiw	r26, 0x01	; 1
 448:	9c 93       	st	X, r25
 44a:	8e 93       	st	-X, r24
 44c:	00 d0       	rcall	.+0      	; 0x44e <_ZN13LiquidCrystalC1Ehhhhhh+0x2a>
 44e:	00 d0       	rcall	.+0      	; 0x450 <_ZN13LiquidCrystalC1Ehhhhhh+0x2c>
 450:	ed b7       	in	r30, 0x3d	; 61
 452:	fe b7       	in	r31, 0x3e	; 62
 454:	31 96       	adiw	r30, 0x01	; 1
 456:	cd b7       	in	r28, 0x3d	; 61
 458:	de b7       	in	r29, 0x3e	; 62
 45a:	19 82       	std	Y+1, r1	; 0x01
 45c:	11 82       	std	Z+1, r1	; 0x01
 45e:	12 82       	std	Z+2, r1	; 0x02
 460:	13 82       	std	Z+3, r1	; 0x03
 462:	cd 01       	movw	r24, r26
 464:	61 e0       	ldi	r22, 0x01	; 1
 466:	43 2f       	mov	r20, r19
 468:	2f ef       	ldi	r18, 0xFF	; 255
 46a:	05 2f       	mov	r16, r21
 46c:	e7 2e       	mov	r14, r23
 46e:	c1 2e       	mov	r12, r17
 470:	0e 94 cb 01 	call	0x396	; 0x396 <_ZN13LiquidCrystal4initEhhhhhhhhhhhh>
 474:	0f 90       	pop	r0
 476:	0f 90       	pop	r0
 478:	0f 90       	pop	r0
 47a:	0f 90       	pop	r0
 47c:	df 91       	pop	r29
 47e:	cf 91       	pop	r28
 480:	1f 91       	pop	r17
 482:	0f 91       	pop	r16
 484:	ef 90       	pop	r14
 486:	cf 90       	pop	r12
 488:	af 90       	pop	r10
 48a:	8f 90       	pop	r8
 48c:	08 95       	ret

0000048e <_Z19change_config_stateP5statehPm>:
 48e:	ff 92       	push	r15
 490:	0f 93       	push	r16
 492:	1f 93       	push	r17
 494:	cf 93       	push	r28
 496:	df 93       	push	r29
 498:	ec 01       	movw	r28, r24
 49a:	f6 2e       	mov	r15, r22
 49c:	8a 01       	movw	r16, r20
 49e:	0e 94 9f 03 	call	0x73e	; 0x73e <millis>
 4a2:	f8 01       	movw	r30, r16
 4a4:	20 81       	ld	r18, Z
 4a6:	31 81       	ldd	r19, Z+1	; 0x01
 4a8:	42 81       	ldd	r20, Z+2	; 0x02
 4aa:	53 81       	ldd	r21, Z+3	; 0x03
 4ac:	62 1b       	sub	r22, r18
 4ae:	73 0b       	sbc	r23, r19
 4b0:	84 0b       	sbc	r24, r20
 4b2:	95 0b       	sbc	r25, r21
 4b4:	67 39       	cpi	r22, 0x97	; 151
 4b6:	71 05       	cpc	r23, r1
 4b8:	81 05       	cpc	r24, r1
 4ba:	91 05       	cpc	r25, r1
 4bc:	58 f0       	brcs	.+22     	; 0x4d4 <_Z19change_config_stateP5statehPm+0x46>
 4be:	ff 20       	and	r15, r15
 4c0:	49 f0       	breq	.+18     	; 0x4d4 <_Z19change_config_stateP5statehPm+0x46>
 4c2:	89 81       	ldd	r24, Y+1	; 0x01
 4c4:	83 30       	cpi	r24, 0x03	; 3
 4c6:	10 f0       	brcs	.+4      	; 0x4cc <_Z19change_config_stateP5statehPm+0x3e>
 4c8:	88 30       	cpi	r24, 0x08	; 8
 4ca:	18 f4       	brcc	.+6      	; 0x4d2 <_Z19change_config_stateP5statehPm+0x44>
 4cc:	8f 5f       	subi	r24, 0xFF	; 255
 4ce:	89 83       	std	Y+1, r24	; 0x01
 4d0:	01 c0       	rjmp	.+2      	; 0x4d4 <_Z19change_config_stateP5statehPm+0x46>
 4d2:	19 82       	std	Y+1, r1	; 0x01
 4d4:	df 91       	pop	r29
 4d6:	cf 91       	pop	r28
 4d8:	1f 91       	pop	r17
 4da:	0f 91       	pop	r16
 4dc:	ff 90       	pop	r15
 4de:	08 95       	ret

000004e0 <_Z14control_configP5stateP7my_time>:
 4e0:	ef 92       	push	r14
 4e2:	ff 92       	push	r15
 4e4:	0f 93       	push	r16
 4e6:	1f 93       	push	r17
 4e8:	df 93       	push	r29
 4ea:	cf 93       	push	r28
 4ec:	00 d0       	rcall	.+0      	; 0x4ee <_Z14control_configP5stateP7my_time+0xe>
 4ee:	00 d0       	rcall	.+0      	; 0x4f0 <_Z14control_configP5stateP7my_time+0x10>
 4f0:	cd b7       	in	r28, 0x3d	; 61
 4f2:	de b7       	in	r29, 0x3e	; 62
 4f4:	7c 01       	movw	r14, r24
 4f6:	8b e0       	ldi	r24, 0x0B	; 11
 4f8:	0e 94 6c 04 	call	0x8d8	; 0x8d8 <digitalRead>
 4fc:	01 97       	sbiw	r24, 0x01	; 1
 4fe:	29 f0       	breq	.+10     	; 0x50a <_Z14control_configP5stateP7my_time+0x2a>
 500:	80 e0       	ldi	r24, 0x00	; 0
 502:	0e 94 6c 04 	call	0x8d8	; 0x8d8 <digitalRead>
 506:	01 97       	sbiw	r24, 0x01	; 1
 508:	19 f5       	brne	.+70     	; 0x550 <_Z14control_configP5stateP7my_time+0x70>
 50a:	0e 94 9f 03 	call	0x73e	; 0x73e <millis>
 50e:	69 83       	std	Y+1, r22	; 0x01
 510:	7a 83       	std	Y+2, r23	; 0x02
 512:	8b 83       	std	Y+3, r24	; 0x03
 514:	9c 83       	std	Y+4, r25	; 0x04
 516:	8e 01       	movw	r16, r28
 518:	0f 5f       	subi	r16, 0xFF	; 255
 51a:	1f 4f       	sbci	r17, 0xFF	; 255
 51c:	05 c0       	rjmp	.+10     	; 0x528 <_Z14control_configP5stateP7my_time+0x48>
 51e:	c7 01       	movw	r24, r14
 520:	61 e0       	ldi	r22, 0x01	; 1
 522:	a8 01       	movw	r20, r16
 524:	0e 94 47 02 	call	0x48e	; 0x48e <_Z19change_config_stateP5statehPm>
 528:	8b e0       	ldi	r24, 0x0B	; 11
 52a:	0e 94 6c 04 	call	0x8d8	; 0x8d8 <digitalRead>
 52e:	01 97       	sbiw	r24, 0x01	; 1
 530:	b1 f3       	breq	.-20     	; 0x51e <_Z14control_configP5stateP7my_time+0x3e>
 532:	06 c0       	rjmp	.+12     	; 0x540 <_Z14control_configP5stateP7my_time+0x60>
 534:	c7 01       	movw	r24, r14
 536:	60 e0       	ldi	r22, 0x00	; 0
 538:	a8 01       	movw	r20, r16
 53a:	0e 94 47 02 	call	0x48e	; 0x48e <_Z19change_config_stateP5statehPm>
 53e:	03 c0       	rjmp	.+6      	; 0x546 <_Z14control_configP5stateP7my_time+0x66>
 540:	8e 01       	movw	r16, r28
 542:	0f 5f       	subi	r16, 0xFF	; 255
 544:	1f 4f       	sbci	r17, 0xFF	; 255
 546:	80 e0       	ldi	r24, 0x00	; 0
 548:	0e 94 6c 04 	call	0x8d8	; 0x8d8 <digitalRead>
 54c:	01 97       	sbiw	r24, 0x01	; 1
 54e:	91 f3       	breq	.-28     	; 0x534 <_Z14control_configP5stateP7my_time+0x54>
 550:	0f 90       	pop	r0
 552:	0f 90       	pop	r0
 554:	0f 90       	pop	r0
 556:	0f 90       	pop	r0
 558:	cf 91       	pop	r28
 55a:	df 91       	pop	r29
 55c:	1f 91       	pop	r17
 55e:	0f 91       	pop	r16
 560:	ff 90       	pop	r15
 562:	ef 90       	pop	r14
 564:	08 95       	ret

00000566 <_Z13control_stateP5stateP7my_time>:
 566:	fc 01       	movw	r30, r24
 568:	80 81       	ld	r24, Z
 56a:	88 23       	and	r24, r24
 56c:	19 f0       	breq	.+6      	; 0x574 <_Z13control_stateP5stateP7my_time+0xe>
 56e:	84 30       	cpi	r24, 0x04	; 4
 570:	28 f4       	brcc	.+10     	; 0x57c <_Z13control_stateP5stateP7my_time+0x16>
 572:	08 95       	ret
 574:	cf 01       	movw	r24, r30
 576:	0e 94 70 02 	call	0x4e0	; 0x4e0 <_Z14control_configP5stateP7my_time>
 57a:	08 95       	ret
 57c:	10 82       	st	Z, r1
 57e:	08 95       	ret

00000580 <_Z9print_lcdP13LiquidCrystal>:
 580:	0e 94 54 01 	call	0x2a8	; 0x2a8 <_ZN13LiquidCrystal5clearEv>
 584:	08 95       	ret

00000586 <_GLOBAL__I_lcd>:
 586:	cf 92       	push	r12
 588:	ef 92       	push	r14
 58a:	0f 93       	push	r16
 58c:	80 e1       	ldi	r24, 0x10	; 16
 58e:	91 e0       	ldi	r25, 0x01	; 1
 590:	67 e0       	ldi	r22, 0x07	; 7
 592:	45 e0       	ldi	r20, 0x05	; 5
 594:	24 e0       	ldi	r18, 0x04	; 4
 596:	03 e0       	ldi	r16, 0x03	; 3
 598:	32 e0       	ldi	r19, 0x02	; 2
 59a:	e3 2e       	mov	r14, r19
 59c:	cc 24       	eor	r12, r12
 59e:	c3 94       	inc	r12
 5a0:	0e 94 12 02 	call	0x424	; 0x424 <_ZN13LiquidCrystalC1Ehhhhhh>
 5a4:	0f 91       	pop	r16
 5a6:	ef 90       	pop	r14
 5a8:	cf 90       	pop	r12
 5aa:	08 95       	ret

000005ac <main>:
 5ac:	ef 92       	push	r14
 5ae:	ff 92       	push	r15
 5b0:	0f 93       	push	r16
 5b2:	1f 93       	push	r17
 5b4:	df 93       	push	r29
 5b6:	cf 93       	push	r28
 5b8:	cd b7       	in	r28, 0x3d	; 61
 5ba:	de b7       	in	r29, 0x3e	; 62
 5bc:	c3 57       	subi	r28, 0x73	; 115
 5be:	d0 40       	sbci	r29, 0x00	; 0
 5c0:	0f b6       	in	r0, 0x3f	; 63
 5c2:	f8 94       	cli
 5c4:	de bf       	out	0x3e, r29	; 62
 5c6:	0f be       	out	0x3f, r0	; 63
 5c8:	cd bf       	out	0x3d, r28	; 61
 5ca:	0e 94 b7 03 	call	0x76e	; 0x76e <init>
 5ce:	80 e1       	ldi	r24, 0x10	; 16
 5d0:	91 e0       	ldi	r25, 0x01	; 1
 5d2:	60 e1       	ldi	r22, 0x10	; 16
 5d4:	42 e0       	ldi	r20, 0x02	; 2
 5d6:	20 e0       	ldi	r18, 0x00	; 0
 5d8:	0e 94 5c 01 	call	0x2b8	; 0x2b8 <_ZN13LiquidCrystal5beginEhhh>
 5dc:	8a e0       	ldi	r24, 0x0A	; 10
 5de:	61 e0       	ldi	r22, 0x01	; 1
 5e0:	0e 94 f2 03 	call	0x7e4	; 0x7e4 <pinMode>
 5e4:	89 e0       	ldi	r24, 0x09	; 9
 5e6:	61 e0       	ldi	r22, 0x01	; 1
 5e8:	0e 94 f2 03 	call	0x7e4	; 0x7e4 <pinMode>
 5ec:	8b e0       	ldi	r24, 0x0B	; 11
 5ee:	60 e0       	ldi	r22, 0x00	; 0
 5f0:	0e 94 f2 03 	call	0x7e4	; 0x7e4 <pinMode>
 5f4:	80 e0       	ldi	r24, 0x00	; 0
 5f6:	60 e0       	ldi	r22, 0x00	; 0
 5f8:	0e 94 f2 03 	call	0x7e4	; 0x7e4 <pinMode>
 5fc:	8d e0       	ldi	r24, 0x0D	; 13
 5fe:	60 e0       	ldi	r22, 0x00	; 0
 600:	0e 94 f2 03 	call	0x7e4	; 0x7e4 <pinMode>
 604:	8c e0       	ldi	r24, 0x0C	; 12
 606:	60 e0       	ldi	r22, 0x00	; 0
 608:	0e 94 f2 03 	call	0x7e4	; 0x7e4 <pinMode>
 60c:	80 e1       	ldi	r24, 0x10	; 16
 60e:	91 e0       	ldi	r25, 0x01	; 1
 610:	0e 94 c0 02 	call	0x580	; 0x580 <_Z9print_lcdP13LiquidCrystal>
 614:	de 01       	movw	r26, r28
 616:	11 96       	adiw	r26, 0x01	; 1
 618:	ea e0       	ldi	r30, 0x0A	; 10
 61a:	f1 e0       	ldi	r31, 0x01	; 1
 61c:	85 e0       	ldi	r24, 0x05	; 5
 61e:	01 90       	ld	r0, Z+
 620:	0d 92       	st	X+, r0
 622:	81 50       	subi	r24, 0x01	; 1
 624:	e1 f7       	brne	.-8      	; 0x61e <main+0x72>
 626:	46 e0       	ldi	r20, 0x06	; 6
 628:	e4 2e       	mov	r14, r20
 62a:	f1 2c       	mov	r15, r1
 62c:	ec 0e       	add	r14, r28
 62e:	fd 1e       	adc	r15, r29
 630:	8e 01       	movw	r16, r28
 632:	0f 5f       	subi	r16, 0xFF	; 255
 634:	1f 4f       	sbci	r17, 0xFF	; 255
 636:	c8 01       	movw	r24, r16
 638:	b7 01       	movw	r22, r14
 63a:	0e 94 b3 02 	call	0x566	; 0x566 <_Z13control_stateP5stateP7my_time>
 63e:	fb cf       	rjmp	.-10     	; 0x636 <main+0x8a>

00000640 <_ZN5Print5writeEPKc>:
 640:	0f 93       	push	r16
 642:	1f 93       	push	r17
 644:	cf 93       	push	r28
 646:	df 93       	push	r29
 648:	8c 01       	movw	r16, r24
 64a:	eb 01       	movw	r28, r22
 64c:	09 c0       	rjmp	.+18     	; 0x660 <_ZN5Print5writeEPKc+0x20>
 64e:	21 96       	adiw	r28, 0x01	; 1
 650:	d8 01       	movw	r26, r16
 652:	ed 91       	ld	r30, X+
 654:	fc 91       	ld	r31, X
 656:	01 90       	ld	r0, Z+
 658:	f0 81       	ld	r31, Z
 65a:	e0 2d       	mov	r30, r0
 65c:	c8 01       	movw	r24, r16
 65e:	09 95       	icall
 660:	68 81       	ld	r22, Y
 662:	66 23       	and	r22, r22
 664:	a1 f7       	brne	.-24     	; 0x64e <_ZN5Print5writeEPKc+0xe>
 666:	df 91       	pop	r29
 668:	cf 91       	pop	r28
 66a:	1f 91       	pop	r17
 66c:	0f 91       	pop	r16
 66e:	08 95       	ret

00000670 <_ZN5Print5writeEPKhj>:
 670:	ef 92       	push	r14
 672:	ff 92       	push	r15
 674:	0f 93       	push	r16
 676:	1f 93       	push	r17
 678:	cf 93       	push	r28
 67a:	df 93       	push	r29
 67c:	8c 01       	movw	r16, r24
 67e:	7b 01       	movw	r14, r22
 680:	ea 01       	movw	r28, r20
 682:	0c c0       	rjmp	.+24     	; 0x69c <_ZN5Print5writeEPKhj+0x2c>
 684:	d7 01       	movw	r26, r14
 686:	6d 91       	ld	r22, X+
 688:	7d 01       	movw	r14, r26
 68a:	d8 01       	movw	r26, r16
 68c:	ed 91       	ld	r30, X+
 68e:	fc 91       	ld	r31, X
 690:	01 90       	ld	r0, Z+
 692:	f0 81       	ld	r31, Z
 694:	e0 2d       	mov	r30, r0
 696:	c8 01       	movw	r24, r16
 698:	09 95       	icall
 69a:	21 97       	sbiw	r28, 0x01	; 1
 69c:	20 97       	sbiw	r28, 0x00	; 0
 69e:	91 f7       	brne	.-28     	; 0x684 <_ZN5Print5writeEPKhj+0x14>
 6a0:	df 91       	pop	r29
 6a2:	cf 91       	pop	r28
 6a4:	1f 91       	pop	r17
 6a6:	0f 91       	pop	r16
 6a8:	ff 90       	pop	r15
 6aa:	ef 90       	pop	r14
 6ac:	08 95       	ret

000006ae <__vector_16>:
 6ae:	1f 92       	push	r1
 6b0:	0f 92       	push	r0
 6b2:	0f b6       	in	r0, 0x3f	; 63
 6b4:	0f 92       	push	r0
 6b6:	11 24       	eor	r1, r1
 6b8:	2f 93       	push	r18
 6ba:	3f 93       	push	r19
 6bc:	8f 93       	push	r24
 6be:	9f 93       	push	r25
 6c0:	af 93       	push	r26
 6c2:	bf 93       	push	r27
 6c4:	80 91 27 01 	lds	r24, 0x0127
 6c8:	90 91 28 01 	lds	r25, 0x0128
 6cc:	a0 91 29 01 	lds	r26, 0x0129
 6d0:	b0 91 2a 01 	lds	r27, 0x012A
 6d4:	30 91 2b 01 	lds	r19, 0x012B
 6d8:	01 96       	adiw	r24, 0x01	; 1
 6da:	a1 1d       	adc	r26, r1
 6dc:	b1 1d       	adc	r27, r1
 6de:	23 2f       	mov	r18, r19
 6e0:	2d 5f       	subi	r18, 0xFD	; 253
 6e2:	2d 37       	cpi	r18, 0x7D	; 125
 6e4:	20 f0       	brcs	.+8      	; 0x6ee <__vector_16+0x40>
 6e6:	2d 57       	subi	r18, 0x7D	; 125
 6e8:	01 96       	adiw	r24, 0x01	; 1
 6ea:	a1 1d       	adc	r26, r1
 6ec:	b1 1d       	adc	r27, r1
 6ee:	20 93 2b 01 	sts	0x012B, r18
 6f2:	80 93 27 01 	sts	0x0127, r24
 6f6:	90 93 28 01 	sts	0x0128, r25
 6fa:	a0 93 29 01 	sts	0x0129, r26
 6fe:	b0 93 2a 01 	sts	0x012A, r27
 702:	80 91 23 01 	lds	r24, 0x0123
 706:	90 91 24 01 	lds	r25, 0x0124
 70a:	a0 91 25 01 	lds	r26, 0x0125
 70e:	b0 91 26 01 	lds	r27, 0x0126
 712:	01 96       	adiw	r24, 0x01	; 1
 714:	a1 1d       	adc	r26, r1
 716:	b1 1d       	adc	r27, r1
 718:	80 93 23 01 	sts	0x0123, r24
 71c:	90 93 24 01 	sts	0x0124, r25
 720:	a0 93 25 01 	sts	0x0125, r26
 724:	b0 93 26 01 	sts	0x0126, r27
 728:	bf 91       	pop	r27
 72a:	af 91       	pop	r26
 72c:	9f 91       	pop	r25
 72e:	8f 91       	pop	r24
 730:	3f 91       	pop	r19
 732:	2f 91       	pop	r18
 734:	0f 90       	pop	r0
 736:	0f be       	out	0x3f, r0	; 63
 738:	0f 90       	pop	r0
 73a:	1f 90       	pop	r1
 73c:	18 95       	reti

0000073e <millis>:
 73e:	8f b7       	in	r24, 0x3f	; 63
 740:	f8 94       	cli
 742:	20 91 27 01 	lds	r18, 0x0127
 746:	30 91 28 01 	lds	r19, 0x0128
 74a:	40 91 29 01 	lds	r20, 0x0129
 74e:	50 91 2a 01 	lds	r21, 0x012A
 752:	8f bf       	out	0x3f, r24	; 63
 754:	b9 01       	movw	r22, r18
 756:	ca 01       	movw	r24, r20
 758:	08 95       	ret

0000075a <delayMicroseconds>:
 75a:	01 97       	sbiw	r24, 0x01	; 1
 75c:	39 f0       	breq	.+14     	; 0x76c <delayMicroseconds+0x12>
 75e:	88 0f       	add	r24, r24
 760:	99 1f       	adc	r25, r25
 762:	88 0f       	add	r24, r24
 764:	99 1f       	adc	r25, r25
 766:	02 97       	sbiw	r24, 0x02	; 2
 768:	01 97       	sbiw	r24, 0x01	; 1
 76a:	f1 f7       	brne	.-4      	; 0x768 <delayMicroseconds+0xe>
 76c:	08 95       	ret

0000076e <init>:
 76e:	78 94       	sei
 770:	84 b5       	in	r24, 0x24	; 36
 772:	82 60       	ori	r24, 0x02	; 2
 774:	84 bd       	out	0x24, r24	; 36
 776:	84 b5       	in	r24, 0x24	; 36
 778:	81 60       	ori	r24, 0x01	; 1
 77a:	84 bd       	out	0x24, r24	; 36
 77c:	85 b5       	in	r24, 0x25	; 37
 77e:	82 60       	ori	r24, 0x02	; 2
 780:	85 bd       	out	0x25, r24	; 37
 782:	85 b5       	in	r24, 0x25	; 37
 784:	81 60       	ori	r24, 0x01	; 1
 786:	85 bd       	out	0x25, r24	; 37
 788:	ee e6       	ldi	r30, 0x6E	; 110
 78a:	f0 e0       	ldi	r31, 0x00	; 0
 78c:	80 81       	ld	r24, Z
 78e:	81 60       	ori	r24, 0x01	; 1
 790:	80 83       	st	Z, r24
 792:	e1 e8       	ldi	r30, 0x81	; 129
 794:	f0 e0       	ldi	r31, 0x00	; 0
 796:	10 82       	st	Z, r1
 798:	80 81       	ld	r24, Z
 79a:	82 60       	ori	r24, 0x02	; 2
 79c:	80 83       	st	Z, r24
 79e:	80 81       	ld	r24, Z
 7a0:	81 60       	ori	r24, 0x01	; 1
 7a2:	80 83       	st	Z, r24
 7a4:	e0 e8       	ldi	r30, 0x80	; 128
 7a6:	f0 e0       	ldi	r31, 0x00	; 0
 7a8:	80 81       	ld	r24, Z
 7aa:	81 60       	ori	r24, 0x01	; 1
 7ac:	80 83       	st	Z, r24
 7ae:	e1 eb       	ldi	r30, 0xB1	; 177
 7b0:	f0 e0       	ldi	r31, 0x00	; 0
 7b2:	80 81       	ld	r24, Z
 7b4:	84 60       	ori	r24, 0x04	; 4
 7b6:	80 83       	st	Z, r24
 7b8:	e0 eb       	ldi	r30, 0xB0	; 176
 7ba:	f0 e0       	ldi	r31, 0x00	; 0
 7bc:	80 81       	ld	r24, Z
 7be:	81 60       	ori	r24, 0x01	; 1
 7c0:	80 83       	st	Z, r24
 7c2:	ea e7       	ldi	r30, 0x7A	; 122
 7c4:	f0 e0       	ldi	r31, 0x00	; 0
 7c6:	80 81       	ld	r24, Z
 7c8:	84 60       	ori	r24, 0x04	; 4
 7ca:	80 83       	st	Z, r24
 7cc:	80 81       	ld	r24, Z
 7ce:	82 60       	ori	r24, 0x02	; 2
 7d0:	80 83       	st	Z, r24
 7d2:	80 81       	ld	r24, Z
 7d4:	81 60       	ori	r24, 0x01	; 1
 7d6:	80 83       	st	Z, r24
 7d8:	80 81       	ld	r24, Z
 7da:	80 68       	ori	r24, 0x80	; 128
 7dc:	80 83       	st	Z, r24
 7de:	10 92 c1 00 	sts	0x00C1, r1
 7e2:	08 95       	ret

000007e4 <pinMode>:
 7e4:	48 2f       	mov	r20, r24
 7e6:	50 e0       	ldi	r21, 0x00	; 0
 7e8:	ca 01       	movw	r24, r20
 7ea:	86 56       	subi	r24, 0x66	; 102
 7ec:	9f 4f       	sbci	r25, 0xFF	; 255
 7ee:	fc 01       	movw	r30, r24
 7f0:	24 91       	lpm	r18, Z+
 7f2:	4a 57       	subi	r20, 0x7A	; 122
 7f4:	5f 4f       	sbci	r21, 0xFF	; 255
 7f6:	fa 01       	movw	r30, r20
 7f8:	84 91       	lpm	r24, Z+
 7fa:	88 23       	and	r24, r24
 7fc:	c1 f0       	breq	.+48     	; 0x82e <pinMode+0x4a>
 7fe:	e8 2f       	mov	r30, r24
 800:	f0 e0       	ldi	r31, 0x00	; 0
 802:	ee 0f       	add	r30, r30
 804:	ff 1f       	adc	r31, r31
 806:	e8 59       	subi	r30, 0x98	; 152
 808:	ff 4f       	sbci	r31, 0xFF	; 255
 80a:	a5 91       	lpm	r26, Z+
 80c:	b4 91       	lpm	r27, Z+
 80e:	66 23       	and	r22, r22
 810:	41 f4       	brne	.+16     	; 0x822 <pinMode+0x3e>
 812:	9f b7       	in	r25, 0x3f	; 63
 814:	f8 94       	cli
 816:	8c 91       	ld	r24, X
 818:	20 95       	com	r18
 81a:	82 23       	and	r24, r18
 81c:	8c 93       	st	X, r24
 81e:	9f bf       	out	0x3f, r25	; 63
 820:	08 95       	ret
 822:	9f b7       	in	r25, 0x3f	; 63
 824:	f8 94       	cli
 826:	8c 91       	ld	r24, X
 828:	82 2b       	or	r24, r18
 82a:	8c 93       	st	X, r24
 82c:	9f bf       	out	0x3f, r25	; 63
 82e:	08 95       	ret

00000830 <digitalWrite>:
 830:	48 2f       	mov	r20, r24
 832:	50 e0       	ldi	r21, 0x00	; 0
 834:	ca 01       	movw	r24, r20
 836:	82 55       	subi	r24, 0x52	; 82
 838:	9f 4f       	sbci	r25, 0xFF	; 255
 83a:	fc 01       	movw	r30, r24
 83c:	24 91       	lpm	r18, Z+
 83e:	ca 01       	movw	r24, r20
 840:	86 56       	subi	r24, 0x66	; 102
 842:	9f 4f       	sbci	r25, 0xFF	; 255
 844:	fc 01       	movw	r30, r24
 846:	34 91       	lpm	r19, Z+
 848:	4a 57       	subi	r20, 0x7A	; 122
 84a:	5f 4f       	sbci	r21, 0xFF	; 255
 84c:	fa 01       	movw	r30, r20
 84e:	94 91       	lpm	r25, Z+
 850:	99 23       	and	r25, r25
 852:	09 f4       	brne	.+2      	; 0x856 <digitalWrite+0x26>
 854:	40 c0       	rjmp	.+128    	; 0x8d6 <digitalWrite+0xa6>
 856:	22 23       	and	r18, r18
 858:	31 f1       	breq	.+76     	; 0x8a6 <digitalWrite+0x76>
 85a:	23 30       	cpi	r18, 0x03	; 3
 85c:	21 f4       	brne	.+8      	; 0x866 <digitalWrite+0x36>
 85e:	80 91 80 00 	lds	r24, 0x0080
 862:	8f 77       	andi	r24, 0x7F	; 127
 864:	05 c0       	rjmp	.+10     	; 0x870 <digitalWrite+0x40>
 866:	24 30       	cpi	r18, 0x04	; 4
 868:	31 f4       	brne	.+12     	; 0x876 <digitalWrite+0x46>
 86a:	80 91 80 00 	lds	r24, 0x0080
 86e:	8f 7d       	andi	r24, 0xDF	; 223
 870:	80 93 80 00 	sts	0x0080, r24
 874:	18 c0       	rjmp	.+48     	; 0x8a6 <digitalWrite+0x76>
 876:	21 30       	cpi	r18, 0x01	; 1
 878:	19 f4       	brne	.+6      	; 0x880 <digitalWrite+0x50>
 87a:	84 b5       	in	r24, 0x24	; 36
 87c:	8f 77       	andi	r24, 0x7F	; 127
 87e:	04 c0       	rjmp	.+8      	; 0x888 <digitalWrite+0x58>
 880:	22 30       	cpi	r18, 0x02	; 2
 882:	21 f4       	brne	.+8      	; 0x88c <digitalWrite+0x5c>
 884:	84 b5       	in	r24, 0x24	; 36
 886:	8f 7d       	andi	r24, 0xDF	; 223
 888:	84 bd       	out	0x24, r24	; 36
 88a:	0d c0       	rjmp	.+26     	; 0x8a6 <digitalWrite+0x76>
 88c:	26 30       	cpi	r18, 0x06	; 6
 88e:	21 f4       	brne	.+8      	; 0x898 <digitalWrite+0x68>
 890:	80 91 b0 00 	lds	r24, 0x00B0
 894:	8f 77       	andi	r24, 0x7F	; 127
 896:	05 c0       	rjmp	.+10     	; 0x8a2 <digitalWrite+0x72>
 898:	27 30       	cpi	r18, 0x07	; 7
 89a:	29 f4       	brne	.+10     	; 0x8a6 <digitalWrite+0x76>
 89c:	80 91 b0 00 	lds	r24, 0x00B0
 8a0:	8f 7d       	andi	r24, 0xDF	; 223
 8a2:	80 93 b0 00 	sts	0x00B0, r24
 8a6:	e9 2f       	mov	r30, r25
 8a8:	f0 e0       	ldi	r31, 0x00	; 0
 8aa:	ee 0f       	add	r30, r30
 8ac:	ff 1f       	adc	r31, r31
 8ae:	ee 58       	subi	r30, 0x8E	; 142
 8b0:	ff 4f       	sbci	r31, 0xFF	; 255
 8b2:	a5 91       	lpm	r26, Z+
 8b4:	b4 91       	lpm	r27, Z+
 8b6:	66 23       	and	r22, r22
 8b8:	41 f4       	brne	.+16     	; 0x8ca <digitalWrite+0x9a>
 8ba:	9f b7       	in	r25, 0x3f	; 63
 8bc:	f8 94       	cli
 8be:	8c 91       	ld	r24, X
 8c0:	30 95       	com	r19
 8c2:	83 23       	and	r24, r19
 8c4:	8c 93       	st	X, r24
 8c6:	9f bf       	out	0x3f, r25	; 63
 8c8:	08 95       	ret
 8ca:	9f b7       	in	r25, 0x3f	; 63
 8cc:	f8 94       	cli
 8ce:	8c 91       	ld	r24, X
 8d0:	83 2b       	or	r24, r19
 8d2:	8c 93       	st	X, r24
 8d4:	9f bf       	out	0x3f, r25	; 63
 8d6:	08 95       	ret

000008d8 <digitalRead>:
 8d8:	68 2f       	mov	r22, r24
 8da:	70 e0       	ldi	r23, 0x00	; 0
 8dc:	cb 01       	movw	r24, r22
 8de:	82 55       	subi	r24, 0x52	; 82
 8e0:	9f 4f       	sbci	r25, 0xFF	; 255
 8e2:	fc 01       	movw	r30, r24
 8e4:	24 91       	lpm	r18, Z+
 8e6:	cb 01       	movw	r24, r22
 8e8:	86 56       	subi	r24, 0x66	; 102
 8ea:	9f 4f       	sbci	r25, 0xFF	; 255
 8ec:	fc 01       	movw	r30, r24
 8ee:	44 91       	lpm	r20, Z+
 8f0:	6a 57       	subi	r22, 0x7A	; 122
 8f2:	7f 4f       	sbci	r23, 0xFF	; 255
 8f4:	fb 01       	movw	r30, r22
 8f6:	94 91       	lpm	r25, Z+
 8f8:	99 23       	and	r25, r25
 8fa:	19 f4       	brne	.+6      	; 0x902 <__stack+0x3>
 8fc:	20 e0       	ldi	r18, 0x00	; 0
 8fe:	30 e0       	ldi	r19, 0x00	; 0
 900:	38 c0       	rjmp	.+112    	; 0x972 <__stack+0x73>
 902:	22 23       	and	r18, r18
 904:	31 f1       	breq	.+76     	; 0x952 <__stack+0x53>
 906:	23 30       	cpi	r18, 0x03	; 3
 908:	21 f4       	brne	.+8      	; 0x912 <__stack+0x13>
 90a:	80 91 80 00 	lds	r24, 0x0080
 90e:	8f 77       	andi	r24, 0x7F	; 127
 910:	05 c0       	rjmp	.+10     	; 0x91c <__stack+0x1d>
 912:	24 30       	cpi	r18, 0x04	; 4
 914:	31 f4       	brne	.+12     	; 0x922 <__stack+0x23>
 916:	80 91 80 00 	lds	r24, 0x0080
 91a:	8f 7d       	andi	r24, 0xDF	; 223
 91c:	80 93 80 00 	sts	0x0080, r24
 920:	18 c0       	rjmp	.+48     	; 0x952 <__stack+0x53>
 922:	21 30       	cpi	r18, 0x01	; 1
 924:	19 f4       	brne	.+6      	; 0x92c <__stack+0x2d>
 926:	84 b5       	in	r24, 0x24	; 36
 928:	8f 77       	andi	r24, 0x7F	; 127
 92a:	04 c0       	rjmp	.+8      	; 0x934 <__stack+0x35>
 92c:	22 30       	cpi	r18, 0x02	; 2
 92e:	21 f4       	brne	.+8      	; 0x938 <__stack+0x39>
 930:	84 b5       	in	r24, 0x24	; 36
 932:	8f 7d       	andi	r24, 0xDF	; 223
 934:	84 bd       	out	0x24, r24	; 36
 936:	0d c0       	rjmp	.+26     	; 0x952 <__stack+0x53>
 938:	26 30       	cpi	r18, 0x06	; 6
 93a:	21 f4       	brne	.+8      	; 0x944 <__stack+0x45>
 93c:	80 91 b0 00 	lds	r24, 0x00B0
 940:	8f 77       	andi	r24, 0x7F	; 127
 942:	05 c0       	rjmp	.+10     	; 0x94e <__stack+0x4f>
 944:	27 30       	cpi	r18, 0x07	; 7
 946:	29 f4       	brne	.+10     	; 0x952 <__stack+0x53>
 948:	80 91 b0 00 	lds	r24, 0x00B0
 94c:	8f 7d       	andi	r24, 0xDF	; 223
 94e:	80 93 b0 00 	sts	0x00B0, r24
 952:	89 2f       	mov	r24, r25
 954:	90 e0       	ldi	r25, 0x00	; 0
 956:	88 0f       	add	r24, r24
 958:	99 1f       	adc	r25, r25
 95a:	84 58       	subi	r24, 0x84	; 132
 95c:	9f 4f       	sbci	r25, 0xFF	; 255
 95e:	fc 01       	movw	r30, r24
 960:	a5 91       	lpm	r26, Z+
 962:	b4 91       	lpm	r27, Z+
 964:	8c 91       	ld	r24, X
 966:	20 e0       	ldi	r18, 0x00	; 0
 968:	30 e0       	ldi	r19, 0x00	; 0
 96a:	84 23       	and	r24, r20
 96c:	11 f0       	breq	.+4      	; 0x972 <__stack+0x73>
 96e:	21 e0       	ldi	r18, 0x01	; 1
 970:	30 e0       	ldi	r19, 0x00	; 0
 972:	c9 01       	movw	r24, r18
 974:	08 95       	ret

00000976 <__tablejump2__>:
 976:	ee 0f       	add	r30, r30
 978:	ff 1f       	adc	r31, r31

0000097a <__tablejump__>:
 97a:	05 90       	lpm	r0, Z+
 97c:	f4 91       	lpm	r31, Z+
 97e:	e0 2d       	mov	r30, r0
 980:	09 94       	ijmp

00000982 <_exit>:
 982:	f8 94       	cli

00000984 <__stop_program>:
 984:	ff cf       	rjmp	.-2      	; 0x984 <__stop_program>
